******************************************************************************
            TI ARM Clang Linker PC v4.0.3                      
******************************************************************************
>> Linked Thu Oct 23 18:21:04 2025

OUTPUT FILE NAME:   <spi_controller_register_format_LP_MSPM33C321A_nortos_ticlang.out>
ENTRY POINT SYMBOL: "_c_int00_noargs"  address: 1000a7a5


MEMORY CONFIGURATION

         name            origin    length      used     unused   attr    fill
----------------------  --------  ---------  --------  --------  ----  --------
  FLASH                 10000000   000fffff  0000adc0  000f523f  R  X
  SRAM                  30000000   0003ffff  00000f3d  0003f0c2  RW X
  DATA                  80000000   00007fff  00000000  00007fff  R   
  BCR_CONFIG            80101800   000003ff  00000000  000003ff  R   
  BSL_CONFIG            80101c00   000003ff  00000000  000003ff  R   


SEGMENT ALLOCATION MAP

run origin  load origin   length   init length attrs members
----------  ----------- ---------- ----------- ----- -------
10000000    10000000    0000adc0   0000adc0    r-x
  10000000    10000000    00000120   00000120    r-- .intvecs
  10000120    10000120    0000a820   0000a820    r-x .text
  1000a940    1000a940    000003e0   000003e0    r-- .rodata
  1000ad20    1000ad20    000000a0   000000a0    r-- .cinit
30000000    30000000    00000e40   00000000    rw-
  30000000    30000000    00000800   00000000    rw- .sysmem
  30000800    30000800    000002a0   00000000    rw- __llvm_prf_cnts
  30000aa0    30000aa0    000001d1   00000000    rw- .data
  30000c74    30000c74    000001cc   00000000    rw- .bss
3003fef8    3003fef8    00000100   00000000    rw-
  3003fef8    3003fef8    00000100   00000000    rw- .stack


SECTION ALLOCATION MAP

 output                                  attributes/
section   page    origin      length       input sections
--------  ----  ----------  ----------   ----------------
.intvecs   0    10000000    00000120     
                  10000000    00000114     startup_mspm33c321x_ticlang.o (.intvecs)
                  10000114    0000000c     --HOLE-- [fill = 0]

.text      0    10000120    0000a820     
                  10000120    0000649e     tft.o (.text.TFT_Init)
                  100065be    00000002     libclang_rt.builtins.a : aeabi_div0.c.obj (.text.__aeabi_ldiv0)
                  100065c0    00000ffa     tft.o (.text.main)
                  100075ba    00000002     libc.a : _lock.c.obj (.text._nop)
                  100075bc    00000844            : _printfi.c.obj (.text:__TI_printfi_nofloat)
                  10007e00    0000040a     tft.o (.text.TFT_SetAddressWindow)
                  1000820a    00000002     --HOLE-- [fill = 0]
                  1000820c    000003b6     tft.o (.text.TFT_DrawChar)
                  100085c2    00000002     --HOLE-- [fill = 0]
                  100085c4    000002dc     tft.o (.text.TFT_ReadID)
                  100088a0    000002dc     libc.a : strcmp_t2.S.obj (.text:strcmp)
                  10008b7c    000002da     tft.o (.text.TFT_FillRect)
                  10008e56    00000002     --HOLE-- [fill = 0]
                  10008e58    00000256     tft.o (.text.TFT_FillScreen)
                  100090ae    00000002     --HOLE-- [fill = 0]
                  100090b0    00000220     tft.o (.text.TFT_ReadRegister)
                  100092d0    000001fc     tft.o (.text.TFT_WriteData16)
                  100094cc    0000014e     ti_msp_dl_config.o (.text.SYSCFG_DL_initPower)
                  1000961a    0000012a     ti_msp_dl_config.o (.text.SYSCFG_DL_GPIO_init)
                  10009744    0000010c     libc.a : memory.c.obj (.text.aligned_alloc)
                  10009850    000000fc            : fputs.c.obj (.text.fputs)
                  1000994c    000000dc            : memory.c.obj (.text.free)
                  10009a28    000000d8            : setvbuf.c.obj (.text.setvbuf)
                  10009b00    000000ca     ti_msp_dl_config.o (.text.SYSCFG_DL_SPI_1_init)
                  10009bca    000000b2     ti_msp_dl_config.o (.text.SYSCFG_DL_SYSCTL_init)
                  10009c7c    000000b0     libclang_rt.builtins.a : udivmoddi4.S.obj (.text)
                  10009d2c    0000009c     libc.a : memcpy_t2.S.obj (.text:memcpy)
                  10009dc8    00000088            : fputc.c.obj (.text.fputc)
                  10009e50    00000074            : copy_decompress_lzss.c.obj (.text:decompress:lzss)
                  10009ec4    00000072            : memset_t2.S.obj (.text:memset)
                  10009f36    00000002     --HOLE-- [fill = 0]
                  10009f38    00000070            : fclose.c.obj (.text.__TI_closefile)
                  10009fa8    0000006c            : memory.c.obj (.text.split)
                  1000a014    00000068            : fseek.c.obj (.text.fseeko)
                  1000a07c    00000068            : getdevice.c.obj (.text.getdevice)
                  1000a0e4    00000064     libsysbm.a : hostrename.c.obj (.text.HOSTrename)
                  1000a148    00000060     libc.a : _io_perm.c.obj (.text.__TI_wrt_ok)
                  1000a1a8    00000060     libsysbm.a : close.c.obj (.text.close)
                  1000a208    00000060     libc.a : printf.c.obj (.text.printf)
                  1000a268    00000058     libsysbm.a : hostlseek.c.obj (.text.HOSTlseek)
                  1000a2c0    00000058                : hostopen.c.obj (.text.HOSTopen)
                  1000a318    00000054                : hostread.c.obj (.text.HOSTread)
                  1000a36c    00000054                : hostwrite.c.obj (.text.HOSTwrite)
                  1000a3c0    00000050     libc.a : fflush.c.obj (.text.__TI_doflush)
                  1000a410    00000046     driverlib.a : dl_unicommspi.o (.text.DL_SPI_init)
                  1000a456    00000002     --HOLE-- [fill = 0]
                  1000a458    00000044     libsysbm.a : hostunlink.c.obj (.text.HOSTunlink)
                  1000a49c    00000040     libc.a : atoi.c.obj (.text.atoi)
                  1000a4dc    0000003c     libsysbm.a : hostclose.c.obj (.text.HOSTclose)
                  1000a518    00000038     libc.a : sprintf.c.obj (.text.sprintf)
                  1000a550    00000038            : autoinit.c.obj (.text:__TI_auto_init_nobinit_nopinit)
                  1000a588    00000034            : fopen.c.obj (.text.__TI_cleanup)
                  1000a5bc    00000034     libsysbm.a : trgmsg.c.obj (.text.__TI_writemsg)
                  1000a5f0    00000030                : trgmsg.c.obj (.text.__TI_readmsg)
                  1000a620    00000030     libc.a : exit.c.obj (.text.exit)
                  1000a650    0000002c     ti_msp_dl_config.o (.text.SYSCFG_DL_init)
                  1000a67c    0000002c     libc.a : getdevice.c.obj (.text.finddevice)
                  1000a6a8    0000002c     libsysbm.a : lseek.c.obj (.text.lseek)
                  1000a6d4    0000002c                : unlink.c.obj (.text.unlink)
                  1000a700    0000002c                : write.c.obj (.text.write)
                  1000a72c    00000028     driverlib.a : dl_unicommspi.o (.text.DL_Common_updateReg)
                  1000a754    00000028     libc.a : memory.c.obj (.text.free_list_insert)
                  1000a77c    00000026     driverlib.a : dl_unicommspi.o (.text.DL_SPI_setClockConfig)
                  1000a7a2    00000002     --HOLE-- [fill = 0]
                  1000a7a4    00000024     libc.a : boot_cortex_m.c.obj (.text:_c_int00_noargs)
                  1000a7c8    00000022            : memccpy.c.obj (.text.memccpy)
                  1000a7ea    0000001c     startup_mspm33c321x_ticlang.o (.text.Reset_Handler)
                  1000a806    00000002     --HOLE-- [fill = 0]
                  1000a808    0000001c     libc.a : memory.c.obj (.text.free_list_remove)
                  1000a824    0000001a     startup_mspm33c321x_ticlang.o (.text.Default_Handler)
                  1000a83e    00000018     libc.a : sprintf.c.obj (.text._outs)
                  1000a856    00000014     driverlib.a : dl_common.o (.text.DL_Common_delayCycles)
                  1000a86a    00000002     --HOLE-- [fill = 0]
                  1000a86c    00000014     libclang_rt.builtins.a : aeabi_uldivmod.S.obj (.text.__aeabi_uldivmod)
                  1000a880    00000012     libc.a : copy_zero_init.c.obj (.text:decompress:ZI:__TI_zero_init_nomemset)
                  1000a892    00000010            : memory.c.obj (.text.OUTLINED_FUNCTION_0)
                  1000a8a2    00000010            : wcslen.c.obj (.text.wcslen)
                  1000a8b2    0000000e     libsysbm.a : hostrename.c.obj (.text.strcpy)
                  1000a8c0    0000000e     libc.a : _printfi.c.obj (.text.strlen)
                  1000a8ce    0000000e     libsysbm.a : hostrename.c.obj (.text.strlen)
                  1000a8dc    0000000e     libc.a : copy_decompress_none.c.obj (.text:decompress:none)
                  1000a8ea    00000002     --HOLE-- [fill = 0]
                  1000a8ec    0000000a     libclang_rt.builtins.a : aeabi_memset.S.obj (.text.__aeabi_memset)
                  1000a8f6    0000000a     libc.a : sprintf.c.obj (.text._outc)
                  1000a900    00000008            : aeabi_portable.c.obj (.text.__aeabi_errno_addr)
                  1000a908    00000008     libclang_rt.builtins.a : aeabi_memset.S.obj (.text.__aeabi_memclr)
                  1000a910    00000008     libc.a : memory.c.obj (.text.malloc)
                  1000a918    00000006            : exit.c.obj (.text:abort)
                  1000a91e    00000004     libsysbm.a : hostexit.c.obj (.text.HOSTexit)
                  1000a922    00000002     --HOLE-- [fill = 0]
                  1000a924    00000004     libclang_rt.builtins.a : aeabi_memcpy.S.obj (.text.__aeabi_memcpy)
                  1000a928    00000004     libc.a : printf.c.obj (.text._outc)
                  1000a92c    00000004            : printf.c.obj (.text._outs)
                  1000a930    00000004            : pre_init.c.obj (.text._system_pre_init)
                  1000a934    00000004            : fseek.c.obj (.text.fseek)
                  1000a938    00000004     libsysbm.a : remove.c.obj (.text.remove)
                  1000a93c    00000004     --HOLE-- [fill = 0]

.cinit     0    1000ad20    000000a0     
                  1000ad20    00000066     (.cinit..data.load) [load image, compression = lzss]
                  1000ad86    00000002     --HOLE-- [fill = 0]
                  1000ad88    0000000c     (__TI_handler_table)
                  1000ad94    00000009     (.cinit.__llvm_prf_cnts.load) [load image, compression = lzss]
                  1000ad9d    00000003     --HOLE-- [fill = 0]
                  1000ada0    00000008     (.cinit..bss.load) [load image, compression = zero_init]
                  1000ada8    00000018     (__TI_cinit_table)

.rodata    0    1000a940    000003e0     
                  1000a940    000001e0     tft.o (.rodata.font5x7)
                  1000ab20    00000101     libc.a : aeabi_ctype.S.obj (.rodata:__aeabi_ctype_table_)
                  1000ac21    0000002d     tft.o (.rodata.str1.12404132643908979091.1)
                  1000ac4e    0000001a     tft.o (.rodata.str1.13776256161821561064.1)
                  1000ac68    00000018     ti_msp_dl_config.o (.rodata.UC6_Inst)
                  1000ac80    00000014     tft.o (.rodata.str1.4019607706328417028.1)
                  1000ac94    00000011     libc.a : _printfi.c.obj (.rodata.str1.10348868589481759720.1)
                  1000aca5    00000011            : _printfi.c.obj (.rodata.str1.15363888844622738466.1)
                  1000acb6    00000011     tft.o (.rodata.str1.3377323731003627645.1)
                  1000acc7    00000010     tft.o (.rodata.str1.1436171034844034035.1)
                  1000acd7    0000000f     tft.o (.rodata.str1.9158064259770873136.1)
                  1000ace6    0000000c     tft.o (.rodata.str1.11273816490746554325.1)
                  1000acf2    0000000c     tft.o (.rodata.str1.16716551289572780309.1)
                  1000acfe    0000000a     ti_msp_dl_config.o (.rodata.gSPI_1_config)
                  1000ad08    00000007     tft.o (.rodata.str1.11152274604425007829.1)
                  1000ad0f    00000007     tft.o (.rodata.str1.6680627462027669879.1)
                  1000ad16    00000004     ti_msp_dl_config.o (.rodata.gSPI_1_clockConfig)
                  1000ad1a    00000006     --HOLE-- [fill = 0]

.init_array 
*          0    10000000    00000000     UNINITIALIZED

.binit     0    10000000    00000000     

.sysmem    0    30000000    00000800     UNINITIALIZED
                  30000000    00000010     libc.a : memory.c.obj (.sysmem)
                  30000010    000007f0     --HOLE--

__llvm_prf_bits 
*          0    30000000    00000000     UNINITIALIZED

.data      0    30000aa0    000001d1     UNINITIALIZED
                  30000aa0    000000f0     libc.a : defs.c.obj (.data._ftable)
                  30000b90    00000078     libsysbm.a : host_device.c.obj (.data._device)
                  30000c08    00000050                : host_device.c.obj (.data._stream)
                  30000c58    00000008     libc.a : exit.c.obj (.data..L_MergedGlobals)
                  30000c60    00000004            : defs.c.obj (.data.__TI_ft_end)
                  30000c64    00000004            : aeabi_portable.c.obj (.data.__aeabi_errno)
                  30000c68    00000004            : _lock.c.obj (.data._lock)
                  30000c6c    00000004            : _lock.c.obj (.data._unlock)
                  30000c70    00000001            : memory.c.obj (.data.memory_is_initialized)

.bss       0    30000c74    000001cc     UNINITIALIZED
                  30000c74    00000120     libsysbm.a : trgmsg.c.obj (.bss:_CIOBUF_)
                  30000d94    000000a0     libc.a : defs.c.obj (.bss.__TI_tmpnams)
                  30000e34    00000008     libsysbm.a : hostopen.c.obj (.bss.parmbuf)
                  30000e3c    00000004     libc.a : memory.c.obj (.bss.sys_free)

.stack     0    3003fef8    00000100     UNINITIALIZED
                  3003fef8    00000004     libc.a : boot_cortex_m.c.obj (.stack)
                  3003fefc    000000fc     --HOLE--

__llvm_prf_cnts 
*          0    30000800    000002a0     UNINITIALIZED
                  30000800    00000050     tft.o (__llvm_prf_cnts.__profc_TFT_DrawChar)
                  30000850    00000038     tft.o (__llvm_prf_cnts.__profc_TFT_FillRect)
                  30000888    00000028     tft.o (__llvm_prf_cnts.__profc_TFT_DrawString)
                  300008b0    00000028     tft.o (__llvm_prf_cnts.__profc_main)
                  300008d8    00000020     tft.o (__llvm_prf_cnts.__profc_TFT_DrawPixel)
                  300008f8    00000010     startup_mspm33c321x_ticlang.o (__llvm_prf_cnts.__profc_Default_Handler)
                  30000908    00000010     tft.o (__llvm_prf_cnts.__profc_TFT_FillScreen)
                  30000918    00000010     tft.o (__llvm_prf_cnts.__profc_tft.c_SPI_WriteByte)
                  30000928    00000010     ti_msp_dl_config.o (__llvm_prf_cnts.__profc_ti_msp_dl_config.c_DL_SPI_enablePower)
                  30000938    00000008     startup_mspm33c321x_ticlang.o (__llvm_prf_cnts.__profc_Reset_Handler)
                  30000940    00000008     ti_msp_dl_config.o (__llvm_prf_cnts.__profc_SYSCFG_DL_GPIO_init)
                  30000948    00000008     ti_msp_dl_config.o (__llvm_prf_cnts.__profc_SYSCFG_DL_SPI_1_init)
                  30000950    00000008     ti_msp_dl_config.o (__llvm_prf_cnts.__profc_SYSCFG_DL_SYSCTL_init)
                  30000958    00000008     ti_msp_dl_config.o (__llvm_prf_cnts.__profc_SYSCFG_DL_init)
                  30000960    00000008     ti_msp_dl_config.o (__llvm_prf_cnts.__profc_SYSCFG_DL_initPower)
                  30000968    00000008     tft.o (__llvm_prf_cnts.__profc_TFT_HardwareReset)
                  30000970    00000008     tft.o (__llvm_prf_cnts.__profc_TFT_Init)
                  30000978    00000008     tft.o (__llvm_prf_cnts.__profc_TFT_ReadID)
                  30000980    00000008     tft.o (__llvm_prf_cnts.__profc_TFT_ReadRegister)
                  30000988    00000008     tft.o (__llvm_prf_cnts.__profc_TFT_SetAddressWindow)
                  30000990    00000008     tft.o (__llvm_prf_cnts.__profc_TFT_WriteCommand)
                  30000998    00000008     tft.o (__llvm_prf_cnts.__profc_TFT_WriteData16)
                  300009a0    00000008     tft.o (__llvm_prf_cnts.__profc_TFT_WriteData)
                  300009a8    00000008     tft.o (__llvm_prf_cnts.__profc_tft.c_CS_High)
                  300009b0    00000008     tft.o (__llvm_prf_cnts.__profc_tft.c_CS_Low)
                  300009b8    00000008     tft.o (__llvm_prf_cnts.__profc_tft.c_DC_Command)
                  300009c0    00000008     tft.o (__llvm_prf_cnts.__profc_tft.c_DC_Data)
                  300009c8    00000008     tft.o (__llvm_prf_cnts.__profc_tft.c_DL_Common_updateReg)
                  300009d0    00000008     tft.o (__llvm_prf_cnts.__profc_tft.c_DL_GPIO_clearPins)
                  300009d8    00000008     tft.o (__llvm_prf_cnts.__profc_tft.c_DL_GPIO_setPins)
                  300009e0    00000008     tft.o (__llvm_prf_cnts.__profc_tft.c_DL_SPI_enable)
                  300009e8    00000008     tft.o (__llvm_prf_cnts.__profc_tft.c_DL_SPI_isBusy)
                  300009f0    00000008     tft.o (__llvm_prf_cnts.__profc_tft.c_DL_SPI_receiveData8)
                  300009f8    00000008     tft.o (__llvm_prf_cnts.__profc_tft.c_DL_SPI_setBitRateSerialClockDivider)
                  30000a00    00000008     tft.o (__llvm_prf_cnts.__profc_tft.c_DL_SPI_transmitData8)
                  30000a08    00000008     ti_msp_dl_config.o (__llvm_prf_cnts.__profc_ti_msp_dl_config.c_DL_Common_updateReg)
                  30000a10    00000008     ti_msp_dl_config.o (__llvm_prf_cnts.__profc_ti_msp_dl_config.c_DL_GPIO_clearPins)
                  30000a18    00000008     ti_msp_dl_config.o (__llvm_prf_cnts.__profc_ti_msp_dl_config.c_DL_GPIO_enableOutput)
                  30000a20    00000008     ti_msp_dl_config.o (__llvm_prf_cnts.__profc_ti_msp_dl_config.c_DL_GPIO_enablePower)
                  30000a28    00000008     ti_msp_dl_config.o (__llvm_prf_cnts.__profc_ti_msp_dl_config.c_DL_GPIO_initDigitalOutput)
                  30000a30    00000008     ti_msp_dl_config.o (__llvm_prf_cnts.__profc_ti_msp_dl_config.c_DL_GPIO_initPeripheralInputFunction)
                  30000a38    00000008     ti_msp_dl_config.o (__llvm_prf_cnts.__profc_ti_msp_dl_config.c_DL_GPIO_initPeripheralOutputFunction)
                  30000a40    00000008     ti_msp_dl_config.o (__llvm_prf_cnts.__profc_ti_msp_dl_config.c_DL_GPIO_reset)
                  30000a48    00000008     ti_msp_dl_config.o (__llvm_prf_cnts.__profc_ti_msp_dl_config.c_DL_SPI_enable)
                  30000a50    00000008     ti_msp_dl_config.o (__llvm_prf_cnts.__profc_ti_msp_dl_config.c_DL_SPI_reset)
                  30000a58    00000008     ti_msp_dl_config.o (__llvm_prf_cnts.__profc_ti_msp_dl_config.c_DL_SPI_setBitRateSerialClockDivider)
                  30000a60    00000008     ti_msp_dl_config.o (__llvm_prf_cnts.__profc_ti_msp_dl_config.c_DL_SPI_setFIFOThreshold)
                  30000a68    00000008     ti_msp_dl_config.o (__llvm_prf_cnts.__profc_ti_msp_dl_config.c_DL_SYSCTL_disableHFXT)
                  30000a70    00000008     ti_msp_dl_config.o (__llvm_prf_cnts.__profc_ti_msp_dl_config.c_DL_SYSCTL_disableSYSPLL)
                  30000a78    00000008     ti_msp_dl_config.o (__llvm_prf_cnts.__profc_ti_msp_dl_config.c_DL_SYSCTL_setBORThreshold)
                  30000a80    00000008     ti_msp_dl_config.o (__llvm_prf_cnts.__profc_ti_msp_dl_config.c_DL_SYSCTL_setSYSOSCFreq)
                  30000a88    00000008     ti_msp_dl_config.o (__llvm_prf_cnts.__profc_ti_msp_dl_config.c_DL_UNICOMM_enablePower)
                  30000a90    00000008     ti_msp_dl_config.o (__llvm_prf_cnts.__profc_ti_msp_dl_config.c_DL_UNICOMM_reset)
                  30000a98    00000008     ti_msp_dl_config.o (__llvm_prf_cnts.__profc_ti_msp_dl_config.c_DL_UNICOMM_setIPMode)

MODULE SUMMARY

       Module                          code    ro data   rw data
       ------                          ----    -------   -------
    .\
       tft.o                           34944   657       440    
       ti_msp_dl_config.o              1056    38        208    
       startup_mspm33c321x_ticlang.o   54      276       24     
    +--+-------------------------------+-------+---------+---------+
       Total:                          36054   971       672    
                                                                
    C:/ti/mspm33_sdk_1_00_00_00_internal/source/ti/driverlib/lib/ticlang/m33/mspm33c321x/driverlib.a
       dl_unicommspi.o                 148     0         0      
       dl_common.o                     20      0         0      
    +--+-------------------------------+-------+---------+---------+
       Total:                          168     0         0      
                                                                
    C:\ti\ccs2030\ccs\tools\compiler\ti-cgt-armllvm_4.0.3.LTS\lib\armv8m.main-ti-none-eabi/c/libc.a
       _printfi.c.obj                  2130    34        0      
       strcmp_t2.S.obj                 732     0         0      
       memory.c.obj                    688     0         5      
       defs.c.obj                      0       0         404    
       aeabi_ctype.S.obj               0       257       0      
       fputs.c.obj                     252     0         0      
       setvbuf.c.obj                   216     0         0      
       memcpy_t2.S.obj                 156     0         0      
       getdevice.c.obj                 148     0         0      
       fputc.c.obj                     136     0         0      
       copy_decompress_lzss.c.obj      116     0         0      
       memset_t2.S.obj                 114     0         0      
       fclose.c.obj                    112     0         0      
       fseek.c.obj                     108     0         0      
       printf.c.obj                    104     0         0      
       _io_perm.c.obj                  96      0         0      
       sprintf.c.obj                   90      0         0      
       fflush.c.obj                    80      0         0      
       atoi.c.obj                      64      0         0      
       exit.c.obj                      54      0         8      
       autoinit.c.obj                  56      0         0      
       fopen.c.obj                     52      0         0      
       boot_cortex_m.c.obj             36      0         0      
       memccpy.c.obj                   34      0         0      
       copy_zero_init.c.obj            18      0         0      
       wcslen.c.obj                    16      0         0      
       copy_decompress_none.c.obj      14      0         0      
       aeabi_portable.c.obj            8       0         4      
       _lock.c.obj                     2       0         8      
       pre_init.c.obj                  4       0         0      
    +--+-------------------------------+-------+---------+---------+
       Total:                          5636    291       429    
                                                                
    C:\ti\ccs2030\ccs\tools\compiler\ti-cgt-armllvm_4.0.3.LTS\lib\armv8m.main-ti-none-eabi/c/libsysbm.a
       trgmsg.c.obj                    100     0         288    
       host_device.c.obj               0       0         200    
       hostrename.c.obj                128     0         0      
       close.c.obj                     96      0         0      
       hostopen.c.obj                  88      0         8      
       hostlseek.c.obj                 88      0         0      
       hostread.c.obj                  84      0         0      
       hostwrite.c.obj                 84      0         0      
       hostunlink.c.obj                68      0         0      
       hostclose.c.obj                 60      0         0      
       lseek.c.obj                     44      0         0      
       unlink.c.obj                    44      0         0      
       write.c.obj                     44      0         0      
       hostexit.c.obj                  4       0         0      
       remove.c.obj                    4       0         0      
    +--+-------------------------------+-------+---------+---------+
       Total:                          936     0         496    
                                                                
    C:\ti\ccs2030\ccs\tools\compiler\ti-cgt-armllvm_4.0.3.LTS\lib\armv8m.main-ti-none-eabi/libclang_rt.builtins.a
       udivmoddi4.S.obj                176     0         0      
       aeabi_uldivmod.S.obj            20      0         0      
       aeabi_memset.S.obj              18      0         0      
       aeabi_memcpy.S.obj              4       0         0      
       aeabi_div0.c.obj                2       0         0      
    +--+-------------------------------+-------+---------+---------+
       Total:                          220     0         0      
                                                                
       Heap:                           0       0         2048   
       Stack:                          0       0         256    
       Linker Generated:               0       155       0      
    +--+-------------------------------+-------+---------+---------+
       Grand Total:                    43014   1417      3901   


LINKER GENERATED COPY TABLES

__TI_cinit_table @ 1000ada8 records: 3, size/record: 8, table size: 24
	.data: load addr=1000ad20, load size=00000066 bytes, run addr=30000aa0, run size=000001d1 bytes, compression=lzss
	__llvm_prf_cnts: load addr=1000ad94, load size=00000009 bytes, run addr=30000800, run size=000002a0 bytes, compression=lzss
	.bss: load addr=1000ada0, load size=00000008 bytes, run addr=30000c74, run size=000001cc bytes, compression=zero_init


LINKER GENERATED HANDLER TABLE

__TI_handler_table @ 1000ad88 records: 3, size/record: 4, table size: 12
	index: 0, handler: __TI_decompress_lzss
	index: 1, handler: __TI_decompress_none
	index: 2, handler: __TI_zero_init


GLOBAL SYMBOLS: SORTED ALPHABETICALLY BY Name 

address   name                                                           
-------   ----                                                           
1000a825  ADC0_DCOMP_IRQHandler                                          
1000a825  ADC0_SEQ0_IRQHandler                                           
1000a825  ADC0_SEQ1_IRQHandler                                           
1000a825  ADC0_SEQ2_IRQHandler                                           
1000a825  ADC0_SEQ3_IRQHandler                                           
1000a825  ADC1_DCOMP_IRQHandler                                          
1000a825  ADC1_SEQ0_IRQHandler                                           
1000a825  ADC1_SEQ1_IRQHandler                                           
1000a825  ADC1_SEQ2_IRQHandler                                           
1000a825  ADC1_SEQ3_IRQHandler                                           
1000a825  AESADVHP_IRQHandler                                            
1000a91e  C$$EXIT                                                        
1000a5e7  C$$IO$$                                                        
1000a825  CANFD0_IRQHandler                                              
1000a825  CANFD1_IRQHandler                                              
1000a825  COMP0_IRQHandler                                               
1000a825  COMP1_IRQHandler                                               
1000a825  DEBUGSS_IRQHandler                                             
1000a857  DL_Common_delayCycles                                          
1000a411  DL_SPI_init                                                    
1000a77d  DL_SPI_setClockConfig                                          
1000a825  DMA0_IRQHandler                                                
1000a825  DMA1_IRQHandler                                                
1000a825  Default_Handler                                                
1000a825  FLASHCTL_IRQHandler                                            
1000a825  GPIOA_IRQHandler                                               
1000a825  GPIOB_IRQHandler                                               
1000a825  GPIOC_IRQHandler                                               
1000a4dd  HOSTclose                                                      
1000a91f  HOSTexit                                                       
1000a269  HOSTlseek                                                      
1000a2c1  HOSTopen                                                       
1000a319  HOSTread                                                       
1000a0e5  HOSTrename                                                     
1000a459  HOSTunlink                                                     
1000a36d  HOSTwrite                                                      
1000a825  HardFault_Handler                                              
1000a825  I2S0_IRQHandler                                                
1000a825  I2S1_IRQHandler                                                
1000a825  LFSS_IRQHandler                                                
1000a825  NMI_Handler                                                    
1000a825  PKA_IRQHandler                                                 
1000a825  PendSV_Handler                                                 
1000a825  QSPI_IRQHandler                                                
1000a7eb  Reset_Handler                                                  
1000a825  SHAW_IRQHandler                                                
1000a825  SVC_Handler                                                    
1000961b  SYSCFG_DL_GPIO_init                                            
10009b01  SYSCFG_DL_SPI_1_init                                           
10009bcb  SYSCFG_DL_SYSCTL_init                                          
1000a651  SYSCFG_DL_init                                                 
100094cd  SYSCFG_DL_initPower                                            
1000a825  SYSCTL_IRQHandler                                              
1000a825  SysTick_Handler                                                
1000820d  TFT_DrawChar                                                   
10008b7d  TFT_FillRect                                                   
10008e59  TFT_FillScreen                                                 
10000121  TFT_Init                                                       
100085c5  TFT_ReadID                                                     
100090b1  TFT_ReadRegister                                               
10007e01  TFT_SetAddressWindow                                           
100092d1  TFT_WriteData16                                                
1000a825  TIMA0_0_IRQHandler                                             
1000a825  TIMA0_1_IRQHandler                                             
1000a825  TIMG12_0_IRQHandler                                            
1000a825  TIMG4_0_IRQHandler                                             
1000a825  TIMG4_1_IRQHandler                                             
1000a825  TIMG4_2_IRQHandler                                             
1000a825  TIMG4_3_IRQHandler                                             
1000a825  TIMG8_0_IRQHandler                                             
1000a825  TIMG8_1_IRQHandler                                             
1000a825  TRNG_IRQHandler                                                
1000a825  UC0_IRQHandler                                                 
1000a825  UC10_IRQHandler                                                
1000a825  UC1_IRQHandler                                                 
1000a825  UC2_IRQHandler                                                 
1000a825  UC3_IRQHandler                                                 
1000a825  UC4_IRQHandler                                                 
1000a825  UC5_IRQHandler                                                 
1000a825  UC6_IRQHandler                                                 
1000a825  UC7_IRQHandler                                                 
1000a825  UC8_IRQHandler                                                 
1000a825  UC9_IRQHandler                                                 
1000a825  WWDT0_IRQHandler                                               
30000c74  _CIOBUF_                                                       
30000c74  __CIOBUF_                                                      
3003fff8  __STACK_END                                                    
00000100  __STACK_SIZE                                                   
00000800  __SYSMEM_SIZE                                                  
00000000  __TI_ATRegion0_region_sz                                       
00000000  __TI_ATRegion0_src_addr                                        
00000000  __TI_ATRegion0_trg_addr                                        
00000000  __TI_ATRegion1_region_sz                                       
00000000  __TI_ATRegion1_src_addr                                        
00000000  __TI_ATRegion1_trg_addr                                        
00000000  __TI_ATRegion2_region_sz                                       
00000000  __TI_ATRegion2_src_addr                                        
00000000  __TI_ATRegion2_trg_addr                                        
1000ada8  __TI_CINIT_Base                                                
1000adc0  __TI_CINIT_Limit                                               
1000adc0  __TI_CINIT_Warm                                                
1000ad88  __TI_Handler_Table_Base                                        
1000ad94  __TI_Handler_Table_Limit                                       
1000a551  __TI_auto_init_nobinit_nopinit                                 
1000a589  __TI_cleanup                                                   
30000c58  __TI_cleanup_ptr                                               
10009f39  __TI_closefile                                                 
10009e51  __TI_decompress_lzss                                           
1000a8dd  __TI_decompress_none                                           
1000a3c1  __TI_doflush                                                   
30000c5c  __TI_dtors_ptr                                                 
30000c60  __TI_ft_end                                                    
ffffffff  __TI_pprof_out_hndl                                            
100075bd  __TI_printfi_nofloat                                           
ffffffff  __TI_prof_data_size                                            
ffffffff  __TI_prof_data_start                                           
1000a5f1  __TI_readmsg                                                   
1000ad20  __TI_static_base__                                             
30000d94  __TI_tmpnams                                                   
1000a5bd  __TI_writemsg                                                  
1000a149  __TI_wrt_ok                                                    
1000a881  __TI_zero_init_nomemset                                        
1000ab20  __aeabi_ctype_table_                                           
1000ab20  __aeabi_ctype_table_C                                          
30000c64  __aeabi_errno                                                  
1000a901  __aeabi_errno_addr                                             
100065bf  __aeabi_ldiv0                                                  
1000a909  __aeabi_memclr                                                 
1000a909  __aeabi_memclr4                                                
1000a909  __aeabi_memclr8                                                
1000a925  __aeabi_memcpy                                                 
1000a925  __aeabi_memcpy4                                                
1000a925  __aeabi_memcpy8                                                
1000a8ed  __aeabi_memset                                                 
1000a8ed  __aeabi_memset4                                                
1000a8ed  __aeabi_memset8                                                
1000a86d  __aeabi_uldivmod                                               
ffffffff  __binit__                                                      
00020528  __covrec_1018521E5B299FA7                                      
00019db8  __covrec_103AAAE744EDC923                                      
0001b528  __covrec_105FA22A5C54F824                                      
0000b338  __covrec_1067EFD43AC4737C                                      
00004330  __covrec_106C0A8F47E4EBF5                                      
00015268  __covrec_10744C07F8ABF898                                      
00013f30  __covrec_1074AE20F9C3BBFE                                      
000009d8  __covrec_107802700ECD7C02                                      
0000b518  __covrec_107B128032F6DB3F                                      
0000e678  __covrec_10824BD04F6231E0                                      
0001a8d0  __covrec_1082BCABC061123E                                      
00020690  __covrec_1088BC9CCEB5B98E                                      
00007210  __covrec_10ACAC719BF92A02                                      
00013a80  __covrec_10C260ADCECCBC97                                      
00018e18  __covrec_10D498CB12E6DD3                                       
000070d0  __covrec_10D7C14A5E1269A                                       
00001130  __covrec_10D83D798DF85215                                      
0000fdc0  __covrec_10DD02304F236F5B                                      
0001fab0  __covrec_110E957A5C5DFE90                                      
0000cb48  __covrec_1129F9D0907743CC                                      
00011558  __covrec_11548A0C371099D9                                      
0001bbb8  __covrec_117964D96EE36E41                                      
0000e0b0  __covrec_1179DC1F40DF19BB                                      
0000dca0  __covrec_117A6AE779833FFF                                      
00024948  __covrec_11896653D92924BC                                      
0000d6d8  __covrec_119935E492C58911                                      
0001df30  __covrec_11A2E988171FA6FD                                      
00016690  __covrec_11BA6DE59B28BFCD                                      
00025870  __covrec_11C4590D8150192A                                      
000051b8  __covrec_11E4D0BB9C3E8C30                                      
0001bc08  __covrec_11EED22D9E60C93C                                      
00020fc8  __covrec_11F0727ADEC938A6                                      
000120c0  __covrec_11F13472B68456                                        
00019598  __covrec_1212C889B8DE0D1D                                      
0001ad58  __covrec_12137AB927F27536                                      
00024150  __covrec_12397F85FA5A181A                                      
00018c10  __covrec_123EF6C215982B55                                      
0001c6d0  __covrec_1262F84BF6677193                                      
000058c0  __covrec_1267B4521C0A50E3                                      
00022238  __covrec_126C0B7E8981C155                                      
000220a8  __covrec_12A1A5B674045A46                                      
00008d90  __covrec_12A84A218C9DEA06                                      
000127c8  __covrec_12B18424C859DF9D                                      
0000cd28  __covrec_12B33D9FCAB5C7F6                                      
00022b70  __covrec_12B3DDEADD64CE07                                      
00021298  __covrec_12B4AD1F18DFDCB2                                      
0000d020  __covrec_12BA5CE176C32DDC                                      
000184e0  __covrec_12C47AE2DA065B0F                                      
00014818  __covrec_12CBF742F84AB747                                      
0001f2b8  __covrec_12F07EB31508730B                                      
00017838  __covrec_13113FF595265FC8                                      
00000c58  __covrec_1313DC5687DCCBE4                                      
000086d8  __covrec_13150132607A5180                                      
00007670  __covrec_1317F30DAB07CEFD                                      
0000cf80  __covrec_132818003A70A7AF                                      
00008a70  __covrec_133B487217BB2E5A                                      
0001a808  __covrec_133C2C8A27891CB7                                      
00003200  __covrec_133E6E5754396960                                      
00011f30  __covrec_134F21299CF91075                                      
000201b8  __covrec_1356D0C6CD52A496                                      
000112b0  __covrec_13672E230F457DC9                                      
00024218  __covrec_137D365011955103                                      
0001eae8  __covrec_1382B4651CA09C1F                                      
000183f0  __covrec_1386E69C7CDBD2E6                                      
00012020  __covrec_13941B1E936B73E2                                      
0001a588  __covrec_13BF532A32449873                                      
00020320  __covrec_13C8933AE5979064                                      
00022c38  __covrec_13D0EC6B4327646C                                      
00018d78  __covrec_13E79675FAD100E3                                      
0001bed8  __covrec_13F256138B3B6518                                      
000245d8  __covrec_1401D7B67233A7F0                                      
00007080  __covrec_1409994ABADCA9DB                                      
00004600  __covrec_140C87832FFAF923                                      
0001ba50  __covrec_140EB3340D8645F7                                      
00008f70  __covrec_14465F9D45D58042                                      
00017040  __covrec_145D172321BB2EAB                                      
0001cec8  __covrec_148F7DA1EDB7DD61                                      
000075f8  __covrec_149ACD14E0572626                                      
00024b28  __covrec_149E87FD6446C1FC                                      
0000f1b8  __covrec_14C7D3D01E57A504                                      
0001fda8  __covrec_14C81AC7A8B92809                                      
000084d0  __covrec_14C92017E2A5AC67                                      
000058e8  __covrec_14D1DCA4E67C18C5                                      
0000e6f0  __covrec_14FA4B69117446C1                                      
0000e740  __covrec_14FF88AAFCD7D57D                                      
00010b08  __covrec_150B89D347BC7E6E                                      
000073a0  __covrec_1528E95DCB01A67C                                      
00001298  __covrec_153C71C9353F6537                                      
00010d10  __covrec_1540C2C144B9922B                                      
0001fc40  __covrec_15444C6CFF7C0EAD                                      
000179c8  __covrec_154BFDCE12F02A35                                      
00004e48  __covrec_15599278F6628FD9                                      
0000def8  __covrec_15699B8DF7CF109F                                      
00011be8  __covrec_157321A8C10AC04E                                      
00009bc8  __covrec_15A6988EB176291B                                      
0001d1e8  __covrec_15AF76F35BC0448C                                      
0000c850  __covrec_15B0477F91E5A15B                                      
00012f00  __covrec_15D3266DA7E8B312u                                     
0001b4b0  __covrec_15D44A2E1BA6AEF6                                      
000127a0  __covrec_15D8AD984765CE7C                                      
000069f0  __covrec_15E9C88B8913D74B                                      
00008610  __covrec_15EBD46F714DA966                                      
0000c0f8  __covrec_1607E55D10EC504D                                      
0000bba8  __covrec_161C5CCBB18E3472                                      
0000a2d0  __covrec_162CFD0A1B796938                                      
00009b50  __covrec_163C92947DFA7B45                                      
0000ba18  __covrec_1658A1CFEC8A9371                                      
000105e0  __covrec_16674943AE982D61                                      
00000a00  __covrec_166C82B5B146B5D7                                      
000244c0  __covrec_166DBF9076E6345C                                      
000199a8  __covrec_1681E425BE764A97                                      
000052a8  __covrec_168493D43873B111                                      
00007f80  __covrec_16A0659A24000E67                                      
00023f98  __covrec_16B04AF7110E629D                                      
000167f8  __covrec_16B91197C1897CD6                                      
0000fd70  __covrec_16BDE21014ED2C1                                       
00014a70  __covrec_16C63B1658850B21                                      
00016d20  __covrec_16D2DA11BA350680                                      
000080e8  __covrec_16D434825183503F                                      
000099c0  __covrec_16D70E5A69A3760A                                      
0000a528  __covrec_16EB4AA73251958E                                      
000020f8  __covrec_16F02D052FF565BE                                      
00014548  __covrec_16FAC33A39EFD93A                                      
00005280  __covrec_1707DC81A21DBC1C                                      
00015ad8  __covrec_170AF5AE926DC51D                                      
00017220  __covrec_170E2828DD417338                                      
0000bec8  __covrec_171317B20F4BC1DB                                      
00001360  __covrec_172B59B25D72358A                                      
00005708  __covrec_17302E52AA89C0CD                                      
0000d8e0  __covrec_17309D8202C86DB3                                      
0001a9c0  __covrec_1734553C1B2E7D1E                                      
0000b4a0  __covrec_1740AFC189A8EDA2                                      
00001658  __covrec_174915AB4E2EDF5C                                      
00004e98  __covrec_174F15FCCDC74864                                      
00012818  __covrec_1759666B8765F80D                                      
00022468  __covrec_175A0B476BB46165                                      
000209b0  __covrec_1786B2B30AD9D4E4                                      
000215b8  __covrec_178F40DDE21BE7BB                                      
0000bbd0  __covrec_1796D1C61F0D17A8                                      
000216a8  __covrec_179C5D415DAF3852                                      
000216f8  __covrec_17B7510BA3C6D63D                                      
0001c860  __covrec_17DA6C1ABA552607                                      
0000b428  __covrec_17DAEC6AFA72F54C                                      
000202d0  __covrec_17DD54B0ABEF684D                                      
00001a68  __covrec_17E07C5FF5F82422                                      
00008908  __covrec_17E08951EDF009B4                                      
00013bc0  __covrec_17E391D7123D892C                                      
00009e20  __covrec_17F1308C877F8432                                      
00001400  __covrec_17F9955224B25587                                      
00014d68  __covrec_181211B5F93D0AD3                                      
00012ab0  __covrec_1818E437BF5521D7u                                     
0001ce78  __covrec_18211F0904F52895                                      
00007a58  __covrec_182EBC3292D8B057                                      
0001f038  __covrec_185A888EA5B72FA2                                      
00007490  __covrec_1881D5B34314DF64                                      
00022fd0  __covrec_1888A59DF0B3B3C7                                      
0001e458  __covrec_189065BD7E1180FF                                      
00021a68  __covrec_1899F4DE343A420C                                      
000220d0  __covrec_189A1B52522DC678                                      
000091a0  __covrec_18A4EB207556A42C                                      
000102e8  __covrec_18ABC13FAC28025C                                      
00010bf8  __covrec_18AC38AE70A94599                                      
000057d0  __covrec_18ACAD82B94D6601                                      
00005730  __covrec_18ACCAC5D58EF3D4                                      
000084f8  __covrec_18C79462758238BA                                      
0000d4d0  __covrec_18C7DFC85F74DF88                                      
0001a830  __covrec_18CBC653C2C5DFB9                                      
00007b48  __covrec_18DDFB0FE08ED969                                      
00024420  __covrec_18EA9905F2D92A6F                                      
000093d0  __covrec_1908F0908D2CBF18                                      
00007da0  __covrec_191831FA0CEE1893                                      
00004a60  __covrec_192A7CE8DD30AE20                                      
00007aa8  __covrec_1930B2CB90352D46                                      
0001d4e0  __covrec_1953C8669CE2D0FE                                      
00021d10  __covrec_197AEEDD17EAD6F9                                      
000138a0  __covrec_19A0E87120CDC68F                                      
0000d0e8  __covrec_19B8727C1D4ABDAE                                      
0001be38  __covrec_19D16789C19ACF5D                                      
0001a128  __covrec_19D44E97A775C3E5                                      
00025730  __covrec_19E0C80C93FB9B9F                                      
00022378  __covrec_19E0C80F4592B02E                                      
0000f5f0  __covrec_19E75B9307F97AB0                                      
0000fc30  __covrec_19F06ABB5A28AA72                                      
0000a870  __covrec_19FA784ADD838849                                      
00011698  __covrec_1A0F7EC2AC44F654                                      
00009240  __covrec_1A22B483B14D442                                       
00018cd8  __covrec_1A38C341544C3879                                      
00001ae0  __covrec_1A3FA77D293B3485                                      
0001af10  __covrec_1A40EC858E5F0CD6                                      
00011d78  __covrec_1A4544BED21CEB2C                                      
0000a3c0  __covrec_1A6E887ACACAFF76                                      
00016d48  __covrec_1AAC40224504CAFA                                      
00002e90  __covrec_1AE60D0DA8D77CF0                                      
00009740  __covrec_1AF6215EE93D46D6                                      
0000f7f8  __covrec_1AFE6ECE1BD6F5C2                                      
00008b10  __covrec_1AFE76699DCE6D3D                                      
00018d50  __covrec_1B097628E00A8229                                      
00008480  __covrec_1B0D2750B34B1703                                      
00016c58  __covrec_1B2BF684DC595A2B                                      
00015470  __covrec_1B3CC2B68A699D40                                      
0001cdb0  __covrec_1B54995DB84F8B98                                      
00019548  __covrec_1B5721F4AEFA561F                                      
00021c70  __covrec_1B73EE0B8F30313A                                      
00025898  __covrec_1B8BAC043C9D5C93                                      
00024d58  __covrec_1B9584C28FC0AFC2                                      
000042e0  __covrec_1B9CA30A65B78731                                      
00022008  __covrec_1B9FA90D44553E00                                      
00001478  __covrec_1BC9AF92F5A17ABA                                      
0000b568  __covrec_1BD34071CFA619DA                                      
00012868  __covrec_1BEE14838B08B7EA                                      
000253e8  __covrec_1BEEECB176BC9C86                                      
0000c5f8  __covrec_1BFF9732B2DAF38C                                      
00016b40  __covrec_1C0E07A24114AAF5                                      
000152b8  __covrec_1C4941C0EE3F2117                                      
00014e58  __covrec_1C4E558214A79D65                                      
00020c08  __covrec_1C5F6808BD5C76DA                                      
0001c4f0  __covrec_1C6892E386CC26B1                                      
00007990  __covrec_1CA1AE9514CE36B4                                      
000164d8  __covrec_1CA340B22F2CC9E                                       
00011df0  __covrec_1CABCD001BB8A2D4                                      
00001ef0  __covrec_1CC14C8A376E03E3                                      
0000e4e8  __covrec_1CD6F65EDB220D52                                      
00007e68  __covrec_1CE8FD9CC832CE68                                      
00018f80  __covrec_1CE909354FF8939F                                      
00021568  __covrec_1CFBA41CF3433B5E                                      
000102c0  __covrec_1D03C489628EC74D                                      
00017680  __covrec_1D0492DEF478C1EF                                      
00019408  __covrec_1D0E723C2EF029EE                                      
0001d3f0  __covrec_1D10DBEA99EF31D                                       
00009290  __covrec_1D1393F256C668B4                                      
00024510  __covrec_1D3EAE1D696CB562                                      
00004dd0  __covrec_1D5453C0FE32606E                                      
0000e8d0  __covrec_1D69454E4585F9FA                                      
00006c70  __covrec_1D8009E1123EFE18                                      
00016320  __covrec_1D88601D63A10063                                      
00024ab0  __covrec_1D8C74B2B54D8A9F                                      
00017b58  __covrec_1D979241DB420643                                      
00004f88  __covrec_1DA2DF1D9481285F                                      
0000d980  __covrec_1DBD55CB071CE798                                      
00018c88  __covrec_1DCA7E16D4A718CD                                      
0001da58  __covrec_1E365C06B93E755C                                      
0000d4f8  __covrec_1E5D0BA266A05409                                      
00020a50  __covrec_1E612458715CE6B6                                      
000147f0  __covrec_1E81C76A394FF98F                                      
00020e10  __covrec_1E8998490C12D603                                      
0000e2b8  __covrec_1E967D82AE57104C                                      
0000dbd8  __covrec_1EB10222D35B87B9                                      
00015240  __covrec_1EB442BE3C5791BE                                      
00014520  __covrec_1EC2171F3DCD1F0A                                      
0000fe88  __covrec_1EC243A73359BD5F                                      
00010f68  __covrec_1ED2390858C3EB64                                      
0000e970  __covrec_1EE4D15989A2B4E4                                      
0000b9c8  __covrec_1EF1FB822FC56A69                                      
00023520  __covrec_1EF602A244722D5F                                      
0001bfc8  __covrec_1F0422B4B1A24507                                      
00008700  __covrec_1F323AB5CF4D4A72                                      
00003458  __covrec_1F4169E57C49DBAC                                      
00010158  __covrec_1F54DD07CE6E3CC3                                      
000155b0  __covrec_1F617C3956463676                                      
00014840  __covrec_1F6F1D8B6C036644                                      
00006310  __covrec_1F81DC0331A088EE                                      
0001b640  __covrec_1F81F28CFCF7230C                                      
00015b78  __covrec_1F880AE1EE4A787B                                      
000199d0  __covrec_1F96F46632038270                                      
00009fd8  __covrec_1F9CF73C50D6AB19                                      
0001c4a0  __covrec_1F9F60AF9D1EA516                                      
00022328  __covrec_1FA512FA46C7E5B5                                      
00020f00  __covrec_1FA57E91BCF2AE70                                      
00024790  __covrec_1FA9A20B0054EC96                                      
0001e930  __covrec_1FAE6341AC33EBCF                                      
0000d5e8  __covrec_1FC1559D82C02D42                                      
0001d5d0  __covrec_1FCCD1440CD87A38                                      
000109c8  __covrec_201277E0AA6EE9F3                                      
0000e1c8  __covrec_2046BE57FB3E054C                                      
00019980  __covrec_204FD3E6CA87108D                                      
00006e78  __covrec_20502D4EF27C8C51                                      
00018788  __covrec_2057A945F1B9B615                                      
0001a9e8  __covrec_20739469A83737C8                                      
00006d10  __covrec_208E88AD446ED6FF                                      
0001b898  __covrec_20A2341177F2D26E                                      
0000a7a8  __covrec_20C5FBED395A9EDE                                      
00021e28  __covrec_20CFD6294D6E9168                                      
00025208  __covrec_20F18CFE460A5282                                      
0000a370  __covrec_20F4440F1638C2A5                                      
00015bc8  __covrec_21054578FFC9EE27                                      
00016e10  __covrec_2117D91B52020C7D                                      
0000bf40  __covrec_212223448B5B81B9                                      
0001ed68  __covrec_213A5CF286A089C2                                      
0001c950  __covrec_213F63025DB77FC4                                      
0000df48  __covrec_216718CA83AD3AF2                                      
000191b0  __covrec_2173C5F70763121C                                      
0000d5c0  __covrec_2175477B7920D59E                                      
00006f40  __covrec_217DB9DBC67C1EFE                                      
00009f10  __covrec_219DAFA81AFAA2FB                                      
0001fec0  __covrec_21AB6433F70D1048                                      
0000e100  __covrec_21D48F08684C7774                                      
0001d0f8  __covrec_221829C228DA6C06                                      
00012688  __covrec_222CA9EC1B745CD9                                      
00020758  __covrec_222D99FB63574F6A                                      
00015fd8  __covrec_2230C0D69946CC4B                                      
00007eb8  __covrec_2239F1A9CC961427                                      
000259d8  __covrec_22556AAF4832D8BF                                      
0001ec50  __covrec_225AAA53B253CAA4                                      
00005f50  __covrec_2286D5FF0FC802ED                                      
0000c878  __covrec_228B4DCEDE67C9E2                                      
000059d8  __covrec_22AA610D5E826481                                      
00001180  __covrec_22D092EAE16D02EF                                      
00010d88  __covrec_22E2236BC99304F9                                      
00006c48  __covrec_22F1260B2ECCC08F                                      
0000aca8  __covrec_22F2AD01BBE54AC3                                      
000070f8  __covrec_230E01EBA14683DA                                      
00014de0  __covrec_23178DECE8CC2AB1                                      
0001f3f8  __covrec_233EAFEC84FC4943                                      
00002260  __covrec_2356CFAA058BDA63                                      
000159e8  __covrec_2365053FAC035AAB                                      
0001b230  __covrec_23739CFE0671763C                                      
0001ca90  __covrec_23775F7384F9CD04                                      
00003d18  __covrec_23A2723218FB953F                                      
00010ab8  __covrec_23BA94AFA28E8B44                                      
000061d0  __covrec_23BDC91C28D00DEB                                      
00024bc8  __covrec_23F7577DC4D82569                                      
0001e138  __covrec_23FBBAEE4FF43E4E                                      
00001090  __covrec_2429638F3104CEC6                                      
000020d0  __covrec_245CEEBD24015B1F                                      
0000c508  __covrec_245EBA72A5A0F5EB                                      
00018990  __covrec_248F59F6D6A669EF                                      
00021b30  __covrec_2491A5449AC6AFDD                                      
00002ad0  __covrec_24C869B71C1745EC                                      
0000b8d8  __covrec_24CD7D1265135F07                                      
0000b748  __covrec_24D4168F36768F8A                                      
00001248  __covrec_24D80F5FFDB3B16                                       
00004560  __covrec_24DBDAA504A8EB                                        
00008048  __covrec_24DC5A464E150DEB                                      
000121d8  __covrec_2548E4241C41D4AC                                      
0001be10  __covrec_254A82438591E52C                                      
0001a650  __covrec_2554E06C7C104836                                      
000045b0  __covrec_25644B6D8D9339A2                                      
00019a70  __covrec_2568050D401E8E68                                      
000063d8  __covrec_2597CFE535DF7925                                      
0001c338  __covrec_259AA9E554F666B7                                      
00002fa8  __covrec_259FE72B02F982E3                                      
00004240  __covrec_25B72A3D7BD5840F                                      
00011378  __covrec_25D863D26F29F221                                      
00005348  __covrec_25E129209C6D6E08                                      
00000de8  __covrec_260485F951D8CFA2                                      
00023598  __covrec_2621E40C16A0319E                                      
0001e110  __covrec_262CE07799357518                                      
000241a0  __covrec_2631DCA870C8D261                                      
0001ba28  __covrec_263B49CCAAFFAD10                                      
00016280  __covrec_26529B915D49F234                                      
00002670  __covrec_2662EFE42B16DEE1                                      
000174f0  __covrec_267D27CF810BD59C                                      
00023d68  __covrec_268AB599EB4212A5                                      
00022260  __covrec_2693B0CD78D42A91                                      
00020280  __covrec_26AF2A21E7B92AED                                      
00010ce8  __covrec_26BDD9085FF96DA5                                      
0001cb80  __covrec_26C28402AC41882A                                      
00024c18  __covrec_26F42A5A5BCDA10A                                      
00010220  __covrec_26F7BD59BDABA46                                       
00012340  __covrec_276B3C7F132E7949                                      
000204d8  __covrec_2776F3BF367741EE                                      
00011828  __covrec_278B19F5D60C3947                                      
00015a38  __covrec_278E5536214B5313                                      
00024ce0  __covrec_27BF384D329EC88A                                      
00018170  __covrec_27D2AD01E17EABDD                                      
0001a178  __covrec_27F4CE623A8B5B33                                      
00005dc0  __covrec_27F653CEA4118248                                      
000035e8  __covrec_280C086A8D3E033A                                      
000196b0  __covrec_284C1F580747E073                                      
0001d328  __covrec_28A6ED04FD6736E7                                      
0000c0a8  __covrec_28CAF5403BA112D7                                      
00022b20  __covrec_28F2E6C2558B4CC                                       
00013fd0  __covrec_295C308EAC51557B                                      
00023cc8  __covrec_297910DCFA06D552                                      
00023390  __covrec_2998FB8F7F7F6C58                                      
0000c288  __covrec_299EDB45E19271B                                       
00006fb8  __covrec_29CB61A807DB331C                                      
000118c8  __covrec_29FD4C6F37BB673F                                      
00025708  __covrec_2A04286C6F2B44A9                                      
0000bae0  __covrec_2A1CAF1263274BD9                                      
00012a30  __covrec_2A33AB353E6B969Cu                                     
0001c978  __covrec_2A4FD133DDBFF9F2                                      
000173b0  __covrec_2A5D87E20D2B353C                                      
00001f68  __covrec_2A5F24567CA81B28                                      
00011080  __covrec_2A658EA1206C62D6                                      
00004c40  __covrec_2A736453A4775CC3                                      
00001bf8  __covrec_2A8B557658325237                                      
00012098  __covrec_2A91C3E5F45518F9                                      
0001de68  __covrec_2A9EFE7D0D5CC6FB                                      
0001c130  __covrec_2AA148988CEF6258                                      
0001e980  __covrec_2AB639C8070040F7                                      
00018a58  __covrec_2AD2F3818974D495                                      
00000c08  __covrec_2ADD8BD0BF6DAA7F                                      
000223a0  __covrec_2ADFD61D9132B19C                                      
000248a8  __covrec_2AE0D977427AB785                                      
0000d430  __covrec_2AFC953AB3BFA4B3                                      
00005690  __covrec_2B07AC81363554B8                                      
00022ad0  __covrec_2B137060926F592C                                      
000259b0  __covrec_2B3C2C957A277883                                      
0000ca80  __covrec_2B3D97B203BD5320                                      
00015948  __covrec_2B580D04D376961D                                      
00006748  __covrec_2B5FFCF4F8CB86BC                                      
00007918  __covrec_2B68E5DDE2E9662B                                      
00003430  __covrec_2B9D588B68FFC9FD                                      
00000ff0  __covrec_2B9ED78528214928                                      
00022918  __covrec_2BA3C4FA99217675                                      
0001db70  __covrec_2BD44284789F91BA                                      
00009678  __covrec_2BE6C0B46C211135                                      
0001f6f0  __covrec_2C0A9F21EA7A4B13                                      
000112d8  __covrec_2C177686F2932C2C                                      
00019200  __covrec_2C57BDB4B33A4495                                      
00006f68  __covrec_2C5B3AD84DE89A09                                      
000144a8  __covrec_2C6FF4AFB56852BC                                      
0001e278  __covrec_2C7807E6FE8E01E8                                      
00019070  __covrec_2C7F66C574C54575                                      
00019778  __covrec_2CCBD69A33B1A43F                                      
000073c8  __covrec_2D0041D38F4C7BA8                                      
00001c98  __covrec_2D13BBFC3A449323                                      
0000f5c8  __covrec_2D1E6856B3061151                                      
00011d50  __covrec_2D2B2BAF1BAC8BDA                                      
0000a140  __covrec_2D3B4279E82844EA                                      
000114e0  __covrec_2D4D821B616E6924                                      
00020a78  __covrec_2D575503EF9D9729                                      
00002418  __covrec_2D61228427B0BF14                                      
000116c0  __covrec_2D723378264E6A7                                       
0000dd90  __covrec_2D7A7904D991C2E0                                      
000174a0  __covrec_2D86B24AF6D1A540                                      
000250f0  __covrec_2D879BBC981BFF03                                      
00021978  __covrec_2D899877F4B8D6DD                                      
0000fc08  __covrec_2D8A3E6347FF950C                                      
000241f0  __covrec_2D8FB7EF2983DECD                                      
00013da0  __covrec_2D9218100881F315                                      
0000aa28  __covrec_2D99555663CB507E                                      
000164b0  __covrec_2D99EAE3F36ECC9A                                      
0000af50  __covrec_2DA3C7F5F3A1833F                                      
00014958  __covrec_2DA731F07EE32B4A                                      
00015c90  __covrec_2DD07D8034961E79                                      
000030c0  __covrec_2DD25A1E0605CEF0                                      
0000e060  __covrec_2DDC7AACECA4585A                                      
0001a6f0  __covrec_2DDCD5E0D9C5CB47                                      
000145e8  __covrec_2DE13D11106F30C3                                      
0000ff78  __covrec_2DECA8561F707322                                      
00008958  __covrec_2DF772145F02FC49                                      
000233b8  __covrec_2DF95169CB140A84                                      
00018ad0  __covrec_2E034B95217B4B85                                      
00017298  __covrec_2E25D93557C548ED                                      
00021d60  __covrec_2E2A70827BDC5258                                      
000077b0  __covrec_2E3C982E9C9C353                                       
000045d8  __covrec_2E459FB28F5F2122                                      
00024df8  __covrec_2E4B0434598BD93                                       
00023250  __covrec_2E4F647758B995BF                                      
0000b798  __covrec_2E6EC07223ED40B7                                      
000065b8  __covrec_2E714EFCCE61715E                                      
0001c8d8  __covrec_2E7E51C4DB302D6A                                      
00017ab8  __covrec_2E97BABEA71D0B7B                                      
00010bd0  __covrec_2EB222C72903A525                                      
00021720  __covrec_2EB2AAA08BD8A9AA                                      
00024b78  __covrec_2EB659351EC73617                                      
000258c0  __covrec_2EC93EBAD61B8A03                                      
0001e3b8  __covrec_2ED6AA9C9C7A8D21                                      
00014db8  __covrec_2EE3920C4DD5ADB6                                      
00019b38  __covrec_2F00C1B0AC430237                                      
000175b8  __covrec_2F035CEFDF1062C1                                      
0001cdd8  __covrec_2F14B8D53D6AFF17                                      
00017518  __covrec_2F1B991B5F313888                                      
000181e8  __covrec_2F1D6E7B96801956                                      
00013b20  __covrec_2F210A4B8480D006                                      
00010b80  __covrec_2F22268672A76EE3                                      
0001d3c8  __covrec_2F2861C62A32D9EE                                      
00003098  __covrec_2F298529E754A752                                      
00019c28  __covrec_2F2A8CB5EDF83A98                                      
00018918  __covrec_2F328F639F15B69C                                      
0001b280  __covrec_2F34E27E04F56700                                      
00017b80  __covrec_2F636E402DD62E96                                      
00018fd0  __covrec_2F68E8EA79A83B80                                      
000144d0  __covrec_2F6BED6892E57B50                                      
00025a50  __covrec_2F89957B95D6972F                                      
00025a78  __covrec_2FD7E519CDA967C                                       
0001b2a8  __covrec_2FEA4AF6BBB024E                                       
00013038  __covrec_2FF7B4984425CC0u                                      
00021608  __covrec_2FF8A0A4A81450B8                                      
00002be8  __covrec_302F2AC2878AEE63                                      
000205c8  __covrec_30364DD18FD5241A                                      
000110d0  __covrec_303E360AA0461E56                                      
00017018  __covrec_305C29A9F7E3A640                                      
0000c698  __covrec_3060B93F85E68B18                                      
0001a290  __covrec_306DA74131990C62                                      
000116e8  __covrec_307BB5214E98EBCB                                      
000174c8  __covrec_309238D191EA6CE9                                      
0000fa28  __covrec_30A6073BD61E816A                                      
00023840  __covrec_30AC008DADB1DB45                                      
0000e3d0  __covrec_30B5CF75E7DDB3BE                                      
00008368  __covrec_30B7C7B021FF32BD                                      
0001f9e8  __covrec_30BE3871F5A654C5                                      
00011530  __covrec_30C72D90FAAB52FA                                      
00011aa8  __covrec_30E2ED287923C2A1                                      
00005e10  __covrec_30ED4319F76DB893                                      
00010798  __covrec_30F8FDE14BEBA5C3                                      
0000a1e0  __covrec_30FBE63F83B9D1D                                       
0000f4b0  __covrec_30FFBF09B05F3927                                      
0000bbf8  __covrec_30FFD4E1DBF1C36F                                      
00020f50  __covrec_3102CDD49AE9C38                                       
0001d170  __covrec_310D3AC6E4A0233C                                      
000079e0  __covrec_3129FF84AE3F76E2                                      
00012b58  __covrec_312A4BFE34759836u                                     
0001a538  __covrec_312B83EDF5CBDD80                                      
0000d9a8  __covrec_31384D9C1FCD85B5                                      
00015510  __covrec_3143D4656068BE29                                      
00018a08  __covrec_314FD1A4E91E91D2                                      
0001f6a0  __covrec_315DFC0F397B3EB4                                      
00005500  __covrec_3163B63F3B49E158                                      
0000f000  __covrec_31723A59EE01CB6F                                      
00000bb8  __covrec_31B0598EDF1F8AA0                                      
00001748  __covrec_31B1F8CB4704B234                                      
0001fb00  __covrec_31B5D93C09AED496                                      
0001c720  __covrec_31D8ED6392B8C702                                      
00011738  __covrec_31DC30DDC7036A3C                                      
0000dfc0  __covrec_31DC7ECBF26839AC                                      
000076c0  __covrec_31F7B8F147936BE1                                      
000048a8  __covrec_31FD0D502C5066BA                                      
0001c810  __covrec_32082F342DE83C30                                      
00012840  __covrec_3218CEAEDF4FBA00                                      
0000cfa8  __covrec_321A183A8097BE95                                      
00005078  __covrec_322133A61A45AB4E                                      
0001ada8  __covrec_3228C4E59E0DDE0E                                      
000238e0  __covrec_322F048AB3402E4C                                      
0001a880  __covrec_323CC8F78CE9C2E3                                      
0000c918  __covrec_324DA2EC0B259559                                      
0000ad98  __covrec_325BB6249AC215ED                                      
0001f128  __covrec_326E4419DFD0399D                                      
0001cd38  __covrec_327E029A19A95209                                      
00024268  __covrec_328110E67C43D2B2                                      
00004380  __covrec_328AFB179A26404D                                      
0000dc50  __covrec_328C937DCC0945C6                                      
000043a8  __covrec_329ACE27EDB24189                                      
00002d50  __covrec_32E8DB488C68B78D                                      
00002800  __covrec_32F0D770382D1DA9                                      
0001e020  __covrec_32F86B6099E2B33D                                      
000234d0  __covrec_32FB3AFAD9190246                                      
00005140  __covrec_33066D15E3040297                                      
00023750  __covrec_3316783B75333BD3                                      
00006f90  __covrec_331725AF5DF50438                                      
0000e088  __covrec_331B394963683510                                      
000016f8  __covrec_3325AABB0D89DD6E                                      
00016410  __covrec_333219435B338A0A                                      
00002828  __covrec_333383517C1FF008                                      
0001ca18  __covrec_33393C3A2B2BB27                                       
00024538  __covrec_333BBC0A535F1DE9                                      
0001a380  __covrec_333C0E753845BE1A                                      
00009498  __covrec_33495A652304E49                                       
000166b8  __covrec_334F5D5867034CE9                                      
00001f18  __covrec_33562C81DF7B10BF                                      
000143e0  __covrec_33589DA86868947D                                      
0001d008  __covrec_335B9041F2B512E0                                      
00001c20  __covrec_338D56CED01B062B                                      
0001e2c8  __covrec_33B2861680F2A147                                      
0001fe98  __covrec_33BFACD71876B04F                                      
000203c0  __covrec_33C48B30EA4FFCAA                                      
0001ee08  __covrec_33C5E3388616C38D                                      
0001cfb8  __covrec_33DD2D9FB5EAA6E5                                      
0001cbd0  __covrec_33DF52A6FC7DE282                                      
000198e0  __covrec_33F05AAA91D32438                                      
00020988  __covrec_33F38BFD4C2AE141                                      
00021f40  __covrec_33FAC2E730B9A5C1                                      
00007b98  __covrec_341863ACF88CD371                                      
00021fe0  __covrec_3426700C4A5B61A5                                      
0001ef20  __covrec_34276274BD918054                                      
00007c38  __covrec_3435C80BC3722BAD                                      
0000f348  __covrec_343940E2870E9B0E                                      
0000d160  __covrec_3440A467A910C969                                      
0000cc10  __covrec_3443F015958810F5                                      
00012660  __covrec_346C6355D054AFA7                                      
0000ed80  __covrec_347833257255D714                                      
00004b28  __covrec_347D20A347D54D3B                                      
00000088  __covrec_347F5236CD6A8821u                                     
0000d598  __covrec_34960821BB303171                                      
00009a10  __covrec_34AF19AADA685B0E                                      
000033b8  __covrec_34D87877B62187C0                                      
0001b5f0  __covrec_34E3BEAD21EE6C05                                      
00022080  __covrec_34F3F185327C3D1D                                      
00007dc8  __covrec_352F9E2440E9C139                                      
00010c70  __covrec_35368D2270EB9D54                                      
0001ebb0  __covrec_354DC10389137C54                                      
00024d30  __covrec_3558F785F605D88F                                      
00016f00  __covrec_355E0E9C4B90DCB7                                      
00002f30  __covrec_358682B259B0A962                                      
0000d2f0  __covrec_35A409F0E6C93C4C                                      
0001bcf8  __covrec_35ACDE6B1DB64381                                      
000177c0  __covrec_35C36C33649D0868                                      
00020258  __covrec_35EB41610CD22792                                      
0001ba00  __covrec_36120143B17CCCAD                                      
0001e070  __covrec_3620BC6A030CA267                                      
00015d08  __covrec_3624FCB5E1851D8F                                      
0001af60  __covrec_3629F7AE5E3EEF2C                                      
00003250  __covrec_36371372719FAE20                                      
00000910  __covrec_365DCC393F100621                                      
00024358  __covrec_3660DD218069EE99                                      
000041f0  __covrec_3660EF20DA7A07C2                                      
00006478  __covrec_366594CABF5FBBE1                                      
0001da30  __covrec_368DB7F94103651D                                      
0001b1e0  __covrec_36A5D6334697A3F4                                      
00001428  __covrec_36AB183A395E4CAF                                      
00004ba0  __covrec_36C64B2F466F1472                                      
000021e8  __covrec_36CAFF9A6A4269C6                                      
00003930  __covrec_36CEC9582B8D65CF                                      
0001a498  __covrec_36EB5799A3CC0222                                      
000232f0  __covrec_36FFEBA7D7BB268B                                      
0001b730  __covrec_3714A891E6665B49                                      
00002760  __covrec_37752C52AA74DBFE                                      
0000c9b8  __covrec_37961B0C63A935F4                                      
00016eb0  __covrec_379FC816CF911EDF                                      
0001fa88  __covrec_37AD47A61F8591EF                                      
00003d68  __covrec_37BBD65DD58D473                                       
0001c220  __covrec_37BD9692A6E007A1                                      
0001b258  __covrec_37C2E4BAE1D52499                                      
0000c2d8  __covrec_37E4676AA453B73A                                      
00017568  __covrec_37E4F11BB631BEC7                                      
00005668  __covrec_3838EAEF37C9B024                                      
00017158  __covrec_3863A532990D1FA2                                      
00018350  __covrec_386982C615C69001                                      
00022cb0  __covrec_386A8AEE875D9101                                      
00009a38  __covrec_3886213F5ECF5BC5                                      
0000d890  __covrec_38889281C354E797                                      
0001a600  __covrec_388E26BEF997C426                                      
00000d20  __covrec_38A0CEE2744B092C                                      
00016cd0  __covrec_38C288C17890C16                                       
00016230  __covrec_39129B01B9A7DAA2                                      
000015e0  __covrec_392FECAD18A74184                                      
0001ecc8  __covrec_396760987B684589                                      
0000a708  __covrec_3971B1944E0C574C                                      
0000e768  __covrec_397D89BAB9602260                                      
0001cf18  __covrec_399C2F459BF77AD7                                      
00016c80  __covrec_39AB08BEEFE8AB41                                      
000113c8  __covrec_39B0DFCD7DF2AB37                                      
00005af0  __covrec_39BD400369155FF7                                      
00001680  __covrec_39C130C9E557E548                                      
0001ce00  __covrec_39D0176CD749C99D                                      
00024b50  __covrec_39EEF341EC66D95B                                      
0000c800  __covrec_39FF74C6619FBAEE                                      
0001b870  __covrec_3A04AB2A32EDA484                                      
00023bd8  __covrec_3A07722B09050B3E                                      
00004268  __covrec_3A1D4C8225602426                                      
000011a8  __covrec_3A26CCF0B62A8E89                                      
000037f0  __covrec_3A36369733F8D5B6                                      
00002b98  __covrec_3A479AE32438F206                                      
0001b2d0  __covrec_3A49D5B61BE6BC2B                                      
00022be8  __covrec_3A9EF8C4AEB7A391                                      
0000e6c8  __covrec_3AA23B4CA70BF4D8                                      
00006a18  __covrec_3AAA2A3C5CE52BA3                                      
00011ad0  __covrec_3AAA503472040552                                      
0001f4e8  __covrec_3AAFDF39F6DF737A                                      
0000e8f8  __covrec_3AC1DBF81307EA6C                                      
00006950  __covrec_3AF95226F44434B7                                      
0000c3f0  __covrec_3AFB7D729C4BABB0                                      
00019520  __covrec_3AFFC5D64463C47D                                      
00009768  __covrec_3B097A2085B9CD1E                                      
0001bdc0  __covrec_3B11C33593E6B355                                      
00009790  __covrec_3B1FE69DF6A41D79                                      
00019a20  __covrec_3B2046A964EE4165                                      
0000f3e8  __covrec_3B24D5353F7BB6D1                                      
00002788  __covrec_3B3A4AD98C182DE4                                      
0000f938  __covrec_3B4669D912F6CCFB                                      
0001de18  __covrec_3B7C12D1FF505D33                                      
00010900  __covrec_3B8712F8CC28A7DB                                      
00018d00  __covrec_3B8731875368BCE4                                      
000186c0  __covrec_3B8918FB37FDC82                                       
0000a9d8  __covrec_3B8B8236C02173C2                                      
00003660  __covrec_3B9AD5E448524FFF                                      
00015498  __covrec_3BAAA9F404D52369                                      
00003d40  __covrec_3BB04CDDF195DCC8                                      
00022620  __covrec_3BB27BCF60BEF0F2                                      
00014d90  __covrec_3BB61E93E5A13C2F                                      
000222d8  __covrec_3BBF5D8207347E18                                      
00014570  __covrec_3BC485789CD3CEA6                                      
0001df58  __covrec_3BCAF03AAEC4388A                                      
00016fc8  __covrec_3BDF3964B04EF6B6                                      
00015d80  __covrec_3BEB865A84EE4F05                                      
000040b0  __covrec_3BEB96B4128A074A                                      
000115d0  __covrec_3BEEED776316E3D8                                      
0000eec0  __covrec_3BF2B88451504C58                                      
0000ce90  __covrec_3C024D0166B213F1                                      
00018ff8  __covrec_3C1546EF38FFC38F                                      
000143b8  __covrec_3C2E171F1E98D773                                      
00025960  __covrec_3C32DF1242EC602B                                      
0001c900  __covrec_3C3CBCF2BFCDA88                                       
00002328  __covrec_3C422C657214FCF6                                      
000012e8  __covrec_3C4C09DA7A2DAAD2                                      
0001fa38  __covrec_3C891685B0936AE5                                      
0000a578  __covrec_3C99A72BDFB45697                                      
00021090  __covrec_3CB766AA73B34ED5                                      
00003818  __covrec_3CC05BCBB89EC8C0                                      
000106d0  __covrec_3CCD0FBCDE385140                                      
0000e3f8  __covrec_3CD7868FF6D37CF3                                      
00006978  __covrec_3CFE3402D2666528                                      
0000ddb8  __covrec_3D01C64E096BB6C9                                      
000095b0  __covrec_3D0817C7DF21F89F                                      
000028f0  __covrec_3D0A3FF0C21D6472                                      
00018670  __covrec_3D11646E7B9E44CF                                      
0001cba8  __covrec_3D1357E16A1DAE                                        
000237f0  __covrec_3D1639479BA69D42                                      
00006810  __covrec_3D25EC3DE4E423F3                                      
00006040  __covrec_3D5160002BBF26F9                                      
00016500  __covrec_3D83026D43BB5C2A                                      
000240d8  __covrec_3D91C6E3D3C0211F                                      
00010400  __covrec_3DBD25D85CE95350                                      
00001b58  __covrec_3DC72BA4C9ECB1F9                                      
0001d1c0  __covrec_3DCD32584C690145                                      
0000c440  __covrec_3DCF74A11C3A8FF3                                      
0000c828  __covrec_3DDAFC730FA6812                                       
000113f0  __covrec_3DE34E8EF07EF7FD                                      
00020bb8  __covrec_3DEFA4C5BAE3486                                       
00015420  __covrec_3DF2909068D8C0D3                                      
000199f8  __covrec_3E111F87D4DADCD5                                      
00009100  __covrec_3E1568D9541C8352                                      
00011198  __covrec_3E1A6E5850148636                                      
00017360  __covrec_3E1F2634A5604155                                      
0000cc60  __covrec_3E27CE08F0E438A7                                      
00023890  __covrec_3E285C7D0816B8E9                                      
00002ff8  __covrec_3E5598E6C0B42553                                      
0000cf58  __covrec_3E9B067C2AF7B980                                      
00010e00  __covrec_3E9B0EF1AFDE6C23                                      
00002c60  __covrec_3EA0432BC3C9FA6C                                      
00019908  __covrec_3EB230B622DBB3E2                                      
00023278  __covrec_3EB3C6A896EFEB92                                      
00019638  __covrec_3ED0E8CC56BD9E1B                                      
00010770  __covrec_3EEF78312BD96C34                                      
00010450  __covrec_3F10DB2D12771804                                      
0001f178  __covrec_3F21CE194EBC8005                                      
000236b0  __covrec_3F26311F3EE3CC22                                      
000227b0  __covrec_3F26A6A3007D7449                                      
0001a420  __covrec_3F3683B7DE6EB0B4                                      
00004a88  __covrec_3F3F06B0DE5DFDFD                                      
0001af38  __covrec_3F43FBC60717EB18                                      
00010108  __covrec_3F515E8DEDCFDB3C                                      
00020848  __covrec_3F56FE9AC0E3F7D                                       
000100e0  __covrec_3F5C1E56D1753C63                                      
000082a0  __covrec_3F67DCC65271B3FF                                      
00020348  __covrec_3F76917C95C7FF9B                                      
0000f3c0  __covrec_3F79BDA4008A8933                                      
0001e8e0  __covrec_3FA7AA86D5A513E9                                      
00000b90  __covrec_3FD1311A037EBF95                                      
0001c068  __covrec_3FE6122E27B6EDD3                                      
0000e588  __covrec_4013210C481D0A23                                      
00011580  __covrec_405D48D0FC02CE4                                       
00005f28  __covrec_406378224CE7840F                                      
0001f678  __covrec_40688D840F89C590                                      
00004d08  __covrec_40835A27C3B3C9BC                                      
000255a0  __covrec_4089DBE71E9CE11F                                      
00009b28  __covrec_40C2045D2339AE27                                      
000089a8  __covrec_40C30177E58A8F00                                      
00005be0  __covrec_40C3C35157F185E9                                      
00020d70  __covrec_40D13EEB64F7F106                                      
0000e290  __covrec_40D646295DAC752                                       
000218d8  __covrec_40F10F639AF2829B                                      
0001e228  __covrec_40FFB06A88473546                                      
0001d788  __covrec_4108F39F2CF6F3A6                                      
0001e6b0  __covrec_410C20B7D67FD234                                      
00004178  __covrec_4125B57286A5529                                       
00011f08  __covrec_41297A6DA905A84F                                      
000139e0  __covrec_4160D310CB6BF259                                      
0001ae20  __covrec_418220E48D89CB02                                      
00005d70  __covrec_41838BAC8E2D2787                                      
00004448  __covrec_41AEBAB8BD1FD2DB                                      
000222b0  __covrec_41BDB0FA2FADE23B                                      
0000f9d8  __covrec_41D355DEE93F316                                       
00017c70  __covrec_41DF74A62B4BF521                                      
00014fc0  __covrec_4204A0C3106BE7E9                                      
0001a5b0  __covrec_42225F70917E3D2                                       
00014318  __covrec_42266583FA40288A                                      
00017f68  __covrec_4237689B18B0FD4E                                      
00017860  __covrec_427A08F62FE94068                                      
00022148  __covrec_42A65F4B8B147915                                      
0000ffa0  __covrec_42B1FA5D2A28E44C                                      
0000feb0  __covrec_42C38FC99BBB9DEE                                      
0001d850  __covrec_42D0A615B0579C1B                                      
0000caa8  __covrec_430272C77074C92                                       
0000d548  __covrec_430FD1DD48650ACE                                      
00025b40  __covrec_4316F4BCB8B1A039                                      
00003bd8  __covrec_433BCD6A7AE9A476                                      
00002cb0  __covrec_4351608A646C6B0                                       
00006068  __covrec_436280033B12932A                                      
00016a28  __covrec_436E83FED9764DF1                                      
00005488  __covrec_4372B022B5546D6B                                      
00000960  __covrec_4378EEF47529ACB7                                      
0001a2e0  __covrec_439C95238ACC5408                                      
00022d28  __covrec_43AC3D7F67A67D6F                                      
00014f70  __covrec_43B359A7773AC6EF                                      
0001ea70  __covrec_43BA5FCC8231AC14                                      
0000b270  __covrec_43CA149CDA99F19C                                      
0001f628  __covrec_43D543A19EFC9AAF                                      
000072d8  __covrec_43D8C40C41906745                                      
00019d18  __covrec_43EEEB8DE0F09FF8                                      
00017590  __covrec_441504675CABAFFD                                      
0001a790  __covrec_441654212D820C4A                                      
00020438  __covrec_44166E64A5BBD008                                      
00020708  __covrec_44266025E7CC8380                                      
00017d38  __covrec_442728EE52BD7727                                      
00012638  __covrec_4436F28390350551                                      
00000988  __covrec_4442015EC0C5EEBB                                      
00005b40  __covrec_4474B8D0BC074C04                                      
00023b38  __covrec_4486883AFABF520F                                      
00002c38  __covrec_449CAC6A58F3AD72                                      
00020050  __covrec_44A6C9DACBEF005A                                      
00020e38  __covrec_44A77492BB8282C5                                      
0000f7d0  __covrec_44B12D8825409BC2                                      
00004ce0  __covrec_44C5379EEB9C4                                         
00021b58  __covrec_44F0F78A058A2973                                      
0001f060  __covrec_44F5FA991665F746                                      
00022990  __covrec_451A8F452A669A5A                                      
0001ecf0  __covrec_451C27572A870E                                        
00025280  __covrec_451CD9D66D6E5CF5                                      
00023408  __covrec_45226A81D2E59BAD                                      
00016c30  __covrec_453B1EF2D2069B0B                                      
00024c40  __covrec_45404D1F6F2BEFCB                                      
0000c008  __covrec_45436CBF3A4CA093                                      
00020d20  __covrec_454F188C2EEBB909                                      
00018d28  __covrec_4557934FB240974A                                      
0000e448  __covrec_45806013A668158C                                      
00025398  __covrec_4584769AD081610C                                      
0001c590  __covrec_458FE31D37BDB2DB                                      
0001c6f8  __covrec_45A268458869A244                                      
0001f538  __covrec_45B9B9B41DF3C36E                                      
0001b848  __covrec_45BA0D23CEB75BC7                                      
00001c70  __covrec_45D841902927495C                                      
0000d070  __covrec_45E0153103EFF78C                                      
0001dfa8  __covrec_45F3D3DDF856C562                                      
0001fa60  __covrec_45F9536CBD5F4089                                      
00001900  __covrec_4600AE4381D2A14B                                      
0001eb88  __covrec_4606C303C6B0A930                                      
00020140  __covrec_460E53E72E689979                                      
00012520  __covrec_4636F542C7B57A00                                      
00007c60  __covrec_46453BBBC5316FD3                                      
00024308  __covrec_465ED001FEE7029C                                      
00002e18  __covrec_4665283335DF6F97                                      
00018e40  __covrec_46882B7FF483412B                                      
0000f488  __covrec_4698FA8E637FED05                                      
0001e660  __covrec_46A8ECB34234E9AD                                      
00019570  __covrec_46AFA5A2881ACFE8                                      
00000820  __covrec_46BEBFAC6345CB29                                      
00006388  __covrec_46EDCBBEAFD38B16                                      
0000dde0  __covrec_46EDE5804B593543                                      
0000bfb8  __covrec_4718A562B567B04C                                      
000109a0  __covrec_4726466DEFBBB981                                      
00019660  __covrec_4730B24ED3DDAD82                                      
00022670  __covrec_47313B8D5A2523E8                                      
00008de0  __covrec_473C66096BA722FD                                      
00009998  __covrec_4749F46D3908955F                                      
0000de30  __covrec_475CA32B2C2CE266                                      
00004f60  __covrec_476992FF089351FB                                      
00020be0  __covrec_47826CAE054D3CA                                       
0000b2c0  __covrec_479B15013490219A                                      
00009088  __covrec_47BE7FD010B31ACF                                      
00005438  __covrec_47FB578411340773                                      
000205a0  __covrec_47FED9C5043DD057                                      
00021040  __covrec_4800F635D0087F45                                      
00024650  __covrec_48317E263B3DC31D                                      
00007a30  __covrec_483E582084ED31BD                                      
000251e0  __covrec_483FC22444BFA447                                      
0000dcf0  __covrec_485836BA7ADA70E7                                      
00016e38  __covrec_487BEB2173D76C8B                                      
0001ae70  __covrec_4890FCF2334E183E                                      
000089d0  __covrec_4891A72BFF7F5031                                      
00004fd8  __covrec_48B35313DF575FFA                                      
000100b8  __covrec_48BFA1C093CFE041                                      
0000db10  __covrec_48CBB17F0CCCA98C                                      
000054d8  __covrec_48DB928E5EA29731                                      
0001b6b8  __covrec_48EAAEDAF94F1133                                      
0001f790  __covrec_48F9CF9F2F6FDC84                                      
00018f30  __covrec_4918AECB6A3E84BF                                      
0000ae10  __covrec_4920BE8E09645FFF                                      
0000d4a8  __covrec_497DA2F3E5D93472                                      
00004100  __covrec_49838A933E918F6A                                      
00022418  __covrec_498DA4185837243E                                      
0001d968  __covrec_49AAF0C622504F61                                      
0000bf68  __covrec_49B99623CFA970C2                                      
0001f470  __covrec_49CA14FFA437D70A                                      
0001f1a0  __covrec_49DEF62CEC07D0E4                                      
00016780  __covrec_4A0296565E27DC08                                      
0001e250  __covrec_4A14D2EFDDCC31FD                                      
0001f330  __covrec_4A25939B6368C494                                      
000161e0  __covrec_4A4DAD0D533B758A                                      
00021f90  __covrec_4A612143462861AC                                      
00021900  __covrec_4A681B93737ECCF0                                      
000104f0  __covrec_4A70D883AED610D6                                      
00001108  __covrec_4A7ED0D2F2AEA5EE                                      
00016460  __covrec_4A83718366F87D3F                                      
0001ab28  __covrec_4A8BE443999B55EA                                      
00014e30  __covrec_4A910AB47F987A1C                                      
00017428  __covrec_4ADF2954DCACD2FE                                      
0000b680  __covrec_4AF143174640E56D                                      
00021680  __covrec_4AFFF520A0884F45                                      
0000f848  __covrec_4B154ED39D9AF395                                      
00003b60  __covrec_4B1752517A897C5                                       
000194f8  __covrec_4B1D456400D151BE                                      
00019818  __covrec_4B2FF9C240CE6532                                      
000188c8  __covrec_4B5356B43CFDFB69                                      
00006b58  __covrec_4B5ADC67ED6C8790                                      
0001b370  __covrec_4B5D75857CB157A3                                      
00021bf8  __covrec_4B953D0407777558                                      
00022ee0  __covrec_4BBA6BFED90A8AD0                                      
00016708  __covrec_4BBC638157F6FE4D                                      
00002a08  __covrec_4BCFC91C4159B7BB                                      
00014c00  __covrec_4BE5F7B4FA177DDC                                      
0001c7c0  __covrec_4C158E6D40D6F9C2                                      
0000d480  __covrec_4C2163C5B5E62E0A                                      
0001d800  __covrec_4C3168C2A4D9F914                                      
000231b0  __covrec_4C35C2C54052BA7C                                      
0001b500  __covrec_4C3F1868952C5417                                      
00000e60  __covrec_4C80DA44FB3A96A9                                      
00013918  __covrec_4C8D96EF0DDBAFA7                                      
000162f8  __covrec_4CC22FA285A3B27E                                      
00015588  __covrec_4CC29D7C021422ED                                      
000152e0  __covrec_4CD4D0F4250CFD66                                      
00010518  __covrec_4CF1F17A7E634135                                      
0001cea0  __covrec_4CFD48137E743A9D                                      
000229e0  __covrec_4D035693F9044D18                                      
0001e7c8  __covrec_4D21AE937557C3AE                                      
00007cd8  __covrec_4D32569C34B2D696                                      
00018580  __covrec_4D3D958FAE8BFF55                                      
00025410  __covrec_4D50702C08A92B30                                      
0001bc80  __covrec_4D7350F4660A4EDC                                      
00022968  __covrec_4D79A40180628AD                                       
0001b078  __covrec_4D9DAFDA9A900C69                                      
000211f8  __covrec_4DA1137EF85025D0                                      
00012070  __covrec_4DAE465C3086FC76                                      
00017090  __covrec_4DB052C8E0A4F33F                                      
0000d188  __covrec_4DC7EBBFBBF2C80C                                      
00005320  __covrec_4DE3D6A3E8BDB070                                      
00000368  __covrec_4E1A7F59973ACCB2u                                     
0000ece0  __covrec_4E1DBE19647923AA                                      
000234a8  __covrec_4E20CDD12186456                                       
000232c8  __covrec_4E3E9B5F0E16C643                                      
0000e998  __covrec_4E427332E8382E46                                      
00013b48  __covrec_4E4549337C124BD7                                      
00019b88  __covrec_4E474CFEEB4D9132                                      
0001e5c0  __covrec_4E7FA375C45FF47B                                      
00017bd0  __covrec_4E8F37E20C7FDE90                                      
0000c3a0  __covrec_4EB0839C474D2F33                                      
000018b0  __covrec_4EC6A12FB13E3388                                      
0000b298  __covrec_4EFB28BC93277616                                      
00007530  __covrec_4EFD1DA62AB1D0E3                                      
00014110  __covrec_4F15575AF85F45F8                                      
0001ff60  __covrec_4F17865C7AB604FF                                      
00010e50  __covrec_4F1EDF961F9F9089                                      
00003ef8  __covrec_4F2301F1873D147E                                      
00009dd0  __covrec_4F658069E82642B3                                      
00022c60  __covrec_4F68F387F619A687                                      
00004290  __covrec_4F98EC9A5D6C22FC                                      
000254d8  __covrec_4F9E886F0EF6E88                                       
0001c400  __covrec_4FA49577060D487D                                      
00017e78  __covrec_4FA6F2483B63ECB6                                      
00010270  __covrec_4FC04B3E518F0361                                      
00015038  __covrec_4FD2069A8AD8939                                       
00003f98  __covrec_4FE47ABC0D76B93E                                      
0001ff10  __covrec_4FEE33E90C98CEB1                                      
00008638  __covrec_4FF6C882AEFBE71                                       
00007710  __covrec_500923B66EDC1559                                      
00014980  __covrec_500EF415A0AFA018                                      
00003db8  __covrec_50443E9660573DAD                                      
0001ed90  __covrec_505B585CD84F58D2                                      
0000f550  __covrec_50652C5F2DE678E3                                      
0001e480  __covrec_508595C2FEA8404C                                      
0001d378  __covrec_50A4650F69A02244                                      
00025118  __covrec_50B415B8C394C00                                       
00019fc0  __covrec_50C109FBE08F81F3                                      
0001fce0  __covrec_50D6BDD8ED2A2D0E                                      
00006ec8  __covrec_50E1A630398A4DB2                                      
0000ec40  __covrec_50F46F04ABA816B1                                      
00022198  __covrec_50FA18F370A338A4                                      
0001f1c8  __covrec_50FB6F17B07B6FEA                                      
00024128  __covrec_5106A5DFF8AB05EC                                      
00013c60  __covrec_5109CAA780E293F9                                      
00002bc0  __covrec_511C8E60BD52A8FB                                      
00014f20  __covrec_511CDEC80C8154B4                                      
00008a98  __covrec_512002C148919CFE                                      
00002cd8  __covrec_51714BA3B36DEA32                                      
0001b398  __covrec_517D4EEC31B5A4F8                                      
00022df0  __covrec_5187A315F04A8B4                                       
00002530  __covrec_51932377A8B429F2                                      
0000d7c8  __covrec_51997A82F632E9B6                                      
00007d78  __covrec_51A09EDC84208728                                      
000016d0  __covrec_51BBACEB942ABDE0                                      
0000ac08  __covrec_51C74FFAA225D32A                                      
00002300  __covrec_51DD21FD505FE478                                      
0001c360  __covrec_51EB70A0B5B974EF                                      
0001ebd8  __covrec_51EC7BA12E1A987B                                      
000258e8  __covrec_51F2C7E1709396FD                                      
000254b0  __covrec_51FD324BB2EA1EAD                                      
0001b1b8  __covrec_5209F5886F1C090A                                      
00018198  __covrec_523F4CFA1065390F                                      
00007260  __covrec_525C3DF9C95B7EC                                       
000041c8  __covrec_5284D5E45F2661CB                                      
0000cb70  __covrec_528F08850A5A6AA                                       
0001e9d0  __covrec_5293B1DCB1A6494F                                      
0000a618  __covrec_52B97E8CA708B350                                      
00000640  __covrec_52DA6B89AFD9BEEFu                                     
00020fa0  __covrec_52F3142522D0E6B1                                      
0001b960  __covrec_52F9D4A755B86E01                                      
0001bf00  __covrec_531872212FE03C64                                      
000073f0  __covrec_53274C6784AC6740                                      
00003c28  __covrec_5333A61D2C451B71                                      
00006270  __covrec_5341AC3ACCD56D5A                                      
0001abc8  __covrec_5354ACBC37A90665                                      
00001568  __covrec_536847D883D87D6E                                      
00007328  __covrec_538F62B599A02D85                                      
00024ec0  __covrec_53932CEBC899DEE8                                      
0000cd50  __covrec_53A77370C248305E                                      
00014930  __covrec_53BDD9192758C0C7                                      
00022490  __covrec_53C524AD23B0D9FE                                      
000225f8  __covrec_53DB31706971EE79                                      
00014cc8  __covrec_53F7CEF1C78522B5                                      
0000fa50  __covrec_5406CB2E1C44728                                       
0000cb98  __covrec_5425D9490B6AD1D3                                      
0001af88  __covrec_542A27206C5934C0                                      
000092e0  __covrec_5431C2A10E3AF27F                                      
00018878  __covrec_545EA52392831E1E                                      
00014b10  __covrec_547AD5C87A6E6E24                                      
00000aa0  __covrec_547CF9FBFA8DAB2                                       
000093a8  __covrec_548397170303D112                                      
000156c8  __covrec_548B429BE36F5883                                      
00000b40  __covrec_54BFE4BB339D82FA                                      
00010680  __covrec_54DEC94B3D73D88D                                      
0001ef70  __covrec_54E47B3468B6720B                                      
00017720  __covrec_54F25D26B9599689                                      
00023430  __covrec_5507A5B35C076DCF                                      
0000b1a8  __covrec_55266747A4570DA1                                      
00009178  __covrec_5540FB3D09913541                                      
00008fe8  __covrec_5543982661761F02                                      
0000c5d0  __covrec_55810F3EB635025A                                      
000162d0  __covrec_559A57DB4020EB3D                                      
00022210  __covrec_55B05CE772A3FED7                                      
000097e0  __covrec_55C345FCDBE2932D                                      
00009f38  __covrec_55C646F71E54567                                       
0001b708  __covrec_55CCC057DCBF6F0C                                      
00016528  __covrec_55F75F55410D098E                                      
0001e778  __covrec_55FDA8697961D842                                      
0000cb20  __covrec_563C36D078652BFB                                      
00016370  __covrec_563F2827D38D4A3                                       
0000ccb0  __covrec_564B00DAE5D93552                                      
0001dcd8  __covrec_565A1705DBDCBCF6                                      
0000cd00  __covrec_5683CC655E710871                                      
00020078  __covrec_568F33693272DF7C                                      
0000de58  __covrec_5693A03265561EA1                                      
0000c710  __covrec_5698EC3DDF5C0D44                                      
00007788  __covrec_56994D288387D9E1                                      
00009fb0  __covrec_56B780A4FDEE900D                                      
00023ed0  __covrec_56CA30E0ED77E0AC                                      
00018cb0  __covrec_56F45E2B58F15DDD                                      
00022d78  __covrec_570AD1247B2904BD                                      
00017e28  __covrec_570B71B48DC89350                                      
000071e8  __covrec_572E084EA8EAC4C5                                      
00003610  __covrec_5749A9E4CCC687D1                                      
0001a3d0  __covrec_575AB136624CDC4D                                      
0000bcc0  __covrec_575DC9889DF6949E                                      
000208e8  __covrec_5766E1301EB476CA                                      
000054b0  __covrec_5767CF3A670B399C                                      
0000e920  __covrec_5775237149682687                                      
00023958  __covrec_5777877A852C0A6F                                      
0000df98  __covrec_5792CDB37B0EB554                                      
00008520  __covrec_57A66E83E0547B4C                                      
00015010  __covrec_57B455205B710844                                      
0001f290  __covrec_57BFCFACEDAA9D40                                      
00000540  __covrec_57CDA72D04A5E694u                                     
00015128  __covrec_57D8AFD33D621CB8                                      
00005780  __covrec_57DC8F9B3C4337A2                                      
00003868  __covrec_58173AEB70F92F68                                      
0001ae48  __covrec_581ED7AC05A91E21                                      
0000d110  __covrec_581FA69547FF1789                                      
0001c658  __covrec_58228321CE0501E9                                      
000034a8  __covrec_583D9624CEFEF063                                      
00023b60  __covrec_584AD94460704E2B                                      
0000d638  __covrec_58550788DEC90388                                      
00017658  __covrec_5865DD4AF4854E44                                      
0000c238  __covrec_586FB34E967A1C01                                      
00011170  __covrec_589F986B7592F53B                                      
000180a8  __covrec_58C05D80C9E64839                                      
00023200  __covrec_59111EB6BBD93FE9                                      
000197f0  __covrec_59262AB6070DDF6E                                      
00023110  __covrec_592B405F146B6E3D                                      
00024bf0  __covrec_593C9AF47F3FDE2                                       
00006928  __covrec_5942973784CEEA25                                      
0001efc0  __covrec_59570786E07CFFA4                                      
00003728  __covrec_5959C51EAFB0B0AB                                      
0000bb58  __covrec_59674A5A4E18485A                                      
000153f8  __covrec_5967EDE5D9075FFC                                      
0001b190  __covrec_5973C84EE4E8DC8B                                      
0001ace0  __covrec_59797CF72339C6A2                                      
0000f960  __covrec_597B766BDF97E9A4                                      
00023db8  __covrec_597DBB490AD57B85                                      
0001cc98  __covrec_59866A2B960156BF                                      
00023318  __covrec_599F92E5DDAD34D8                                      
0001f150  __covrec_59A6F2E1536536C9                                      
00014bb0  __covrec_59D9833588BD0250                                      
000096c8  __covrec_59E40C65BB4D18F7                                      
0001b550  __covrec_59E4FDC2A3817350                                      
00006b08  __covrec_59EA745BFA1ABDC0                                      
00011cd8  __covrec_59F98C605AC61246                                      
00002fd0  __covrec_59FF2B4C942CC8BA                                      
0001fd80  __covrec_5A0F3B205628282                                       
00007288  __covrec_5A2DEE3595B11481                                      
0001b410  __covrec_5A36AAA5E429F1F8                                      
000106f8  __covrec_5A37A076E8C9BBDA                                      
00002490  __covrec_5A3EEBA233C7FD36                                      
0000d200  __covrec_5A717D53595AA9DE                                      
00022760  __covrec_5A99CDCA1EEC47F9                                      
000115a8  __covrec_5AA4C50A3572C884                                      
000035c0  __covrec_5AA5C0ECFAA2F10                                       
0000ad70  __covrec_5AD07ACFA2247082                                      
0000fe60  __covrec_5AD6145C62BED28F                                      
00015fb0  __covrec_5AE2528E47AEA764                                      
0001bf50  __covrec_5AE5A6CA23E9CA90                                      
000216d0  __covrec_5AFABFB4C420118B                                      
00022aa8  __covrec_5B1E4581D31EA871                                      
00020190  __covrec_5B2ECDBCAE47B840                                      
00010cc0  __covrec_5B2EF3F713A9AD4C                                      
00011fa8  __covrec_5B3116183A6F0466                                      
000221c0  __covrec_5B42112AB7951316                                      
00004d80  __covrec_5B4547B2E6288EA9                                      
00004718  __covrec_5B5EF01BC99E5A86                                      
00008340  __covrec_5B7AB3B015354B82                                      
00004ee8  __covrec_5B93A986E69D6689                                      
00018120  __covrec_5BCC34657E2C0F5E                                      
0000a190  __covrec_5BD32E00C445D602                                      
0000c1e8  __covrec_5BE8C1F5F9F49C79                                      
00017310  __covrec_5BE9D68C55A9A1C3                                      
00021590  __covrec_5C03FF969F72D36E                                      
000039a8  __covrec_5C20B4D769B6D32F                                      
00001a90  __covrec_5C2CCE1E95C8ED88                                      
000015b8  __covrec_5C3E23360D9CC29D                                      
00018378  __covrec_5C43AF31B22507E4                                      
00023e80  __covrec_5C49B71EC833E353                                      
000213b0  __covrec_5C859D573AC9D4D7                                      
0000c6e8  __covrec_5CA635E71B7D840A                                      
00014020  __covrec_5CD08469690590F                                       
000052d0  __covrec_5CDB53EB55DAC376                                      
0000c4e0  __covrec_5CEF60968AFEBE0C                                      
00007418  __covrec_5CFAB2D619F63C5                                       
00022300  __covrec_5CFC237C48AB80F                                       
00024240  __covrec_5D167D489E8731A2                                      
0000b3d8  __covrec_5D2E7F106E151629                                      
0001ede0  __covrec_5D57DE214FF6020D                                      
00025550  __covrec_5D62FB58C058D1F0                                      
00019390  __covrec_5D7600A7B9C73A2F                                      
0000d138  __covrec_5D7FBF201AF53977                                      
00019a48  __covrec_5D7FED37FADFFD2                                       
000246c8  __covrec_5D997DCE6B8E4790                                      
0000dd40  __covrec_5DB286C142F2FC00                                      
00004bc8  __covrec_5DCBC94E2F239EF0                                      
00008c50  __covrec_5DCE58CE14EFB2DE                                      
00000f28  __covrec_5DF05A020DDAC415                                      
0001c3b0  __covrec_5DF3552454A42C0F                                      
0000e358  __covrec_5DF83C55D6E82DD6                                      
00023d40  __covrec_5DFE26364CB18BC0                                      
0000bdd8  __covrec_5E08C98A59626A7F                                      
00003598  __covrec_5E1546171B50C0C5                                      
00014ef8  __covrec_5E3E9E3883D3E0E0                                      
000194d0  __covrec_5E5F9A5D729D9506                                      
000179f0  __covrec_5E69795670429A01                                      
00011418  __covrec_5EA71F0DEB9B9AE1                                      
000024b8  __covrec_5EEB11B587254FC6                                      
00002120  __covrec_5EF187E37416A4F9                                      
000029e0  __covrec_5F2C4E1FA0B9AA98                                      
0001dad0  __covrec_5F3A54AB8DAB57F9                                      
000025f8  __covrec_5F54C48325B5A57F                                      
0000fc58  __covrec_5F86F943AF231A95                                      
000011f8  __covrec_5F8A9EEA556599FE                                      
00004470  __covrec_5F8EB310E228C202                                      
00011da0  __covrec_5F9688E4D5455A4F                                      
00011b20  __covrec_5FAB5DB66DF3F6B1                                      
0001f600  __covrec_5FE7858F1DFD2F93                                      
0000fd20  __covrec_5FF2A874BA51D671                                      
00008a48  __covrec_5FFD77205848B964                                      
000046a0  __covrec_600121E2FBDF7D4E                                      
00024b00  __covrec_600127B1C79F7943                                      
00022940  __covrec_60055A9A031B2694                                      
0000d840  __covrec_600D5DFBC7E8E0D1                                      
00018a80  __covrec_600DB93694AF16AE                                      
0000eb50  __covrec_601D8438B0B370FE                                      
00004da8  __covrec_601FDE1BE8C6AAE0                                      
00019110  __covrec_602D8E751BE48839                                      
00000cf8  __covrec_6041B4936B66AE76                                      
00009a60  __covrec_60422E52F6D7CCB4                                      
00003548  __covrec_60463F3D453FCBCE                                      
00016af0  __covrec_605A53631F7F7CEF                                      
00024060  __covrec_605B38A404E96241                                      
00021400  __covrec_607B2E586A4F788A                                      
000147a0  __covrec_607EB9EB1A7C5531                                      
0001fcb8  __covrec_6084466C6C308174                                      
00008750  __covrec_608554DE1C9501C7                                      
00010a18  __covrec_608E1EBDE4771F04                                      
00019e08  __covrec_609153DD85DF82CA                                      
00010ec8  __covrec_609D0681607B0888                                      
00014228  __covrec_60A240CFB9A1358C                                      
00015718  __covrec_60AB9A9A8DE3D9DA                                      
00021928  __covrec_60AEA3C1EEED3162                                      
0000ac58  __covrec_60B6B884D1017516                                      
0000a348  __covrec_60B82B20ADF3A6C9                                      
0001bfa0  __covrec_60BA9FDDAF9E8CED                                      
000007c0  __covrec_60BB75E91683A620u                                     
0001fd58  __covrec_60C32BF523D530C4                                      
00008f98  __covrec_60C4F50F13ECC26                                       
000082f0  __covrec_60CD53922E0964B6                                      
00009858  __covrec_60CE23351F0BB0C5                                      
0000a320  __covrec_60E01FB0FEA6B10F                                      
00012890  __covrec_60E17CA99ACCDE1D                                      
0001f808  __covrec_60FC22479A8DD59B                                      
00020c58  __covrec_60FCAEF1CA6A4D04                                      
00006130  __covrec_6100AF97F9A9E9F7                                      
0001c7e8  __covrec_610D70C8E1A335F9                                      
00009ee8  __covrec_61126BC06481CB11                                      
00005ed8  __covrec_611766D475D70993                                      
00007198  __covrec_61449AE38B530A4                                       
000025d0  __covrec_614A14DB5C7FA19C                                      
00009ce0  __covrec_614E3FACC915D745                                      
0000b388  __covrec_616CE32FFC7272F1                                      
00010f90  __covrec_617E8FCBAE7597D0                                      
000061f8  __covrec_61840838A007A7EE                                      
00003228  __covrec_619272C7739451E2                                      
00005398  __covrec_619C2FAE5D265277                                      
00021220  __covrec_619F943D65CFFC68                                      
00017a68  __covrec_61A3F6A2C9CB25B9                                      
00021ce8  __covrec_61AF77C1B571217B                                      
00013838  __covrec_61B769F232724172u                                     
0001de90  __covrec_61BAD85B7EE7543E                                      
00021248  __covrec_61BC1D98FABD78E9                                      
000062c0  __covrec_61C676D4F7B32687                                      
0000e240  __covrec_61DF9CC8984FB629                                      
00019f48  __covrec_61E4BE2A9A45052D                                      
000046f0  __covrec_61EA836F28914C82                                      
00015538  __covrec_61ED56434EC677E7                                      
0001f7b8  __covrec_61FAD4F91794C2C8                                      
0000de08  __covrec_6204ED5D4EDC7D02                                      
00015b28  __covrec_62099483D98BBDE1                                      
000242b8  __covrec_62198F82D0EEAA22                                      
00005578  __covrec_622C64949E26680D                                      
00011bc0  __covrec_6230355C4154A2EB                                      
0000e498  __covrec_623CC9784B4121C1                                      
00017a40  __covrec_62421E4FC47D2457                                      
0001e408  __covrec_625FE2ACC8D7AE7A                                      
00019de0  __covrec_627A34FFDFDA3AC5                                      
00007df0  __covrec_6280E7CD83141F1B                                      
00001338  __covrec_6286C85827C38416                                      
000188f0  __covrec_628D0E885DB641AB                                      
00013cb0  __covrec_629F6EA827D66033                                      
00015100  __covrec_62A1C1279D1B74C0                                      
00003638  __covrec_62A98C93F42CDCD3                                      
00003138  __covrec_62C0A1F549FDA73                                       
0001efe8  __covrec_62CEED415117C3E6                                      
000144f8  __covrec_62D24A3BE52C9DF1                                      
0001daa8  __covrec_62DCA6FA857581E0                                      
00015808  __covrec_62E503D0127960FE                                      
00012e70  __covrec_630C36F8FE9CB836u                                     
00010018  __covrec_6313EF3067172709                                      
0000f2a8  __covrec_6314EB5485BC7F25                                      
0001b320  __covrec_632F71688A908DEA                                      
0000e538  __covrec_633024824CBAEE71                                      
000095d8  __covrec_6335E4F87C82DFDD                                      
00020ff0  __covrec_633F92D66F25D55E                                      
00018968  __covrec_634C776871E37BDB                                      
000165a0  __covrec_635165F9A6D83D42                                      
00011508  __covrec_6352F0854902E882                                      
000098d0  __covrec_6357598EEBCB078A                                      
0000ca30  __covrec_6382BE4728128A7B                                      
00008688  __covrec_638756E0999BF942                                      
0000ca08  __covrec_639B738A714F9727                                      
00018850  __covrec_639E4391945DB050                                      
00017ae0  __covrec_63B4867F401D171                                       
00024e98  __covrec_63CB8F149EE69A9B                                      
000068d8  __covrec_63D016BC5F283A2B                                      
00012930  __covrec_63D8F0E07CCD453E                                      
0000b928  __covrec_63DD24C70A829FA0                                      
00021c20  __covrec_63E2A7BBA895A1D4                                      
000188a0  __covrec_63E872B86E74949D                                      
0001f8a8  __covrec_63F023B93B49A407                                      
00018da0  __covrec_63F47CBDBA8706D4                                      
00024830  __covrec_640B25623F4A9BBD                                      
0001e0e8  __covrec_64202959F9FD5028                                      
000078f0  __covrec_642A5D35D62CCC35                                      
0001a1f0  __covrec_643C2D57D112712B                                      
00008a20  __covrec_643F4F8E75138635                                      
0000ed58  __covrec_6442263EB4C4ECE0                                      
00007940  __covrec_644EE4DEA57C92BA                                      
00005370  __covrec_6450FD0A03211B5F                                      
00003a20  __covrec_6471B342D16BEEB2                                      
0001b4d8  __covrec_6472F7042D344975                                      
000008c0  __covrec_64798FC843A57EC4                                      
00020168  __covrec_648637F4AFC7F6E6                                      
00021ea0  __covrec_648AFCE4869CDF64                                      
00017f40  __covrec_649123C397D2FE54                                      
0001a470  __covrec_6495CF8F089C515D                                      
000005a0  __covrec_6497BFE2A00B8653u                                     
00004948  __covrec_6498EABD08FE2134                                      
00022350  __covrec_64A16295B425602E                                      
0001cce8  __covrec_64A8BBF057BCDB8F                                      
00010838  __covrec_64AAD3E48D70B9                                        
0000a398  __covrec_64C631C3419D8497                                      
00023c28  __covrec_64C8B3185D471D39                                      
00003ac0  __covrec_64CC73B6A273C4C6                                      
000255f0  __covrec_64D3AEA7DDAB5BC                                       
0001c9c8  __covrec_64D3C1D55B1C4BDA                                      
00022c88  __covrec_64D90DC2B583C019                                      
00022530  __covrec_64FB7FF534509268                                      
0001f970  __covrec_6501CE59E048559A                                      
0000d9d0  __covrec_65091D5E19CE7236                                      
000037c8  __covrec_650B600441780F70                                      
00007468  __covrec_650D813178C6FBA0                                      
000223c8  __covrec_651D9F8875B473A5                                      
00012cb8  __covrec_6542572E354590CFu                                     
0000e308  __covrec_65452D93FF7AE6CE                                      
00020c80  __covrec_65484A8675D7B8E2                                      
00022e90  __covrec_65541E11A03E5939                                      
00009f88  __covrec_656B3D9D6026034                                       
0000b108  __covrec_656CD7E4E614AD16                                      
00003cf0  __covrec_657DCEB9CBC9A15                                       
0001d7b0  __covrec_6581B810712A84A9                                      
000150d8  __covrec_65C7E2ABC9CA6462                                      
00003b38  __covrec_65CF7FB8BFC9DCA0                                      
0001d738  __covrec_65DC4DA59D803A9A                                      
000131b8  __covrec_65F04B46BB179B8u                                      
000062e8  __covrec_65FB37FD3ECB0783                                      
000230c0  __covrec_6617EDC3AD91A1F7                                      
0000d570  __covrec_66203DD865386CF4                                      
00014cf0  __covrec_6645E26004FAF592                                      
00017978  __covrec_66835ED7F01DF5B3                                      
0000aa00  __covrec_66884EF09B90C267                                      
00016de8  __covrec_66AD4B6B94BA581C                                      
00025938  __covrec_66AFAA273DD467EC                                      
00016488  __covrec_66BD8C4AAA7C7281                                      
00006a68  __covrec_66E9970543670AE8                                      
00025910  __covrec_66ED5F2BB6E03BEE                                      
00018698  __covrec_66F93101A1979A14                                      
00005c30  __covrec_66FCC1F75E2E4197                                      
0001bd70  __covrec_6700E07112651689                                      
0001e520  __covrec_670FAAE4949E8855                                      
0000abe0  __covrec_670FD0ADF37D7A4F                                      
00013dc8  __covrec_671360DFD81C473D                                      
00017388  __covrec_671C2F2E71C2862A                                      
0000c620  __covrec_671D097439EB28D6                                      
000101d0  __covrec_6732255AC3A1FA23                                      
00006e00  __covrec_67345CC240590D89                                      
00002b70  __covrec_674309A670714414                                      
0001d8f0  __covrec_67507B9754BDF0F                                       
00006bd0  __covrec_6769A1B6579C1917                                      
00012610  __covrec_676F8970FE61FFB9                                      
00000f00  __covrec_6772213A314354D1                                      
0001b8e8  __covrec_67AEA11C898F4735                                      
00010720  __covrec_67B70B543A763C65                                      
000192a0  __covrec_67B729F7EBBB3464                                      
000246f0  __covrec_67D3DB144EBA80F8                                      
000023c8  __covrec_67DA54DDFC65307F                                      
00018648  __covrec_67EB78E9E215E24                                       
0000b068  __covrec_67EBF9464B1739FF                                      
000119b8  __covrec_67F0E0E2F00783DA                                      
00008840  __covrec_67F252814530E1AE                                      
00024d08  __covrec_67FD912FA8836D07                                      
00011490  __covrec_68010FB294048503                                      
00012110  __covrec_6822925391E24728                                      
0001bd20  __covrec_68382CD637712021                                      
00010ef0  __covrec_6858C8E5B39CEB34                                      
00023c00  __covrec_68806EC1542D24B5                                      
00019750  __covrec_6881E0F990B73481                                      
00010fb8  __covrec_6884C285E245124A                                      
00000f78  __covrec_688EB108228CD2D5                                      
00025528  __covrec_6894D1D8A6BE29D3                                      
0001b438  __covrec_68989C42203D013F                                      
00025780  __covrec_68D58AC7A25A34D                                       
00001ab8  __covrec_68D7D6BD174BD691                                      
000032a0  __covrec_68D88CCC12AD2A3F                                      
00025b68  __covrec_690F210C4C3AEF6D                                      
0001bcd0  __covrec_691B5BB3653DD0C9                                      
0001fee8  __covrec_693B8D2DB02FA012                                      
00012318  __covrec_693DE5C38757BCA9                                      
0001ad08  __covrec_6944888D8239073E                                      
00017bf8  __covrec_6948117F7934DE3E                                      
00021180  __covrec_695ABF3E482DCF58                                      
000111c0  __covrec_695B846627E823D1                                      
00020820  __covrec_69605FD898A8D78B                                      
00007be8  __covrec_6964C0ABD1B3D33E                                      
00021478  __covrec_69671E9A37D6DACC                                      
00014390  __covrec_696D87D6036FC870                                      
000056e0  __covrec_69790632A0BC140D                                      
000050a0  __covrec_697D5C899E463194                                      
00001b08  __covrec_6984BC0E4025AAAD                                      
00013eb8  __covrec_69A7919894F3DB7C                                      
0000e948  __covrec_69C2D9C3FFABDF1E                                      
00009218  __covrec_69C8694219275654                                      
0001b7d0  __covrec_69D79B8F17236D0                                       
0000faf0  __covrec_69DE16BA85A71611                                      
0000f8c0  __covrec_69DE4DF1890DADB7                                      
00019d68  __covrec_69E15E15F0254C8E                                      
0000c148  __covrec_69F779B385F91D45                                      
0001f448  __covrec_6A035E7CF6031E36                                      
00001e28  __covrec_6A0D657EAAFA6D83                                      
0001dc10  __covrec_6A13BF628748E06C                                      
0000bc48  __covrec_6A1A64384C549626                                      
000048d0  __covrec_6A1E7BC147A9A584                                      
000083e0  __covrec_6A20DA2468D71674                                      
00025bb8  __covrec_6A28879D60B43C55                                      
00008020  __covrec_6A6362E7A2077239                                      
00014340  __covrec_6AB899E042D0D879                                      
00018260  __covrec_6AD426A02034C89F                                      
0000afc8  __covrec_6ADB0BC98E99DF0C                                      
00018490  __covrec_6AEB43312356A163                                      
0000f410  __covrec_6AEE3ED1AB86CC6C                                      
00014908  __covrec_6AFC3A74A36A6AA0                                      
0001b0a0  __covrec_6B06D24F20F26A0E                                      
0001c680  __covrec_6B0AFE113A1B8C50                                      
0000c198  __covrec_6B1D995AB962F0B2                                      
0001f380  __covrec_6B294C21DBE69430                                      
000123b8  __covrec_6B6CF2E8B51150E7                                      
00023b88  __covrec_6B6ECF7946D2B1B6                                      
0001e638  __covrec_6B75611D7E159BB4                                      
000142f0  __covrec_6B79FF4545BC364E                                      
0001b780  __covrec_6B884CFA12FA4D98                                      
0001d7d8  __covrec_6B8FD2A2B007D777                                      
00020028  __covrec_6BBE3234BAF3DE48                                      
00015e48  __covrec_6BC2C905E8BBAD28                                      
0001fe70  __covrec_6BC6B446894E835                                       
0001ab00  __covrec_6BC8FFD59C591D3F                                      
0000b158  __covrec_6BC92AC9CC41220E                                      
000019c8  __covrec_6BD34685A631A1D6                                      
00002a30  __covrec_6BDA03C7088A51E1                                      
0001b5c8  __covrec_6BF137747F29C87C                                      
00001f40  __covrec_6BF83EE06BDBD2E2                                      
00021a18  __covrec_6BFF0E102C80DD93                                      
00020640  __covrec_6C0596D111247138                                      
00018530  __covrec_6C5807CDB7FABC9                                       
00003480  __covrec_6C58C8CB7A51E29B                                      
00025988  __covrec_6C62E58E0AE56214                                      
00024038  __covrec_6C644FB18AE96F4A                                      
000051e0  __covrec_6C6D0F2F16F1F38D                                      
00001a18  __covrec_6C6F66E03D089E18                                      
00008db8  __covrec_6C743F583DE17023                                      
0001c1d0  __covrec_6C77240A431C2418                                      
00022dc8  __covrec_6C82696AE356F1CC                                      
000066a8  __covrec_6CC6679ECBEE14F9                                      
0001d238  __covrec_6CEDCA87BE1D39D4                                      
000211d0  __covrec_6CF383D0157CD7EF                                      
00024880  __covrec_6CF97F246FFDE31                                       
0000a988  __covrec_6CFE6451EC9C52F9                                      
00017f18  __covrec_6D004CE42EF25966                                      
00019368  __covrec_6D1AA1BCB672C544                                      
00020aa0  __covrec_6D2A2A8D4D990BB6                                      
00004cb8  __covrec_6D31441440B2B830                                      
00022b98  __covrec_6D32D3E85DE9C709                                      
0001be60  __covrec_6D375FA5787512DE                                      
0001b9d8  __covrec_6D46CFF093D30154                                      
00005d48  __covrec_6D66CFB74E90B79C                                      
00017248  __covrec_6DA6D5EA550B590E                                      
00016e88  __covrec_6DABDDDB4C170311                                      
0001b000  __covrec_6DC4EA606C4C268E                                      
0000c940  __covrec_6DCA04C94E6C21D3                                      
00002d28  __covrec_6DDBBF9D5036FD29                                      
0001d288  __covrec_6DDCD9F0C83B83BF                                      
0001afb0  __covrec_6DF9E6F550390F51                                      
00021838  __covrec_6DFDDD0A637A7940                                      
0000acd0  __covrec_6E1A44D3C8BC259D                                      
0001f308  __covrec_6E368A2F9C3B83EA                                      
00017f90  __covrec_6E511565C0E0A19A                                      
0000e718  __covrec_6E5290F4B1AC7C97                                      
0000fd48  __covrec_6EBA548D6F415BA1                                      
00025578  __covrec_6EE1FA9E8007035D                                      
00005aa0  __covrec_6EE2BF9459318274                                      
00006f18  __covrec_6EEA99F60149DC25                                      
0000aed8  __covrec_6EF8002856E4CBFC                                      
00003110  __covrec_6EFB6DE4C2F58B43                                      
00015768  __covrec_6F086113AA0BAB9D                                      
0000fcf8  __covrec_6F0FAD3458A6C65F                                      
0000f438  __covrec_6F20C2D7023DB8E8                                      
000237a0  __covrec_6F4EE833F4463577                                      
000249e8  __covrec_6F53DC3E617D846                                       
00015b50  __covrec_6F569142378D8935                                      
00023ae8  __covrec_6F64DA0211F6F367                                      
00009c40  __covrec_6F6B58E351921A4C                                      
0001b910  __covrec_6F6C76F514C1FAF                                       
00014408  __covrec_6F7089FE2CB7231C                                      
0001d058  __covrec_6F7C608B09F01974                                      
00009510  __covrec_6F87E0D31011FA87                                      
0000ead8  __covrec_6F902A328862CA3C                                      
00002738  __covrec_6FA5483804028977                                      
0001cb58  __covrec_6FBBFBF5F17C446D                                      
00024dd0  __covrec_6FBD421F6B4D497A                                      
00007300  __covrec_6FC2A34653C7B741                                      
0000eb28  __covrec_6FC781AA1F8A0AF6                                      
00014778  __covrec_6FCF8583FE1EA4DA                                      
000209d8  __covrec_6FD77BF06119F64A                                      
00004650  __covrec_70073D59154FBB90                                      
00004b78  __covrec_70226340E9DAF01A                                      
00018c60  __covrec_70348B1638ED513                                       
00023818  __covrec_703AE850952D9B9E                                      
00007d50  __covrec_707AD4A7445FB443                                      
0001b618  __covrec_7089BDBF54B5472F                                      
00012988  __covrec_708B7A7D79BBA6F8u                                     
00004010  __covrec_7092067BD5916200                                      
0000be28  __covrec_70AB79C230504C55                                      
00009d58  __covrec_70CF8CA989011034                                      
0001aa38  __covrec_70EB0CBCF8E7BCDF                                      
00004920  __covrec_70EC87587136D382                                      
000197c8  __covrec_70FD361BF64A609F                                      
0001db20  __covrec_70FF36A831701743                                      
0000f258  __covrec_710DEE95B1A70540                                      
00023980  __covrec_711F88A52431842B                                      
000210e0  __covrec_712AAF0949CB6D0E                                      
00014188  __covrec_712D90923B9313E8                                      
0000fbe0  __covrec_7139FD0F045F9185                                      
00011c38  __covrec_7149D062015CF471                                      
0000b7e8  __covrec_716AB83B32900FE5                                      
00021158  __covrec_716C958D7F01D131                                      
000243a8  __covrec_717D51A19C2A9E2                                       
00024010  __covrec_717D6364E2B8D631                                      
00018238  __covrec_71CA6EDD2D771C26                                      
00015c40  __covrec_71D8157156648E29                                      
00005848  __covrec_71DB72C3301D9EA2                                      
00004358  __covrec_7228F69D8F36EB6F                                      
00024498  __covrec_7232234FBE787353                                      
00000d70  __covrec_724B69EBC536E402                                      
000081b0  __covrec_7267E5B89742BDEF                                      
00005bb8  __covrec_726A5C9D52F7F5E7                                      
00018ee0  __covrec_728F5CA9E15290C7                                      
000066d0  __covrec_7291D6678338BC48                                      
0001ddf0  __covrec_7297E02781E35C9B                                      
0000cfd0  __covrec_729FBAB722BFBBA7                                      
00019430  __covrec_72A4B1321DC422DC                                      
0001fd08  __covrec_72B41E804029B4B6                                      
0001beb0  __covrec_72C4A82DABA78D1B                                      
0000adc0  __covrec_72D21F5906349DB2                                      
0001a0d8  __covrec_72DB766D6F85D281                                      
0000a460  __covrec_73146D47C2268B40                                      
00011ff8  __covrec_731B204584E19236                                      
00017ba8  __covrec_7325B63CAE439ACE                                      
0001b0c8  __covrec_73289B42D6D6636A                                      
00020780  __covrec_732C0C89F6E04565                                      
00015f10  __covrec_733A437F11944203                                      
0001a308  __covrec_7341B346569B34F                                       
0001e160  __covrec_734558F5A787C5BF                                      
00004128  __covrec_735D7B941E383EA1                                      
00013788  __covrec_736F323106BCBDF9u                                     
0000fff0  __covrec_73735C19FACE89E4                                      
0001a1a0  __covrec_7376AD89065DCDFC                                      
0000b180  __covrec_73921255196ED739                                      
000036d8  __covrec_73B1F7479AB6411A                                      
0001a998  __covrec_73CD01D41870CAD8                                      
000002e8  __covrec_73D06BFCEB79115Fu                                     
00002f58  __covrec_73DD9FCB2CCA7C8E                                      
00013e18  __covrec_73E881B9822652DA                                      
00022f30  __covrec_73EB19583D849831                                      
0001e1d8  __covrec_73FE5F7C85C9C982                                      
000192f0  __covrec_7428E7273B05E99                                       
00002e40  __covrec_7462DC7A71D86840                                      
00023098  __covrec_74633BD7864AA0E0                                      
0000cdf0  __covrec_746721CCAF0ACA8E                                      
0000c418  __covrec_746E139C881AA4DE                                      
00013d78  __covrec_7470D8597953AD98                                      
0000fbb8  __covrec_74794AE17B5C57B9                                      
00024f88  __covrec_7484FA5328090C09                                      
000125e8  __covrec_74886A0737907A5C                                      
00012728  __covrec_749663B955003AA6                                      
0001ce28  __covrec_74AD7F8074A990C0                                      
0000f0f0  __covrec_74AD938A5BA92A7E                                      
00023c78  __covrec_74ADB140D437494                                       
00018b48  __covrec_74B299629E722513                                      
0000a6e0  __covrec_74B4AAA5875A1A40                                      
000029b8  __covrec_74BCAFA8ECADE0A0                                      
000088b8  __covrec_74BF17EF8000DDA7                                      
0000be50  __covrec_74C599A820D7E755                                      
000168c0  __covrec_74D1B0C700A0A7C0                                      
000217c0  __covrec_75176EAB268A1401                                      
0000b720  __covrec_751C6A39772D4981                                      
00010f40  __covrec_753AC122F5322A9A                                      
00001ce8  __covrec_753F40F7B964E92B                                      
00000b68  __covrec_754324FB8D9A7A07                                      
00010860  __covrec_7549A71CC7241F46                                      
000185f8  __covrec_754BF394103DA9B7                                      
000006d0  __covrec_754DE0ABC1699C52u                                     
0000ded0  __covrec_754FB894AEB3A2B4                                      
00016348  __covrec_755300A2FFF99107                                      
00002940  __covrec_755B8BFE980A79C2                                      
0001b668  __covrec_7571C99B21A16999                                      
0000cc38  __covrec_757BBA318B051CC4                                      
0000c6c0  __covrec_757DFFBA2ED8856A                                      
00013fa8  __covrec_7584AB076ECF638E                                      
00002508  __covrec_759DA5659B0848DA                                      
00009128  __covrec_75A8DE6340DA4CB3                                      
00003188  __covrec_75AAF50C859E50CC                                      
000158f8  __covrec_75B09D190C5E20A4                                      
00011120  __covrec_75B4464203626D69                                      
00016168  __covrec_75CA07728912D96A                                      
00007120  __covrec_75E3E8E045B77C3                                       
00000ca8  __covrec_75F1BF7FBDDFEB47                                      
00003d90  __covrec_75F48255A7DB16EE                                      
000148b8  __covrec_75FB64B66DD5E76A                                      
0000e4c0  __covrec_75FF3BCF01AD1DCE                                      
00021540  __covrec_76005DD8045CA6C7                                      
0000dcc8  __covrec_763DF4557E4E5E72                                      
000169d8  __covrec_76423D926B492CE3                                      
0000a0c8  __covrec_7642F55933F834AD                                      
0001f830  __covrec_7685458E80E8A2D2                                      
00001068  __covrec_76904C01277EB08D                                      
0001ad80  __covrec_76BFC2F890E06982                                      
0001e368  __covrec_76C6D32727707ADB                                      
00007bc0  __covrec_76D4C9D79366C347                                      
000014f0  __covrec_76E4256734D158F0                                      
00008e58  __covrec_76FA1361CF01BDA3                                      
0001ac68  __covrec_76FC9DC6CB6982D7                                      
000219f0  __covrec_774A4E1A5C324926                                      
00005f00  __covrec_778D7F40FA03F2E9                                      
0001ed40  __covrec_779E9B22FDEB9E7                                       
0000ec18  __covrec_77AFE7D5BE45A231                                      
0001c5e0  __covrec_77B146EB680865E2                                      
00022d00  __covrec_77B258A86F68171D                                      
0001dc88  __covrec_77BF2B308B7AA166                                      
0001c040  __covrec_77E1BD519443848D                                      
00012480  __covrec_77E8D9E82E558C56                                      
0000a690  __covrec_77EC49B74F3623B4                                      
00020898  __covrec_7804D09EC0E20B29                                      
0000e628  __covrec_780EF97DE54A250A                                      
0000fb18  __covrec_780F2DA8DE31FC9E                                      
00019188  __covrec_782F9C97EE527F96                                      
00008cf0  __covrec_78368865D6205216                                      
00006b30  __covrec_78426C8A160B6351                                      
0000b090  __covrec_7849C203D9D4558A                                      
00011648  __covrec_784B640CB8E108BA                                      
000043f8  __covrec_78597822E22CC415                                      
0000fb40  __covrec_786C1CC0E1F24C6C                                      
00017810  __covrec_788DF734B05BEA61                                      
00000af0  __covrec_78A6620B2B654D40                                      
00003840  __covrec_78AD70B3007626BA                                      
0000de80  __covrec_78BBAA4C0B416C21                                      
00021ef0  __covrec_78CB2DBB3CEEA65C                                      
00014f98  __covrec_78D0707EFB176809                                      
00007058  __covrec_78E44053E051208B                                      
00020208  __covrec_78F02359C9C9068D                                      
0000f668  __covrec_78F30011E96A5C42                                      
000047e0  __covrec_79080B738D71DCA0                                      
00023a70  __covrec_790FBDD382E2AE56                                      
00004880  __covrec_79177773D074D56A                                      
00015088  __covrec_791E0D39970C6A5B                                      
00023a98  __covrec_7943045BADE8A3BE                                      
0001ce50  __covrec_7943099773514106                                      
0001bb90  __covrec_7948025A945CC6C9                                      
00007c88  __covrec_79483E28CA94B7B7                                      
0001e1b0  __covrec_7966E82F62F0217A                                      
000075d0  __covrec_7970AA4372F62F23                                      
0001b820  __covrec_7976D165A8E3CC71                                      
00014d40  __covrec_7991082D2652D1E1                                      
0000ae88  __covrec_79B455E75A91963                                       
0000e380  __covrec_79B4F91832129CA6                                      
0001eb10  __covrec_79BE9C17BC8DE2E7                                      
0001e390  __covrec_79CB816ABFED6F45                                      
00004c68  __covrec_79D6AA16F231D6E                                       
00005910  __covrec_79E89AE24E1E33A3                                      
0001d6c0  __covrec_79F44726F264D702                                      
00024970  __covrec_79F658208F2C30E                                       
0000f370  __covrec_7A067878B7FDE586                                      
00001db0  __covrec_7A071E65D3316B74                                      
000113a0  __covrec_7A0EA898D56D0CFC                                      
00024ee8  __covrec_7A1E5955D98B3365                                      
0001a6a0  __covrec_7A5524D5B2A1507                                       
00017540  __covrec_7A62F246430B8BA6                                      
00021f68  __covrec_7A6864C975AFD43A                                      
0000a488  __covrec_7A9B0D8ED1CC3EDE                                      
00001018  __covrec_7A9D5D7B9AB5F84B                                      
0000f190  __covrec_7AA1C05CED579EC5                                      
00014ed0  __covrec_7AB5EC5CA304F34C                                      
0000ceb8  __covrec_7AC6F1147BA12A69                                      
0001dd28  __covrec_7ACB1A272B40693                                       
000065e0  __covrec_7ACF2422A306985E                                      
000251b8  __covrec_7AD1CB521B3DAFF3                                      
00021518  __covrec_7AD7E5C95ACBDBA3                                      
00016f50  __covrec_7AE45E996D9746BD                                      
000193b8  __covrec_7AE53C30D68284AD                                      
0001a240  __covrec_7AEC8451FEC3E6FC                                      
0000c580  __covrec_7AF5297569FCAA08                                      
000120e8  __covrec_7B0291F67719FE1E                                      
00021630  __covrec_7B033E8B1F72CB44                                      
00001888  __covrec_7B0D1997C0B96950                                      
00022878  __covrec_7B1A2728A73A8141                                      
000043d0  __covrec_7B1BF4E8C50F2A0D                                      
00010090  __covrec_7B424DF0B25FFF2D                                      
000034f8  __covrec_7B4F680C24B702F2                                      
00005820  __covrec_7B7E33D7E8902EE6                                      
00019688  __covrec_7B81BFEE7C3DB0BF                                      
00019d90  __covrec_7B9F36D0482CEDAA                                      
00002f08  __covrec_7BB562F45E0D5B23                                      
000124f8  __covrec_7BCD1EAB9F4C3537                                      
00020b90  __covrec_7BCF5860B55A2A0E                                      
00007620  __covrec_7BCFB99D45157AF6                                      
000219a0  __covrec_7BDB55ADE659A11B                                      
000067c0  __covrec_7BEAFE9253C2DC91                                      
00025a28  __covrec_7BF1D83AB8F4CFBF                                      
0000db38  __covrec_7BF25F52501F5463                                      
00006db0  __covrec_7C1807FD8A2400E0                                      
00017338  __covrec_7C1DB501B4559706                                      
00011a80  __covrec_7C742A04106EA598                                      
00018be8  __covrec_7C7528DD92F49704                                      
0000ee48  __covrec_7CE52103876A38E8                                      
00013cd8  __covrec_7CF3A258CE90A1E7                                      
0001fa10  __covrec_7CFB78B4481CE78F                                      
000094c0  __covrec_7D0DD1100E5C3292                                      
0001a768  __covrec_7D21AE2875C7107D                                      
00014368  __covrec_7D2F86AA578C2D6                                       
00022738  __covrec_7D3E02CA245C9D0B                                      
00012548  __covrec_7D40DEB2329FBEA7                                      
0001f5b0  __covrec_7D417B48FB287AFA                                      
00009d80  __covrec_7D42ED8A1849121                                       
0000c738  __covrec_7D4D287D0E89CC67                                      
00023a48  __covrec_7D5823DFEC630389                                      
000076e8  __covrec_7D5CB73C05FC6F34                                      
0001c388  __covrec_7D5D6B0F6FB993F2                                      
000107c0  __covrec_7D622BAF5C1DD492                                      
00018080  __covrec_7D67AC603694ECA4                                      
0000c120  __covrec_7D68043D64CDCF90                                      
00016938  __covrec_7D69EFF2AD60D20F                                      
000162a8  __covrec_7D81F406BC820BA8                                      
0000f2d0  __covrec_7DA2BD1290B5E601                                      
00025758  __covrec_7DBDF2FBACAB5A71                                      
000231d8  __covrec_7DCC84C9A1247D3F                                      
0000b860  __covrec_7DEA2A08886235ED                                      
000042b8  __covrec_7E094802DB2C7872                                      
00020668  __covrec_7E272848AC708089                                      
0000a7f8  __covrec_7E376119588B9530                                      
00005870  __covrec_7E3C84C442B06ADC                                      
00015f38  __covrec_7E4CFA2060B17E34                                      
00009560  __covrec_7E4E238AD334240D                                      
00000c30  __covrec_7E833D27BC76F69                                       
00010b30  __covrec_7E8D5D9947CB4DEB                                      
000189e0  __covrec_7EAD03CF60329357                                      
0000f988  __covrec_7EF36698A1E34789                                      
0001c428  __covrec_7F35E53EAA3BEBFA                                      
0000eab0  __covrec_7F39F8D4F7AA2194                                      
0001f5d8  __covrec_7F44F1B81D7192A6                                      
00010360  __covrec_7F52CB605BDD2FE                                       
000014c8  __covrec_7F5390900BC1E039                                      
00024920  __covrec_7F67FF98045241CA                                      
0001d0a8  __covrec_7F7B083B204C772D                                      
00018dc8  __covrec_7F7D43C843110954                                      
00019ae8  __covrec_7F98D48783437BBA                                      
00024718  __covrec_7FEBF2C2A75DD9FE                                      
0001d2b0  __covrec_8029175C46B439DF                                      
00005988  __covrec_8040F2CFD3D473A4                                      
0000dc28  __covrec_80440FC7E70A608E                                      
00015ba0  __covrec_8048B7E90F069F19                                      
00023ac0  __covrec_80643D14F53D5DEF                                      
00014048  __covrec_806E27EAF0C11794                                      
0000bdb0  __covrec_8073F98D4C5CB220                                      
00016e60  __covrec_80963880AAF3E7F7                                      
0000c2b0  __covrec_80A20283D33EB74C                                      
0000ab68  __covrec_80A35A396107311D                                      
00011ee0  __covrec_80A470E2383756C7                                      
00014c50  __covrec_80BEC89A48089893                                      
000207a8  __covrec_80D7B048A9ABFABD                                      
000030e8  __covrec_80DCCF459AA832D6                                      
00004858  __covrec_80EFDD160ECC63A5                                      
00011c10  __covrec_80F12DDB53016D40                                      
0001ddc8  __covrec_80F2C1F92EC56A84                                      
0001cfe0  __covrec_80F9C78B0D5D4786                                      
0000c4b8  __covrec_80FAC2C06823F74B                                      
00010338  __covrec_80FD584348984E04                                      
000070a8  __covrec_80FFFF73B4ABC887                                      
00006cc0  __covrec_810D579CAA1E6A5D                                      
000239d0  __covrec_8117D7C2AFE9E6B9                                      
00002878  __covrec_81193C19F1226052                                      
0000b9f0  __covrec_811ED8DACF2F0A4C                                      
0000ed30  __covrec_811F42F540BF9F2A                                      
00012570  __covrec_812471B10D40FFA1                                      
0001e4d0  __covrec_813D7B8832D2F26A                                      
0000a118  __covrec_813E893FC027E207                                      
0000ab18  __covrec_81467A257584C92B                                      
00017ea0  __covrec_8152689314B0A3D4                                      
00015560  __covrec_8173293A6B2F7F0B                                      
0000f690  __covrec_81785CEA135AD10E                                      
0001c6a8  __covrec_817BA9F169630E69                                      
0000da70  __covrec_817DA88F4397C3F0                                      
0001aee8  __covrec_81941B8C1674FACE                                      
00008728  __covrec_8196FC9DDEF99D32                                      
0000dac0  __covrec_81D9214AFD4BDAC9                                      
0001cf68  __covrec_81DB0EAEAA6C9AC7                                      
0001c3d8  __covrec_81DC2709F5752D10                                      
00011210  __covrec_81F37EBCBF637F88                                      
0000c468  __covrec_81F4A0B0F22321B5                                      
00021068  __covrec_8219E03C76788114                                      
0001d490  __covrec_821AC6B04AADEFA7                                      
0000d278  __covrec_822640F61646CC5D                                      
00013990  __covrec_823235607775D0B6                                      
00003390  __covrec_823F1D2457AF8D4E                                      
00009ec0  __covrec_825B61DE411E2061                                      
000107e8  __covrec_825BEE18E61FC99A                                      
00001ea0  __covrec_826D827693E26F8E                                      
00018a30  __covrec_827E0C7F0CBF25DA                                      
00016870  __covrec_8295F0DF17E4CE0F                                      
00002378  __covrec_82D68F70652044A4                                      
000069c8  __covrec_82D6940BA8D59531                                      
0000efd8  __covrec_82FF712195CADFA0                                      
000165f0  __covrec_8300018ED0D8F21                                       
00015380  __covrec_830F01A5800B0926                                      
000032f0  __covrec_831A63E7C251114F                                      
00000e10  __covrec_831E1A4E4267625                                       
000068b0  __covrec_831EB062A57A0618                                      
00017cc0  __covrec_832335FE96674384                                      
0000edd0  __covrec_832A43C86DB40C1D                                      
0000d9f8  __covrec_8334D045F180AF32                                      
00012598  __covrec_8348022D202C8AC0                                      
00009920  __covrec_83A7E935CDCDEF7A                                      
0001e700  __covrec_83D7C9B6BE769081                                      
00002b48  __covrec_83FC5939804F48BE                                      
000017e8  __covrec_843E4D1E9BF6B555                                      
0001fb28  __covrec_84422CE8BBD08E66                                      
000109f0  __covrec_845FD839DBC7C1AF                                      
0000a8c0  __covrec_848A2C0F944BCCE0                                      
00015d30  __covrec_84B11F4F886E306C                                      
0000f898  __covrec_84B2FD790164F848                                      
0000eee8  __covrec_84B49415AF1868AF                                      
00021a90  __covrec_84B9F075B08D151B                                      
00015790  __covrec_84CA99D8A6B2C680                                      
0000ea38  __covrec_84D04A2932D868E1                                      
0001bde8  __covrec_84D367DABCCCAA84                                      
00005d98  __covrec_84E26731CB5A9EAC                                      
000129d0  __covrec_84E4A0057FAD0A59u                                     
0001e868  __covrec_84E62DA7D731097F                                      
00024100  __covrec_84F1999EBCAA3AAF                                      
000221e8  __covrec_8530663F06A7FC3                                       
00002990  __covrec_8546DDDFA9C4DAA6                                      
00016960  __covrec_854AE0C856152B7B                                      
00015060  __covrec_855510F4B48B33C0                                      
00009970  __covrec_856B515851EDB492                                      
000053e8  __covrec_858246B40FF97B3A                                      
00020578  __covrec_8586C0F37F331B9F                                      
0000ba40  __covrec_8589C79F6871C223                                      
00020cd0  __covrec_858A43DC59E181                                        
000228a0  __covrec_858BC9291BE47BE8                                      
00025500  __covrec_8598A37534AAD4EC                                      
00007e18  __covrec_859E28C748FFE64C                                      
0001b488  __covrec_85B3FC139DDEAB6F                                      
000050f0  __covrec_85D07076A9880596                                      
00021860  __covrec_85E7F86F55C854E3                                      
0001d878  __covrec_86015F450193C2F5                                      
000205f0  __covrec_8613999178529592                                      
0000c030  __covrec_861ECA2F7740943D                                      
00004df8  __covrec_862F74E5EAEB7D2C                                      
0001d5a8  __covrec_864E9C4A9E5BFA1C                                      
000170b8  __covrec_8653C82738280B4D                                      
00006d38  __covrec_8656F45CC3A9BD8D                                      
00023570  __covrec_86814B2BF1E495FB                                      
00016aa0  __covrec_86A31914229863AB                                      
0001d530  __covrec_86A9842033F7AB88                                      
00002e68  __covrec_86BE7AAE5C9A1D91                                      
000253c0  __covrec_86E252CE056F25B7                                      
000142a0  __covrec_86E2D63847DC13CC                                      
00015df8  __covrec_86EE060828C313A6                                      
00006e50  __covrec_86EFB8D70E3195D9                                      
00011f58  __covrec_871145ED86CD1F0                                       
0001c540  __covrec_871E87F03CAB2389                                      
00012958  __covrec_87407FA9A44A40A2u                                     
000118f0  __covrec_87AAEC4718B9F8AC                                      
0000d318  __covrec_87B54D9AAE31261B                                      
0001abf0  __covrec_87C7BEA2BB1A399                                       
00002620  __covrec_87C9BEA1359FC9A0                                      
00025168  __covrec_87CD4E00745F9F73                                      
00004038  __covrec_87E2C683173C05DA                                      
0001e430  __covrec_87EE54EA8ACB8E60                                      
0000b4f0  __covrec_87F49CE40477D202                                      
00008ed0  __covrec_8813AE4156258C77                                      
00000a28  __covrec_8833BE5CC8D8CD39                                      
00006798  __covrec_883C1BD346B3B6A7                                      
0000bd60  __covrec_8863A4DB3AC090CF                                      
00003ed0  __covrec_887A079051E440D0                                      
00016078  __covrec_888167F87ACFFA2B                                      
00019bb0  __covrec_8896EB92673653A                                       
00003368  __covrec_889A5AA5ACC834CB                                      
00008408  __covrec_889B730B19F33BB5                                      
0001f010  __covrec_889DF2E2FA47FC97                                      
000080c0  __covrec_88AFBC48C36297DD                                      
00020500  __covrec_88B24ACA7C5A8763                                      
00011260  __covrec_88D20376481FF100                                      
00025af0  __covrec_88FBF1FF9FE587F0                                      
00009ab0  __covrec_89030C179EB9C81C                                      
0000a230  __covrec_890AAC5CB222EC4D                                      
00024380  __covrec_892C75A8C8091D3C                                      
0000ab40  __covrec_892CE1FEF10A5D0D                                      
0001d760  __covrec_896321F5D1CAF43D                                      
00023610  __covrec_896C3ECE75394852                                      
0000da48  __covrec_89A03468FB70BAED                                      
0001bc30  __covrec_89D5BF1313435B47                                      
00024178  __covrec_89D9887558693A8B                                      
00006a40  __covrec_89DB25962A5EB408                                      
00014070  __covrec_8A0205EA0F164286                                      
00003f48  __covrec_8A1E5EF64B22B12B                                      
00009da8  __covrec_8A1F9CA0D4334F06                                      
000177e8  __covrec_8A272A984A0DDA3A                                      
00010630  __covrec_8A28EF8B3F240F7D                                      
0001f088  __covrec_8A3BB11C8B6B95D4                                      
0000bb08  __covrec_8A5792BFD162766B                                      
000189b8  __covrec_8A58AEE03F607402                                      
00013968  __covrec_8A59311EC687160A                                      
00000e38  __covrec_8A64EB646297B7C9                                      
0001d940  __covrec_8A6EEF93FA7ED423                                      
00000030  __covrec_8A9FB042CC4F2B10u                                     
00015ce0  __covrec_8AA51AA9FB9B0746                                      
00002198  __covrec_8ADC157C3BA0D74                                       
00018b20  __covrec_8AE157B479B66F5D                                      
0000c1c0  __covrec_8AE8A728D35176EE                                      
00002148  __covrec_8B1AB1F5C66D6D39                                      
000235e8  __covrec_8B1B42DC82413935                                      
0001f240  __covrec_8B1F6F08D6C4DC4C                                      
00008ac0  __covrec_8B3C2D954ED0BA75                                      
00009bf0  __covrec_8B4A5432F640F7CC                                      
00015998  __covrec_8B5B1011C3852C64                                      
000016a8  __covrec_8B65E50AD9B90CB2                                      
0000cf08  __covrec_8B74CFDA35A78F8A                                      
00010a90  __covrec_8B753A5C478F8754                                      
000114b8  __covrec_8B9A3DF1DFB13D5                                       
00005640  __covrec_8BA3D2C2EDECD73D                                      
00000d98  __covrec_8BB0E9BD6752B68F                                      
00009420  __covrec_8BCACFC8A7CAB002                                      
0000ff28  __covrec_8BDFCF1999B7FA38                                      
00007d00  __covrec_8BE10D2019571717                                      
00020d98  __covrec_8BE1A7154264C8D1                                      
0001b988  __covrec_8BE6CDBFAA4E26ED                                      
000047b8  __covrec_8BE702C3BEFDEA81                                      
00006838  __covrec_8C3011EFB7930608                                      
000019f0  __covrec_8C68376B81A654D                                       
0000d048  __covrec_8C7B9AC84A1290D6                                      
000167a8  __covrec_8C86CA64ED75E0FE                                      
0000a7d0  __covrec_8CC132A12E67D303                                      
00000f50  __covrec_8CC88C2980D5E8E7                                      
0001eb38  __covrec_8CCA9B6BB9866BCD                                      
0000aeb0  __covrec_8CCB7565812889A7                                      
0001c158  __covrec_8CD71FB7DA8C4BC5                                      
000019a0  __covrec_8D041F01DCFF76E9                                      
00006540  __covrec_8D17775B98F2D331                                      
000151c8  __covrec_8D17B07E7B49790B                                      
00005cd0  __covrec_8D1AA427298D1344                                      
00005960  __covrec_8D4838020815225E                                      
00011878  __covrec_8D541966D9D56E19                                      
00020e88  __covrec_8D56EB6F97155EE7                                      
00007ad0  __covrec_8D6FF92E7B672D3F                                      
0000b248  __covrec_8D824999EFBDB130                                      
00011620  __covrec_8D90CBB889ED1FE5                                      
0000ebf0  __covrec_8D95D35639606030                                      
0000ba90  __covrec_8D9CC3D5970D5F2                                       
000091f0  __covrec_8DA516C1E6826A9E                                      
00000478  __covrec_8DCACE79A3C220A9u                                     
000207f8  __covrec_8DD6855AC9D8D313                                      
0001c018  __covrec_8DE206A5BE60E29F                                      
00005ca8  __covrec_8DFC72E8925CC73                                       
0000e178  __covrec_8DFE773213DB51DE                                      
0000e600  __covrec_8E0C3A5E8D1D8B34                                      
0000d8b8  __covrec_8E0D2AC8B7B51C20                                      
00005a28  __covrec_8E0F7C647D51BFD2                                      
000171f8  __covrec_8E1127F4FEB2801                                       
0000b040  __covrec_8E12A2008EF3ABE8                                      
000243d0  __covrec_8E3E3C9A339C6DEC                                      
0001a678  __covrec_8E3EC7A70BC5778F                                      
0001aab0  __covrec_8EA27A01C2F21F20                                      
0000fcd0  __covrec_8EA5F89D745F0C6A                                      
0000f500  __covrec_8EB22456CBE7DB26                                      
000066f8  __covrec_8EBE3C0B375841A4                                      
00002a58  __covrec_8EE48BF767F05E71                                      
000023f0  __covrec_8EF895267F5CDD60                                      
0000ec68  __covrec_8F001A8FBE0D0EA1                                      
00008cc8  __covrec_8F06D388B748E7A8                                      
0000ae38  __covrec_8F284A69A811272                                       
000202a8  __covrec_8F2B63EAE12836CC                                      
00021a40  __covrec_8F3B26EFA075A4                                        
0001edb8  __covrec_8F4E9C4650FFC024                                      
0001b7a8  __covrec_8F54CD72C77EE516                                      
0001add0  __covrec_8F778F5EA723F79E                                      
00024808  __covrec_8F93694E6F68751B                                      
0001ab50  __covrec_8F974480A740784C                                      
00008138  __covrec_8FA27FFC6507F02D                                      
000176a8  __covrec_8FA2AB8D12473AEC                                      
000247b8  __covrec_8FC3C495D6C97B26                                      
000187b0  __covrec_8FF4C2911372692D                                      
00019840  __covrec_90156D73DFE83232                                      
000023a0  __covrec_904ACE8D0D9342BF                                      
0001d468  __covrec_904B8AA7FE47CD65                                      
00018af8  __covrec_9058FE35C8B8C1B5                                      
0000e5d8  __covrec_905E63600D3955D3                                      
0000bb30  __covrec_9071575618984415                                      
0001f0b0  __covrec_909B1ED38439278D                                      
00023930  __covrec_90A2D6AD97D3FA2D                                      
00019ea8  __covrec_90A4251D3621B51F                                      
0001ec28  __covrec_90B6A7A0F52B09BF                                      
000005c8  __covrec_90C9B803289D8B5Bu                                     
0001ec78  __covrec_90CD520EB5E56147                                      
000104a0  __covrec_90CD5B778C8D157F                                      
0000bf90  __covrec_90D55D76C1B40953                                      
000245b0  __covrec_90D560C6CF4A9229                                      
0000e9e8  __covrec_90DCF7F79E49CAAC                                      
00003c50  __covrec_910A6D471848A06A                                      
00025348  __covrec_910CBCBB828F55C9                                      
0001e0c0  __covrec_9111C07A96D0EDE0                                      
0000e7e0  __covrec_91246371028CE229                                      
0000c328  __covrec_91268A0619F1717E                                      
0001cae0  __covrec_913928F0AF0B95A2                                      
000127f0  __covrec_913EA166209F947B                                      
0000db88  __covrec_914E974F02E5E35B                                      
00014750  __covrec_91507A5FC4C00B7B                                      
0000a938  __covrec_91615256E6397B28                                      
00019048  __covrec_9168BB0C5C35681C                                      
00020370  __covrec_916F668956097392                                      
00011350  __covrec_916FF1DCA6C18374                                      
00019ef8  __covrec_91779EF8E422B94D                                      
00007968  __covrec_9189174E9CA856EE                                      
0001f7e0  __covrec_9191F4FBCFAAD31C                                      
00024088  __covrec_9199C026249538B0                                      
00008160  __covrec_91A85A47E46E837B                                      
00018e90  __covrec_91B3C243A8EABB95                                      
0001d990  __covrec_91B6E54A23A3BC                                        
000149d0  __covrec_91BE17FADC2CE6A1                                      
00009f60  __covrec_91CF93C22BDB4813                                      
0001c270  __covrec_91D9BAC16815EB2C                                      
0001e908  __covrec_91E79F6BD4573139                                      
00025140  __covrec_91F3676C63BCF634                                      
00004970  __covrec_920260ADD4BAECEC                                      
0000c378  __covrec_92053EA39EF00CBD                                      
000244e8  __covrec_9226815665E48C36                                      
00010db0  __covrec_922DA92A28304F0F                                      
00005b18  __covrec_9255662AF750EBBF                                      
0000b2e8  __covrec_9256D4F3A2C9619B                                      
000011d0  __covrec_927B310F26D3C792                                      
00020d48  __covrec_927D1FAC8F867C5C                                      
0001f4c0  __covrec_927D300803BA961F                                      
000200f0  __covrec_9281FF1453311680                                      
00021130  __covrec_92988617408E3EAD                                      
000052f8  __covrec_929C3D7BA5E7A98D                                      
00006c20  __covrec_92B52E0B3366C97                                       
00014ea8  __covrec_92BD0218D0C57059                                      
0001bb18  __covrec_92C9DAA9C9EEC587                                      
00022a58  __covrec_92E200D9276E9513                                      
00016190  __covrec_92E4DDA47787D579                                      
00025848  __covrec_92F0DE80E0B56981                                      
0001b168  __covrec_93281C0AD5F1794E                                      
000044c0  __covrec_9329FD48AB2E1274                                      
0000e650  __covrec_932E0709331E6B6B                                      
00023c50  __covrec_933AA01CC1C5EA73                                      
00003020  __covrec_934A4CFD323FFCEA                                      
0000f7a8  __covrec_935E5F4BC12023D3                                      
00023700  __covrec_9361484BBF0A0B3B                                      
000010e0  __covrec_9371DF3BA7A24845                                      
0000d610  __covrec_9384DA28BA881739                                      
00015290  __covrec_9393A19D803D6CE6                                      
00020af0  __covrec_93A14ACB27AEFF78                                      
00003ca0  __covrec_93AB60BEB75C916D                                      
000013d8  __covrec_93B792D30284781D                                      
00016dc0  __covrec_93DEF36EBC4241DA                                      
0001a4c0  __covrec_9406CD59AF2AADBA                                      
000206e0  __covrec_9414153C688715A1                                      
0000c648  __covrec_9446C51CC8E8E80F                                      
00005de8  __covrec_9455C9786A09CB57                                      
00001798  __covrec_945B320FDD26C251                                      
0000b5b8  __covrec_945ECCD4F2946F36                                      
0000e8a8  __covrec_94630ABCD1F71558                                      
0000b1d0  __covrec_947018608C3D9167                                      
00015740  __covrec_94705A8B47CC3541                                      
00009d30  __covrec_948B551B6988013C                                      
0001e890  __covrec_9493695F91E5C831                                      
0001da08  __covrec_949631A9DD75F5F3                                      
00015f88  __covrec_94AAA8B74E2E3AC9                                      
000141b0  __covrec_94CDB1A09E22B70F                                      
0001eb60  __covrec_94DABB20B1E15972                                      
0001f9c0  __covrec_94E076E5B633FDB9                                      
00003e58  __covrec_94E6AF6193706E7F                                      
0001e3e0  __covrec_94F65D8E0CB01A01                                      
0000ac30  __covrec_94FC025036BEDEC0                                      
00013d00  __covrec_95045BBE0FFC0B80                                      
0001d418  __covrec_951047D4C1E2E631                                      
0000f230  __covrec_9517842FD8D805A0                                      
000234f8  __covrec_951DF02D6CBC155E                                      
00020e60  __covrec_952365B15D689F7F                                      
0001b6e0  __covrec_9535FE2DE4142575                                      
00023908  __covrec_9544E34820FFB143                                      
00009830  __covrec_954D554981613485                                      
00020960  __covrec_95587E91B4CB0C7E                                      
00021310  __covrec_955B34D236117C9B                                      
0000ac80  __covrec_9592186C0C7D6FA5                                      
0001ed18  __covrec_959EBC5BF621F668                                      
00016000  __covrec_95CD4FFFC8C09349                                      
00008e80  __covrec_95D71764A59AEC27                                      
00004fb0  __covrec_960AA1E8FBB5B563                                      
000004c8  __covrec_9613F930BEF71DDDu                                     
0001c478  __covrec_962F48C523331602                                      
0001ec00  __covrec_963270261C68F670                                      
000039d0  __covrec_9637A9217038C34B                                      
00021770  __covrec_9654EC1A6E78C2DF                                      
0000ef10  __covrec_965CD31C1298714E                                      
0001dff8  __covrec_965EAF1D1C957DB0                                      
000009b0  __covrec_9672CC8BFCA5E55F                                      
0000d3e0  __covrec_96777DB40E8EF14                                       
00009150  __covrec_967BFC98B61002E2                                      
0000cbe8  __covrec_967F9D7DA7B29977                                      
00002710  __covrec_9684DC37DE1EE5D0                                      
00014e08  __covrec_968BF711C53DCBB1                                      
0001ae98  __covrec_9691942A2BEFE973                                      
0001c928  __covrec_969329555EB07313                                      
0000b220  __covrec_969B534D19665BDF                                      
00006158  __covrec_96AA8D61B3A8DA35                                      
000153d0  __covrec_96AB09F734ACBF49                                      
000079b8  __covrec_96AE1425C6CA1E9C                                      
000014a0  __covrec_96B898C1AEF5ABFE                                      
0001e958  __covrec_96C729A5B9B432AC                                      
000148e0  __covrec_96E3996A1D8BFEE6                                      
00011148  __covrec_96FA237B6317939A                                      
000057a8  __covrec_9712907A002D60F7                                      
0001a510  __covrec_9717C6EA5E03ED15                                      
0000a820  __covrec_97505DF3A3ED9895                                      
00019c50  __covrec_978E23EC5C1BBCEE                                      
00003a48  __covrec_97A00561A864863A                                      
00009588  __covrec_97BE04EE290C2F02                                      
0001a448  __covrec_97D162466D9B3161                                      
00001e00  __covrec_97FE914C95D2847E                                      
00022580  __covrec_98070E85DA1EB4CD                                      
0001a100  __covrec_980B5B6F16545696                                      
00007fd0  __covrec_981A9F8688DAB97D                                      
0000a8e8  __covrec_982466CC2ACC15EC                                      
00001ec8  __covrec_982A03B6F4015226                                      
000098f8  __covrec_984F02E3E0699504                                      
0000a000  __covrec_9852984F812F872E                                      
00010c20  __covrec_986BD29BFA975C74                                      
00010248  __covrec_986C114E42E8D05C                                      
00016a50  __covrec_9875C4C2C4AE4EDE                                      
0000af78  __covrec_988A11D4D2F16FBF                                      
0000da98  __covrec_988B02AB6E77D263                                      
0001c1f8  __covrec_9896B35EBDF3EC0E                                      
00022b48  __covrec_98A844D02FACEB98                                      
00000d48  __covrec_98A9B8719202C524                                      
00015cb8  __covrec_98B98281EDEF7B92                                      
00015858  __covrec_98C3296CFB84FD3B                                      
0000a280  __covrec_98CE03280FE13541                                      
0000d2c8  __covrec_98E619A5BCB11368                                      
0001d8c8  __covrec_98F0E9ED91133C1B                                      
0001dbe8  __covrec_98FD82A883A4AF09                                      
00016cf8  __covrec_9907BADB2895D69F                                      
0000d228  __covrec_991F8D3FEEE781EF                                      
0000e830  __covrec_99389F241C65C1B8                                      
00010e78  __covrec_993A6E8B0790B7DA                                      
00011a08  __covrec_99409FA97391397F                                      
0001e098  __covrec_9949679EA50BED96                                      
000220f8  __covrec_994F7C80C1B83BAB                                      
0000fe10  __covrec_9971090978BE6753                                      
00002648  __covrec_99723926C2A9DDD1                                      
00012408  __covrec_9988F745693DE43F                                      
00005c58  __covrec_99992A15E457B36F                                      
0001c450  __covrec_99A262E347526819                                      
0001a010  __covrec_99CE82E85CDE569B                                      
00024ad8  __covrec_99D4B0D580C3027B                                      
00013aa8  __covrec_9A1D3965CC9FBFB7                                      
00009e98  __covrec_9A40F604B5DC964B                                      
000007f8  __covrec_9A4402462CFB25DF                                      
00025258  __covrec_9A519D51D30C4CF0                                      
00023048  __covrec_9A634937847BD843                                      
0000a5c8  __covrec_9A82C2E58801D4EB                                      
00014f48  __covrec_9A9721AFABEF071A                                      
000140e8  __covrec_9A99124CE503DA7C                                      
00015678  __covrec_9AA786A0732AF5F2                                      
0000b770  __covrec_9AAB0F09D0C7B1A3                                      
0001e2a0  __covrec_9AB52AEEB6547FD5                                      
00004ab0  __covrec_9AC3CF09EF2C674                                       
00019250  __covrec_9B520560E2FA555B                                      
0001a7b8  __covrec_9B574839ABB5D29D                                      
0000d7f0  __covrec_9B5D5C9A185C05A3                                      
000185d0  __covrec_9B78ADDBCDA9AFD                                       
00008c78  __covrec_9B85596B8A1AE901                                      
00010928  __covrec_9B8C2CA9195D8A89                                      
00023ea8  __covrec_9B8E52DC13F8EB3                                       
00003ae8  __covrec_9BB5C9E7D8F22F76                                      
00010810  __covrec_9BDFC8677807B4A8                                      
00012138  __covrec_9BE0DEA223C84842                                      
00001dd8  __covrec_9BED06F3F05054A7                                      
000111e8  __covrec_9BF50A7EEF665123                                      
0001a3a8  __covrec_9C009BC7D5FF752B                                      
00015bf0  __covrec_9C0D8759D4DEDC3                                       
000128b8  __covrec_9C1F00C8590A33A7                                      
00005460  __covrec_9C2775F1FB7FD0B3                                      
00019e30  __covrec_9C28C0200233DDB6                                      
00004678  __covrec_9C553D2B368997E4                                      
000103d8  __covrec_9C5548CB9C402249                                      
000044e8  __covrec_9C5BA9E739FA244E                                      
00019958  __covrec_9C62E95910F41F53                                      
00024a38  __covrec_9C6938ABE4187AF2                                      
00014480  __covrec_9C726F32BEDB8827                                      
0000efb0  __covrec_9C7E4780112F9DD4                                      
00011b70  __covrec_9C82DD3C630C958E                                      
0000f6e0  __covrec_9C873B56BD4E64FA                                      
000206b8  __covrec_9C8E6B302F51A393                                      
00006bf8  __covrec_9C93726BBC48186D                                      
00014a98  __covrec_9C947AA69AD7E9AA                                      
00009448  __covrec_9CB452459D1C403B                                      
0001e188  __covrec_9CD5949BC6A9B74                                       
00007148  __covrec_9CDBAE3A4C8F2B61                                      
0000fc80  __covrec_9CDCF4ABBCDB66CE                                      
00001978  __covrec_9CE83C69FDCAB33F                                      
00017d60  __covrec_9CEF540007AA01F4                                      
0001b050  __covrec_9CF1F58CBE286653                                      
00019cf0  __covrec_9D0B85D63B1B98F2                                      
00017b08  __covrec_9D1D521A3EAECBD9                                      
000024e0  __covrec_9D61967B1604A9FF                                      
0000d750  __covrec_9D65C69103DC9EE1                                      
00025028  __covrec_9D7D9F2A3390F84A                                      
00012228  __covrec_9D7FE2815054410B                                      
00012048  __covrec_9D8BCDECE7C49ABE                                      
000238b8  __covrec_9D93BACCE8022D7B                                      
0000c170  __covrec_9DA8AA09702AC6CE                                      
0001a970  __covrec_9DB4134AA83064E2                                      
0000e268  __covrec_9DBD17518F4E29C3                                      
000218b0  __covrec_9DBD6AFEA000CEA1                                      
0001d030  __covrec_9DC76352B1EF6830                                      
0000c3c8  __covrec_9DCFB323BA939264                                      
000081d8  __covrec_9DD34F2822473557                                      
0001f2e0  __covrec_9DD6818BB3CAB7FD                                      
000160c8  __covrec_9DDB1351B2231DC                                       
00008098  __covrec_9E26C402F00A2F32                                      
00018fa8  __covrec_9E46B3DFC2D081B0                                      
0001b3c0  __covrec_9E482121AF2457EF                                      
00007a80  __covrec_9E55FF8E109C4C33                                      
00021810  __covrec_9E5AEB738AB0DD80                                      
00020a00  __covrec_9E5E51CCC01B6BAA                                      
000256e0  __covrec_9E601AC3F09F7726                                      
00014c78  __covrec_9E68BCC55001FBBA                                      
00009330  __covrec_9E7667E7EBD723A3                                      
0000a168  __covrec_9E7D8352594DED0C                                      
00004f10  __covrec_9E844E7AE3CA768E                                      
0000a5f0  __covrec_9E940468EF94664F                                      
0001bf78  __covrec_9E9AEDD0D2A076CE                                      
0000fb90  __covrec_9ECBD043067646A3                                      
000229b8  __covrec_9ED4609E9896A515                                      
0000afa0  __covrec_9ED94584C2643908                                      
000090d8  __covrec_9EDD55D5C8BE933C                                      
0001b938  __covrec_9F1DE8BE59098924                                      
0000f028  __covrec_9F2BD20A1D192943                                      
000027b0  __covrec_9F301B3FF3F09194                                      
00014278  __covrec_9F390F9A46DA5254                                      
0000d868  __covrec_9F3C201AFBFC7771                                      
00022710  __covrec_9F64EAE13880F66A                                      
0001b208  __covrec_9F6DDA3BB7B0062E                                      
00012a60  __covrec_9F7A44C31F30E557u                                     
000196d8  __covrec_9F7C91ACFE60445C                                      
0001a6c8  __covrec_9F892DF363F3043B                                      
00023f70  __covrec_9F9A5660F60265EA                                      
000192c8  __covrec_9FCD216E8F0E5032                                      
00001c48  __covrec_9FD05553BDBB26A0                                      
0000fed8  __covrec_9FD435B6EDB75583                                      
00019f20  __covrec_9FE8CF481895121F                                      
00010428  __covrec_A012943D946C7220                                      
00018030  __covrec_A0187D32C5721B9                                       
00010478  __covrec_A01FF74824829A64                                      
0001fd30  __covrec_A03813BEDF5E14F4                                      
00000be0  __covrec_A04768BF98A46F04                                      
000136c8  __covrec_A04AA94C3C7B06CAu                                     
00009cb8  __covrec_A06516C97CF745F                                       
0001cab8  __covrec_A06A5FD1185B773C                                      
0001a3f8  __covrec_A06DF5B0D3D4AB1A                                      
00008070  __covrec_A0759E883AB3A266                                      
00016c08  __covrec_A07AE0EEF1A25D9C                                      
00011850  __covrec_A085E9CD601672CE                                      
0001b3e8  __covrec_A089426F4BA2A15E                                      
000178d8  __covrec_A0A9F31784F78947                                      
00009880  __covrec_A0D214D928BC709E                                      
00003cc8  __covrec_A0DAA40F9ED6261A                                      
00011a58  __covrec_A0DBB38BB4760AA5                                      
00007238  __covrec_A0EDF6B61594B5D2                                      
00000c80  __covrec_A1138DE5EAE933DC                                      
0000be00  __covrec_A11EC3781DB0FEF3                                      
00016910  __covrec_A120D45210F64316                                      
00019458  __covrec_A129510E27040001                                      
00003980  __covrec_A129DDC39A66AF54                                      
0000c990  __covrec_A13F1F077C7FDC3                                       
00009038  __covrec_A142625DB4946496                                      
000049e8  __covrec_A14E5249FF6D9B73                                      
000060b8  __covrec_A178521A967058F3                                      
00011eb8  __covrec_A18395C77B6C122B                                      
00003ea8  __covrec_A1ADEE0AAE7AB6EF                                      
00022f58  __covrec_A1C60934E124A9F                                       
0001b5a0  __covrec_A1EB8C8A767B83C4                                      
000151a0  __covrec_A20786540F3A4BB                                       
00017130  __covrec_A21601EDA80377EF                                      
000239f8  __covrec_A223BB639C99CE0B                                      
0000b6d0  __covrec_A232361CAB162550                                      
00002580  __covrec_A23437AA47C4156F                                      
0000b900  __covrec_A2445591609CD347                                      
0001f3d0  __covrec_A285E6AEC15F4C28                                      
00024a60  __covrec_A292FDF368EAADBD                                      
00022058  __covrec_A298B97D82E8FB8B                                      
0000d520  __covrec_A2C00EFD24BAB1B8                                      
0001ee80  __covrec_A2DE1CAB7FBBC480                                      
00022a08  __covrec_A310F39BF9257641                                      
00021db0  __covrec_A31215F33F623087                                      
00012368  __covrec_A359454EB6553D3C                                      
00001bd0  __covrec_A35E9CF26F2BDBBC                                      
00012778  __covrec_A3B838279DB1FA53                                      
00011918  __covrec_A3C077298A1EE38                                       
00023188  __covrec_A3C88C414D9627E4                                      
00018c38  __covrec_A3D40676E408B075                                      
00019228  __covrec_A3E70E3E2DE5F78B                                      
0000b6a8  __covrec_A3E9BABFF30D1406                                      
0000b4c8  __covrec_A3F69F3D1A174B83                                      
00004218  __covrec_A423D128DFA778BC                                      
00023b10  __covrec_A4243F0D5D65D9ED                                      
00018760  __covrec_A42D28F0702551B0                                      
0001c608  __covrec_A43501C215C5AE37                                      
000115f8  __covrec_A43679B7CAE7663                                       
00022a30  __covrec_A47BD5D32D974676                                      
0001c5b8  __covrec_A4ACAA00C6F0D5B7                                      
00016be0  __covrec_A4C3EB81AE8933F1                                      
000096f0  __covrec_A4D349F83946625F                                      
00016118  __covrec_A4D9FBEA2F760A03                                      
00008d40  __covrec_A4F309C69DE758AC                                      
0000eb00  __covrec_A509FC975E3FE1D                                       
000214a0  __covrec_A5151049BBC4D380                                      
0001b8c0  __covrec_A5167DC0E29E6FA1                                      
0000b978  __covrec_A525F0238C786183                                      
00011cb0  __covrec_A52E9CCCE269F017                                      
000149f8  __covrec_A5422C07757DE534                                      
0000d930  __covrec_A55C214A5FC44544                                      
000170e0  __covrec_A568E4EF6C684DF7                                      
0001a8a8  __covrec_A56A0099BD6A6484                                      
00008250  __covrec_A56E213FAEA092D9                                      
00001d38  __covrec_A582FD26365EDEB5                                      
0001f498  __covrec_A5958C45AE90FDEB                                      
00000508  __covrec_A5A75A50A6681C5Cu                                     
00004790  __covrec_A5C15D890B087722                                      
00023bb0  __covrec_A5C6B58DA49FE9E7                                      
0001e818  __covrec_A5C8395CDF4785B9                                      
00013ff8  __covrec_A5EB250CC186D90F                                      
000020a8  __covrec_A60CE06FA61792A8                                      
0001bb40  __covrec_A627695BD17235D1                                      
00024f60  __covrec_A639E7B6AA758902                                      
0000a898  __covrec_A6542DEDB8EB9879                                      
00017950  __covrec_A67345E281C30C3B                                      
00020398  __covrec_A6788A00710A51DF                                      
00025050  __covrec_A687C44D6F37972F                                      
0000d458  __covrec_A6927DC5BF881DDC                                      
0001eea8  __covrec_A693A204ED30E6F3                                      
00019e80  __covrec_A69C92B43F1E3766                                      
00014598  __covrec_A6CBECAFB28BAB71                                      
000090b0  __covrec_A6F91C9DE4E92CCF                                      
00013c10  __covrec_A718305FA851DB46                                      
00000740  __covrec_A72580571A0F056Du                                     
000063b0  __covrec_A72768145C3B258D                                      
0000d098  __covrec_A74A9BBECDE04B5E                                      
00025b18  __covrec_A75BA7EC9EC97143                                      
0001fb78  __covrec_A76EC91794EF03FA                                      
00004ec0  __covrec_A78911E3D047929E                                      
000182b0  __covrec_A7895DD68BBE9AE3                                      
000069a0  __covrec_A7959569B6A5A56F                                      
0001ba78  __covrec_A7A57191D2AF602F                                      
0000c260  __covrec_A7B0855D94B2B621                                      
0000e6a0  __covrec_A7B287DE04B3E03                                       
0000b3b0  __covrec_A7E144897978C90C                                      
0000bce8  __covrec_A807F26F4DECD342                                      
00007800  __covrec_A80BD7A623AB578                                       
00000870  __covrec_A817DEA7EA22BFD4                                      
0001d558  __covrec_A81E63E6AD3F3223                                      
000118a0  __covrec_A820663F94339109                                      
00023728  __covrec_A822A0000FFB77A5                                      
00012d00  __covrec_A82648F5D98B7859u                                     
00014160  __covrec_A838B0037E5B820A                                      
00011440  __covrec_A8498A117B23AFC8                                      
000141d8  __covrec_A8618B820C4323C3                                      
00011e68  __covrec_A867A2AB552AD431                                      
0000a438  __covrec_A892DA4DF516689A                                      
0000a848  __covrec_A8A28DA9DA2B412D                                      
00007698  __covrec_A8A70DDF5F2056BA                                      
0000abb8  __covrec_A8B2B5CC8DBF4800                                      
000213d8  __covrec_A8B3D3F49CCAAD0B                                      
0000f618  __covrec_A90175A665803D3A                                      
00014b38  __covrec_A9060A06C91751D4                                      
00013e68  __covrec_A909E1BF84590A7D                                      
000101a8  __covrec_A926C2DA317B08A4                                      
0000b450  __covrec_A92884B33FF83C3F                                      
000183c8  __covrec_A9436DE8AE0FFCAF                                      
00002238  __covrec_A94C22CB595C43D7                                      
00017ce8  __covrec_A95D526D8CBD870C                                      
00012160  __covrec_A974A80756D49DB9                                      
000217e8  __covrec_A9825B320B467145                                      
00020410  __covrec_A9BE2569F0EF3EBB                                      
00011b48  __covrec_A9C700E1C71561D6                                      
0000a500  __covrec_A9C81912A7BBEE                                        
000099e8  __covrec_A9DA2B99CE47AF13                                      
0001adf8  __covrec_A9DE4654D28EB24E                                      
0001a060  __covrec_A9F0F41F5127CEB                                       
000249c0  __covrec_AA019CC050F89851                                      
00024740  __covrec_AA029CA7A6189D79                                      
0000ee20  __covrec_AA329F79BA5D4AEB                                      
00011e90  __covrec_AA40C52F613ED07F                                      
00015c68  __covrec_AA43E89C3FDE05DE                                      
00009650  __covrec_AA520EFB2821E557                                      
00011940  __covrec_AA52FE737418A4EA                                      
000032c8  __covrec_AA551E34D18F74A4                                      
0001eed0  __covrec_AA5790695A0CA6C4                                      
000034d0  __covrec_AA6FBA67DEF67586                                      
0000b5e0  __covrec_AA70E0B980B5AC70                                      
00003c78  __covrec_AA7C108880CD93D6                                      
00013800  __covrec_AA7CC8C43AC85B72u                                     
00019138  __covrec_AA9DC69FBE90EA4B                                      
0000c670  __covrec_AABEAADEEB5F4E6E                                      
00025a00  __covrec_AAC0F00B2B04638E                                      
00019890  __covrec_AAC3A9F90A1BC0A7                                      
000237c8  __covrec_AAD0141E54DBDF36                                      
00023f48  __covrec_AAD8AC40C3B8018                                       
0000d340  __covrec_AAEDD5461DEC88D2                                      
0000e5b0  __covrec_AAEED63D1029DA46                                      
00017180  __covrec_AAF0E71559A9DB14                                      
000031b0  __covrec_AB18DF03A4278F7C                                      
000179a0  __covrec_AB21B21BEAED7DC                                       
00007008  __covrec_AB271BB12C7B2E99                                      
00011a30  __covrec_AB2A380F7C8F9FB2                                      
00007cb0  __covrec_AB304C8261FDEB8F                                      
00021f18  __covrec_AB3591660FD6F3C1                                      
000026e8  __covrec_AB53902A6CB08F7A                                      
00008458  __covrec_AB5B451F3E10B919                                      
00007b20  __covrec_AB7956570CA67670                                      
0001dbc0  __covrec_AB8FBEAD664912EB                                      
00004ad8  __covrec_ABA022C0A714032                                       
00010dd8  __covrec_ABBB0DCCFB7B4AA9                                      
0001aa10  __covrec_ABE46DCBAA27BC82                                      
00014e80  __covrec_AC12A735237D4FDA                                      
00012390  __covrec_AC331E4603C5064F                                      
000096a0  __covrec_AC39529A12F08E6B                                      
0000ae60  __covrec_AC6538EBC735DD0C                                      
0000dd18  __covrec_AC68201571F3FB9B                                      
00008110  __covrec_AC783881F1762401                                      
00014638  __covrec_AC7CE2AC0EC3D1F0                                      
000013b0  __covrec_AC85984330425F4                                       
0000d368  __covrec_AC9CB004A666D213                                      
00002288  __covrec_ACC0C4F85F9EECDE                                      
00019c78  __covrec_ACD799F18E94DA52                                      
00003890  __covrec_ACDEA53952D33B4F                                      
00008e08  __covrec_ACF4230EF393C5BA                                      
00005208  __covrec_AD047280576A3B69                                      
00016bb8  __covrec_AD15C1A6B9093E86                                      
000126d8  __covrec_AD1A311A8594BE7E                                      
00015a10  __covrec_AD361A23EE0AD252                                      
00018f58  __covrec_AD45D5ED0392D06A                                      
00001fb8  __covrec_AD57993B2D1B4ADD                                      
00002440  __covrec_AD7F2294BFBEBDD6                                      
000214c8  __covrec_AD81EA784E549756                                      
00002968  __covrec_AD930365B8D74045                                      
0000df70  __covrec_AD93EC839DDCEE0E                                      
00005000  __covrec_ADC012B52C9206AC                                      
000072b0  __covrec_ADDF4235E39AF004                                      
00011d00  __covrec_ADE3F00B66E34EBB                                      
0001ea20  __covrec_ADE97320AF11F461                                      
00000a78  __covrec_AE0BED86C6A7FF8E                                      
0001b758  __covrec_AE3F01690B7F681D                                      
000182d8  __covrec_AE42D8757901725A                                      
0001a8f8  __covrec_AE5F2F1232F3B5CF                                      
00006d60  __covrec_AE6F1168B53990C8                                      
0000bc98  __covrec_AE75ACC2669723B3                                      
0001bac8  __covrec_AEA9A7A050EB2448                                      
000212c0  __covrec_AEB9F1523DDE543D                                      
000056b8  __covrec_AECF195AE0C883E0                                      
00002170  __covrec_AEF580CD966715F9                                      
0001c310  __covrec_AEFA24C7C56FE949                                      
00007a08  __covrec_AF0B549003A6C852                                      
0001d828  __covrec_AF1B306F38A5A107                                      
0000e0d8  __covrec_AF320D236265B896                                      
00015ab0  __covrec_AF47DD1EFBEC3E2D                                      
00003570  __covrec_AF5F32085D968C75                                      
00020c30  __covrec_AF610BED1978BE                                        
000219c8  __covrec_AF68AEC0FC01CF52                                      
00001fe0  __covrec_AFA442495C6D179E                                      
000154e8  __covrec_AFA8C746CB31D375                                      
00000778  __covrec_AFB7312F1F304372u                                     
00003318  __covrec_AFCA5308CBE5226                                       
00024998  __covrec_AFD08019AD5FBC4F                                      
0000f118  __covrec_AFDAEBE1B0D952AD                                      
0000e808  __covrec_AFEBE9C6828061A1                                      
0000a0a0  __covrec_AFF8EA2E9F42EA4D                                      
0000bd10  __covrec_AFF99C21C3C36C23                                      
00010c98  __covrec_AFFEE0267C35E1C9                                      
00021ae0  __covrec_B000D6E44E241DBC                                      
00022508  __covrec_B0351D4BFFA315DB                                      
0001fc18  __covrec_B03B60B3541D27DC                                      
0000fca8  __covrec_B03F31128199A7A5                                      
0001ac18  __covrec_B047796EE74EE7FF                                      
0000ea60  __covrec_B05388EBD8752329                                      
0000d688  __covrec_B055CE97798BAEE5                                      
0000a028  __covrec_B0584FEB9BE7B098                                      
00004088  __covrec_B065FF55E74FCCD1                                      
00020cf8  __covrec_B083043E68B37EC                                       
00004e20  __covrec_B09D4FD458CDE129                                      
0000f578  __covrec_B09F79FD8EF659EE                                      
00025230  __covrec_B0C96A09A89F954B                                      
00024560  __covrec_B0CB2062A8831B2D                                      
00007f58  __covrec_B0D24101139E4F24                                      
0001dcb0  __covrec_B109B710459D7E74                                      
0001d508  __covrec_B110AA2D28AE7A02                                      
00015600  __covrec_B1192246B24D9BDF                                      
00001950  __covrec_B11B2EE5DD5BF989                                      
0000caf8  __covrec_B1327D09E22FBFCD                                      
00015e70  __covrec_B14562B39500E1C6                                      
00004588  __covrec_B158C101AA167696                                      
00005258  __covrec_B15D06C22FEC71D9                                      
0000f820  __covrec_B1652563AEC5544B                                      
0000f1e0  __covrec_B179A17659FF2C11                                      
0001eef8  __covrec_B1817F3EABBA20D4                                      
00008d18  __covrec_B1A9F6BF4A203553                                      
00019020  __covrec_B1ABB647E4A826B5                                      
00005050  __covrec_B1C3981F9634D369                                      
00017888  __covrec_B1C58D429151BFF9                                      
00016ac8  __covrec_B1CA3060691257DC                                      
00008278  __covrec_B1CE96BC945B0CBF                                      
00022e40  __covrec_B1D5EB33F212AA24                                      
0001e5e8  __covrec_B1DAA4D48A5DAC92                                      
0000dfe8  __covrec_B1EB7085F74D8687                                      
00009358  __covrec_B1FA2164EC3E6151                                      
00002918  __covrec_B1FB48C95F950150                                      
000241c8  __covrec_B22149122969ECF1                                      
00007648  __covrec_B23169270BEA3591                                      
0001bbe0  __covrec_B241900237A12099                                      
00002698  __covrec_B24530735833F91C                                      
000053c0  __covrec_B253B33871D9C4D2                                      
00006608  __covrec_B25D5E7D963D0469                                      
00004b50  __covrec_B26FE818C9BBF2BF                                      
00000fc8  __covrec_B27A7CC7DFBAAB69                                      
00014bd8  __covrec_B28312D4C996E364                                      
00005e60  __covrec_B2DF3A96F478E43B                                      
00017ef0  __covrec_B2E23574C9985080                                      
00005fa0  __covrec_B2E7260EC55D2713                                      
00003688  __covrec_B30841581A67FF30                                      
00006c98  __covrec_B329A0B3FCA532E3                                      
0001be88  __covrec_B32D3544572CB963                                      
00009628  __covrec_B359F814EED190EC                                      
0000e128  __covrec_B3657841B1675CD2                                      
000103b0  __covrec_B3659197FDC20C4B                                      
000171d0  __covrec_B3784EACADBAE4C4                                      
00023548  __covrec_B380BD9D0C7E9144                                      
00022800  __covrec_B393474183F42879                                      
00018828  __covrec_B39A3F3FAFAD415F                                      
0000a668  __covrec_B39D9BE678C85D9F                                      
000108d8  __covrec_B3A396CC62A90D9D                                      
00021d38  __covrec_B3B73BF2E5C426E8                                      
0001f100  __covrec_B3BDDAF88E0234FE                                      
000225a8  __covrec_B3C28FB5187347C9                                      
00002df0  __covrec_B3D5A60E04922FE                                       
0001bd48  __covrec_B3F3BDA44C86F28F                                      
00005168  __covrec_B3FCF4E02B6C0FD4                                      
000228c8  __covrec_B40C661E23CE6296                                      
0001f998  __covrec_B40D1EC13EA64554                                      
00016398  __covrec_B415DA85A71442F4                                      
00017db0  __covrec_B41B699FDC71FB50                                      
00015970  __covrec_B42404F0AE348533                                      
00008b88  __covrec_B441970F37224737                                      
0000e858  __covrec_B44AEF7925B0EBA                                       
000006a0  __covrec_B44C2FD68F1F000Au                                     
000110a8  __covrec_B451A5983A07C08F                                      
00021b80  __covrec_B456FB4C18AE8CCE                                      
000227d8  __covrec_B45700A2291A279D                                      
00013af8  __covrec_B47AEEA05EDD3A0B                                      
0001dc38  __covrec_B497945531D9BAED                                      
00016898  __covrec_B4A4EEDCA1B54D92                                      
00008228  __covrec_B4A7C58ED4F2BBE5                                      
00002558  __covrec_B4C2F0FEBCAF2F60                                      
0001fbc8  __covrec_B4CF45702ED1F62E                                      
00020938  __covrec_B4D4E72F236CC252                                      
00022f08  __covrec_B503FEC0B0931720                                      
00003b10  __covrec_B52663DA78115B23                                      
0000d1d8  __covrec_B552D37472D35192                                      
000124d0  __covrec_B5717455E0C92E77                                      
00013660  __covrec_B58A8E869E6C801Du                                     
00009e70  __covrec_B599D5FE34962FCD                                      
00019ca0  __covrec_B59DCA70DEB23292                                      
00002d00  __covrec_B5B67982233FDBC                                       
00023138  __covrec_B5EB55BCCE818051                                      
0000d958  __covrec_B6061734BA369469                                      
00003408  __covrec_B6093B1DCE09925C                                      
0001e8b8  __covrec_B61E6F782B78E33                                       
00005528  __covrec_B63BB6869D812CAF                                      
00015b00  __covrec_B65424DF5CB39F9C                                      
0000e010  __covrec_B68CBA3DB0144E60                                      
00018aa8  __covrec_B6A0871C1945FFFA                                      
0001ac90  __covrec_B6CCE378ECEB795D                                      
00014b60  __covrec_B6D339D17C55796A                                      
0000e470  __covrec_B6F3E3BAD089DBAE                                      
00001388  __covrec_B7020FE632FE5CBA                                      
00013598  __covrec_B7189D63FAA09618u                                     
00009b78  __covrec_B77E9FAD3DF35EBE                                      
0000f5a0  __covrec_B78EF92F49E0058B                                      
00016a78  __covrec_B7F121F8D067DE5B                                      
000086b0  __covrec_B7F5FFCDF30CB218                                      
00004308  __covrec_B7F8AA0A75D437ED                                      
00005898  __covrec_B7FE008276F99331                                      
0001c2e8  __covrec_B80338B73BCC2656                                      
00021c98  __covrec_B81E7D3BF22B07C4                                      
00016d98  __covrec_B827FF49ECB9ACAB                                      
0001e318  __covrec_B84298F21EA3E1FF                                      
000060e0  __covrec_B869702795BA3180                                      
00015448  __covrec_B869EDB988C009F7                                      
00023868  __covrec_B86E6ADAE5793B86                                      
00008390  __covrec_B871D12F39A6AF36                                      
00019098  __covrec_B8C1025FC7A8E42C                                      
000252f8  __covrec_B8D1A0FDCA208254                                      
00005c80  __covrec_B8D875108F459ADA                                      
0000af28  __covrec_B8DFCB0E91A6A538                                      
00024768  __covrec_B8E161108EA66733                                      
00018eb8  __covrec_B9201EE3FA6C6707                                      
00017a18  __covrec_B9220FE1584769C0                                      
00010ae0  __covrec_B924B179892F5543                                      
00001220  __covrec_B9537AAE86C9A6BD                                      
0000e880  __covrec_B967147E74E51FAD                                      
0000f320  __covrec_B978B224B473938F                                      
00003e08  __covrec_B98076446EF295FD                                      
00001e50  __covrec_B99C443DB87550BB                                      
00016b18  __covrec_B9A4000223009040                                      
000087a0  __covrec_B9AB8834A2237901                                      
00001b30  __covrec_B9B5FC828B38D38D                                      
0000aff0  __covrec_B9BBACA01A41B6C8                                      
00011788  __covrec_B9C3540C3AC1D54F                                      
00013c88  __covrec_B9D2F8AC2EC60668                                      
0001e048  __covrec_B9D785A7E077CEA3                                      
00014200  __covrec_B9FD434D26801D1D                                      
000137b0  __covrec_BA0506ACA72E58F1u                                     
0001f8d0  __covrec_BA0577C7F8482932                                      
00004498  __covrec_BA12879443A2327D                                      
00005cf8  __covrec_BA1ECAA1A7696E1A                                      
0000b360  __covrec_BA25A56B15309134                                      
000248d0  __covrec_BA25B6E0D9E88E92                                      
000225d0  __covrec_BA26DFD71B6BBD0E                                      
00022288  __covrec_BA2F91D4EBAE62E8                                      
0000d7a0  __covrec_BA37DB786B6EA1B4                                      
0000c8c8  __covrec_BA38EBDE4E634B4D                                      
00021bd0  __covrec_BA6B6DEC22B363AC                                      
00008b38  __covrec_BA973D6E4001920E                                      
00003e80  __covrec_BA9D085EEB283A31                                      
000200c8  __covrec_BAA4B870B60BD316                                      
00008ef8  __covrec_BAB821C194D33E0C                                      
0000cda0  __covrec_BAC215A305CB6BB2                                      
00011328  __covrec_BAE55637B2915732                                      
000175e0  __covrec_BAEEFF68D8681573                                      
0001d3a0  __covrec_BAF611EDDF85960D                                      
00006ea0  __covrec_BAFF080CE41F419B                                      
00009e48  __covrec_BB175E3871FD845                                       
000098a8  __covrec_BB204FB54CD4EFC                                       
000149a8  __covrec_BB2D4E5BDAA29309                                      
00007e90  __covrec_BB37BA4602A701B5                                      
000087f0  __covrec_BB3928FABB4339BB                                      
00005c08  __covrec_BB43D7D806F4CBD6                                      
00005a00  __covrec_BB50BDBE0E77D3AD                                      
0001d2d8  __covrec_BB58F9EFFAB74CFA                                      
0001dc60  __covrec_BB62713564BC6061                                      
00014ac0  __covrec_BB6A325730C2D3A3                                      
00006720  __covrec_BB7CDB87DF7DC393                                      
0001a858  __covrec_BB8A46B5E1FD426E                                      
00014250  __covrec_BB8C9E940FD1CB5                                       
00005b90  __covrec_BB9DB7256D55E22C                                      
00021dd8  __covrec_BB9FD0DCF74ADD48                                      
00019ac0  __covrec_BBA5D966D9DB8D7F                                      
0001a218  __covrec_BBAA8A5E3C1084E1                                      
0001ee30  __covrec_BBAC06060934AC71                                      
00017fb8  __covrec_BBBE285C6C9571D4                                      
000122a0  __covrec_BBC1B71FF0D6E9B7                                      
0000d818  __covrec_BBCC8B4742E2744A                                      
00024e48  __covrec_BC04788554EFCF00                                      
0000c968  __covrec_BC100AC494729832                                      
00005758  __covrec_BC1E770725353BFE                                      
0001cef0  __covrec_BC290E9922E7E150                                      
00017ec8  __covrec_BC29C634089DFA43                                      
00001860  __covrec_BC45A73D645FD3FC                                      
00007d28  __covrec_BC56D22003F30EB                                       
0000ce68  __covrec_BC5C2824B87BC903                                      
00007ee0  __covrec_BC620F117425D53                                       
00022648  __covrec_BC7984CCFA3D8ED9                                      
00009df8  __covrec_BC7A07810C2A4EA5                                      
00020b68  __covrec_BC8CBF8BB39926D7                                      
00018440  __covrec_BC9AD4E83CBC76C1                                      
0001f948  __covrec_BC9C1716B39EEEEE                                      
00019610  __covrec_BCA8A707069F2B7D                                      
00018800  __covrec_BCCCA3ABEFAE22F9                                      
0001cb08  __covrec_BCD70E34A1BD2DAD                                      
0001a2b8  __covrec_BCDD8200269364F5                                      
00022a80  __covrec_BCE20404362A091B                                      
00010658  __covrec_BCE304DA2995D59D                                      
00016820  __covrec_BCF4DEC7AAF51141                                      
00001d88  __covrec_BD0209660F1F417F                                      
000158d0  __covrec_BD114F17117531E                                       
00018288  __covrec_BD118EE916DF631                                       
00007b70  __covrec_BD20025876B40285                                      
000178b0  __covrec_BD2C0EC2D1A3A54B                                      
00024628  __covrec_BD332A04D1EF2802                                      
0001f6c8  __covrec_BD55CEDDD4C7465C                                      
00004420  __covrec_BD5CC9630DBCBBE9                                      
00013f80  __covrec_BD65040E1CE60EE3                                      
00010ea0  __covrec_BD68002B29E6FA                                        
0001e2f0  __covrec_BD83E8803461B090                                      
00025aa0  __covrec_BDBC2EC1D743310D                                      
000039f8  __covrec_BDE4D2739B89D2E9                                      
0001cd60  __covrec_BE1CE00D43CECB55                                      
0001f3a8  __covrec_BE1F12FE822613BE                                      
00000708  __covrec_BE2747E0B77C11DCu                                     
00011f80  __covrec_BE385D0749AA9AC6                                      
0001fb50  __covrec_BE432654406B87EA                                      
00022f80  __covrec_BE451BAF7B0A3A1E                                      
00011e18  __covrec_BE4C15D3B32B067C                                      
0000aac8  __covrec_BE5179F5A57B6AE2                                      
000190e8  __covrec_BE53DB66BE512BB2                                      
000059b0  __covrec_BE5A92894152D5DE                                      
0000aaf0  __covrec_BE65544DFD0F9AD8                                      
00003048  __covrec_BE6EA14CE4CA1756                                      
00003778  __covrec_BE863C686EAC33EF                                      
000180d0  __covrec_BE9784C693462D0B                                      
00010a40  __covrec_BE9D5D41A4A00A13                                      
00024d80  __covrec_BE9D84C99636729                                       
00002aa8  __covrec_BEA364F8E4F6612A                                      
00011008  __covrec_BEB1D8468371349B                                      
00017270  __covrec_BEC83D1E4E3BCCB7                                      
0000c9e0  __covrec_BEEF592826313069                                      
00000438  __covrec_BEEFAD7D9530066Eu                                     
0000d390  __covrec_BEF4D4CCDE60C523                                      
0001acb8  __covrec_BF00B9D62A40E8                                        
00012250  __covrec_BF0525D0545F407D                                      
000033e0  __covrec_BF2D601022292D70                                      
00010040  __covrec_BF4EA921547B71EE                                      
0001d148  __covrec_BF5B2D3E8315BBF7                                      
00006ae0  __covrec_BF6A0C809C015679                                      
0001f510  __covrec_BF7F3229C73CD9C2                                      
0001a0b0  __covrec_BF82A4EA5FD7B87F                                      
000257a8  __covrec_BF92C4D8EBAC5FDC                                      
00005550  __covrec_BF99175D50CA1867                                      
0001df80  __covrec_BFA94883BB321D30                                      
00008d68  __covrec_BFAFD22F7BF690C5                                      
00021388  __covrec_BFCEC3B71D97F59C                                      
00021450  __covrec_BFE9ECE487F76743                                      
0001e750  __covrec_BFF78BC6DCEBF1F6                                      
0001ef98  __covrec_BFFD62CFC6E30A9F                                      
000198b8  __covrec_C03DA988AE1DD5BD                                      
00004808  __covrec_C03E22A2F6E2E4EF                                      
00008bd8  __covrec_C047E60BD8866964                                      
0001c108  __covrec_C05879153FE555C1                                      
000138f0  __covrec_C060C9768DCAB2A8                                      
00021ab8  __covrec_C067E3264A9AF5A6                                      
00000938  __covrec_C0751327896BCD4C                                      
00023cf0  __covrec_C08699B0FA7FE42E                                      
000046c8  __covrec_C0AA7AE1236408C6                                      
00014430  __covrec_C0B20500DA1986C9                                      
00025690  __covrec_C0B4B5A0B3860D88                                      
0001f588  __covrec_C0CD645B5D5102C8                                      
0000a780  __covrec_C0D2729B0E6DF1B7                                      
0001daf8  __covrec_C0DC172FDDEBEB90                                      
00023e30  __covrec_C117BC77E1AE5B2C                                      
0001cf90  __covrec_C11BDC7FABD07D0B                                      
0000a9b0  __covrec_C13AD5850545AB0D                                      
00013ad0  __covrec_C13FE30D6EBFD35D                                      
000083b8  __covrec_C14519F9FADE6C9A                                      
000037a0  __covrec_C14829C5FDA5D6EA                                      
0000bb80  __covrec_C15F2CF5A53F36D6                                      
000012c0  __covrec_C165DBE4DFA429BB                                      
00024c90  __covrec_C168FF5FB57A84A5                                      
0000f910  __covrec_C17285F0F24EF078                                      
00002058  __covrec_C17BEFE86E29456D                                      
00012700  __covrec_C1879FA7C346EBC                                       
00007378  __covrec_C18C03D15A8F8D51                                      
00002dc8  __covrec_C19614860C5B3309                                      
00019700  __covrec_C1988D22F622B9A6                                      
00023d18  __covrec_C1A5F85C5714C707                                      
0001c0b8  __covrec_C1A60CF54653909F                                      
000195c0  __covrec_C1A8499103BBBA7B                                      
00010540  __covrec_C1B12A6B3A138DC9                                      
0000b400  __covrec_C1B2B1A0B6EC290F                                      
00014610  __covrec_C2022158F2C67453                                      
000250c8  __covrec_C206B0185B8151D8                                      
0001afd8  __covrec_C2080631681CD102                                      
00023688  __covrec_C20942F4F65D7C08                                      
00024ba0  __covrec_C2119B9785C3A10                                       
0000d250  __covrec_C239BA51ED9EC8C                                       
00018b70  __covrec_C24177BC26BFE7AE                                      
00009a88  __covrec_C24C11236C197783                                      
000135f8  __covrec_C261F68F35CFA580u                                     
00006400  __covrec_C268EEC39DA3B21C                                      
0000b838  __covrec_C284900A3BECEF9F                                      
00008c28  __covrec_C28518340856F2B0                                      
0001fc90  __covrec_C297950E14A9FC9B                                      
0000da20  __covrec_C29C540C64A8C99C                                      
0001d210  __covrec_C2B3C483B63A5E20                                      
0000b540  __covrec_C2BB13DE1AE343CB                                      
0000f870  __covrec_C2BBD9F4FD1A81B5                                      
00018148  __covrec_C2BDC035DFE271D7                                      
00007508  __covrec_C2EA69130D5DE4D6                                      
0000dae8  __covrec_C307A6F1EDD2DFB6                                      
0001d260  __covrec_C30EB30F0D6CA293                                      
00004f38  __covrec_C31D13C77667C7D8                                      
00016758  __covrec_C32394CEBC8F298D                                      
00019d40  __covrec_C34A9670BC0DD6D                                       
0000c8a0  __covrec_C360429D1CA00A11                                      
000026c0  __covrec_C36BC5DC6B7BAC00                                      
000126b0  __covrec_C37F4325D39AA6F4                                      
00024a88  __covrec_C38179C70F15EBB6                                      
0001d440  __covrec_C39014A7B52AF635                                      
00005ac8  __covrec_C3A1DC3CF32D203A                                      
00009c68  __covrec_C3B2B1E927D2AED0                                      
00012d80  __covrec_C3CFC36A5F5D99B3u                                     
00008570  __covrec_C3F7D722BD7A26A9                                      
0001ea48  __covrec_C406590A991649ED                                      
00017d10  __covrec_C41E4E65D1A905B6                                      
00013f08  __covrec_C42E9DAA23A2BB70                                      
000094e8  __covrec_C470FE3D8AEB00D9                                      
0000c8f0  __covrec_C47257D07254FED2                                      
000146d8  __covrec_C47E72F5FDC963B6                                      
0001de40  __covrec_C4948B4A7BD10521                                      
0000a050  __covrec_C49D033DE3A9AFB9                                      
00016ed8  __covrec_C4A06F1976A8BA6C                                      
000022d8  __covrec_C4A3B254D2D9F398                                      
00010978  __covrec_C4B01E72A10B79FE                                      
0000df20  __covrec_C4BF6877E3DA2AE6                                      
0000e2e0  __covrec_C4BFDCB78073AB38                                      
00007440  __covrec_C4CB3B4E9E7F3A34                                      
0000bd88  __covrec_C4CD8A127B42E748                                      
00008e30  __covrec_C4D78141AF2572F5                                      
00021018  __covrec_C4E95923FBC11FA5                                      
000185a8  __covrec_C5127E00E8D758A9                                      
0001cb30  __covrec_C52B00B52192A437                                      
0001f8f8  __covrec_C53BBB9339A354B5                                      
0000aaa0  __covrec_C55313E71DA0C3B9                                      
0001f560  __covrec_C55F02A032F43D70                                      
00024cb8  __covrec_C56ECB8A7D7DB4BC                                      
0001cbf8  __covrec_C596E6D89868C150                                      
0000c558  __covrec_C5BCF3911B560B66                                      
00011b98  __covrec_C617E7C9DBB1B5DC                                      
00023ca0  __covrec_C61E34D2B7DB3AB9                                      
00008c00  __covrec_C634E91CD196F85E                                      
00000e88  __covrec_C637502431AE366C                                      
00002210  __covrec_C66DD2C07ECA2C23                                      
000147c8  __covrec_C679D3FB88FDF155                                      
00015da8  __covrec_C67BB74823A39EF4                                      
00013ee0  __covrec_C68B8B6BDDE847AE                                      
0001c518  __covrec_C6A03EA07DFDA48E                                      
0000c760  __covrec_C6AB4526964850E8                                      
00004628  __covrec_C6C59DFD81F45453                                      
00018008  __covrec_C6D4A98261E05131                                      
00008f20  __covrec_C6E5746A589295D1                                      
00003340  __covrec_C6E5A9332171B0BC                                      
000195e8  __covrec_C6FBAFF5D84ED8B8                                      
00016668  __covrec_C6FF240EF0EF616E                                      
000191d8  __covrec_C71CF606D560D574                                      
00008ae8  __covrec_C71D83EEEEBD25C5                                      
00001270  __covrec_C72CDDA90EDC4BAD                                      
00015a88  __covrec_C730E74F29A64089                                      
00020eb0  __covrec_C7343722D36256E3                                      
0000f140  __covrec_C73A30597B6CE2DC                                      
0001d080  __covrec_C785045688B498DF                                      
0000fe38  __covrec_C78B4A6A98D02577                                      
00018558  __covrec_C79B0A7C0C5EE8E6                                      
0001d9b8  __covrec_C7A3DC5FCBD229F5                                      
0001cc48  __covrec_C7A3F8A6526ACAAB                                      
000151f0  __covrec_C7BAB4AB86515CC1                                      
00011990  __covrec_C7C205F37933D1CA                                      
000002a8  __covrec_C7CF69551785A508u                                     
00011760  __covrec_C7D3229704260BFE                                      
00008598  __covrec_C7DC5231AA70BA0F                                      
00013d50  __covrec_C7FA0B5F555E0379                                      
0001f650  __covrec_C80297F8D5A5EE6E                                      
000201e0  __covrec_C8098930F9FF09AF                                      
0000ea88  __covrec_C81DAEE90F8696CC                                      
00002850  __covrec_C820D13AAADDFBF9                                      
00006248  __covrec_C8340AF3DD76DEA5                                      
00021798  __covrec_C861FA9ED78C1628                                      
0001e688  __covrec_C8691A5D3D18CEB8                                      
00023fc0  __covrec_C88742A00309C248                                      
0001bd98  __covrec_C891816ECD188728                                      
00002468  __covrec_C8956EA37A365FE5                                      
0000b7c0  __covrec_C8BD44ABF6512FBA                                      
00017478  __covrec_C8C414422B19443C                                      
000157e0  __covrec_C8CCF188B36F8DA8                                      
00017e50  __covrec_C8DCFCBEAA5BD6B1                                      
0001c180  __covrec_C8DDCD2BE5BDEB29                                      
00008868  __covrec_C8E89BD540C9114F                                      
00007738  __covrec_C8F4E67F540B3236                                      
000155d8  __covrec_C8FDDF9C0DF63162                                      
00024470  __covrec_C91222E8F6C9D38E                                      
00000ac8  __covrec_C9152F537137F215                                      
000235c0  __covrec_C93CC0F9EE084AFB                                      
00004b00  __covrec_C93E92B492002ABF                                      
00022120  __covrec_C9DA5EF50CA9860B                                      
00006b80  __covrec_C9E60D5E928F5EEC                                      
0000b310  __covrec_C9EA72700DD2DA54                                      
00014660  __covrec_C9F9A4550F5A1B1D                                      
0001b140  __covrec_CA07525C9FFD8422                                      
00003160  __covrec_CA08C308926F86A5                                      
00023480  __covrec_CA42B03D4DC60F46                                      
00022170  __covrec_CA4A6D2F6A83BC6E                                      
0000e1a0  __covrec_CA537B5FD783D60B                                      
0001c568  __covrec_CA659B843C923895                                      
00005f78  __covrec_CA685C0901188451                                      
0000cd78  __covrec_CA7C0417F799A12C                                      
0001dd50  __covrec_CA867189FE483015                                      
0001cd10  __covrec_CA879987B26BBD11                                      
00008200  __covrec_CA8C60D3EA5362E1                                      
00016730  __covrec_CA8D327D5FE663E5                                      
000057f8  __covrec_CA8DBCD54A2B28B1                                      
0001c4c8  __covrec_CA96F046A5AB2363                                      
00017450  __covrec_CA98D2E764262CFA                                      
00014d18  __covrec_CA9CE7C2E7CA293A                                      
00015650  __covrec_CAC271B48360283D                                      
00000600  __covrec_CAC374A65142BF09u                                     
00010f18  __covrec_CB298777B5BBC7AD                                      
0000f780  __covrec_CB3C47A7D249D04                                       
0001df08  __covrec_CB3EDB19605093E                                       
000105b8  __covrec_CB3FF3F526A2F00C                                      
000077d8  __covrec_CB401E04B85A55F6                                      
000208c0  __covrec_CB6139DA0A22A536                                      
0000d3b8  __covrec_CB6A11825FEC0147                                      
000226c0  __covrec_CB6E39593DB7822B                                      
00015dd0  __covrec_CB7239B079C9BB00                                      
00016640  __covrec_CB8CEB3266C95AA2                                      
000228f0  __covrec_CBA58BB327214EF5                                      
0001d670  __covrec_CBADFE2B599E93D1                                      
00009268  __covrec_CBC9F45CB78F8B90                                      
00002a80  __covrec_CBD9B5558060A720                                      
000159c0  __covrec_CBE83007F7010C96                                      
00018b98  __covrec_CBEE1D12D902354C                                      
00003958  __covrec_CBF2E73A32284FE9                                      
000028c8  __covrec_CBFAAF6E85E67C2A                                      
0000a078  __covrec_CC0E79F34BDE50C1                                      
00001ba8  __covrec_CC106C1DC2E570F1                                      
0001a330  __covrec_CC4223F50ECD00CE                                      
00010a68  __covrec_CC6EB3AA84257997                                      
00018620  __covrec_CC70E0F5C270EA9B                                      
00019318  __covrec_CC7126193A00429                                       
00002008  __covrec_CC76C5EF96D89539                                      
000122f0  __covrec_CCA1F12623A87E34                                      
00018710  __covrec_CCB6CF18D1F9216E                                      
000247e0  __covrec_CCB746471E98931                                       
0000c080  __covrec_CCBC4573637DA55F                                      
00024f38  __covrec_CCC6605FF76A91AA                                      
00013a30  __covrec_CCE0C4F0B73E0BA                                       
0000c300  __covrec_CCE2B14552749412                                      
00008ea8  __covrec_CCE8587A3277B01F                                      
0000d700  __covrec_CCFBAF14A6C959A5                                      
00015e98  __covrec_CD1FEC807124C5DC                                      
00001770  __covrec_CD2ABFA5EBEDE95E                                      
00005eb0  __covrec_CD3F17D62E99D72F                                      
000003e8  __covrec_CD4A8BBF42B93D9Du                                     
00006630  __covrec_CD52D5354BACA035                                      
00025190  __covrec_CD5B61048FB28BF6                                      
00011af8  __covrec_CD5C2F4CD8490DB3                                      
000104c8  __covrec_CD770DF23638413B                                      
000088e0  __covrec_CD808DC22BF44FE8                                      
00020730  __covrec_CD84FE23D8F1FFF3                                      
0000ef88  __covrec_CDBCE9076F882CD6                                      
000125c0  __covrec_CDBEC65CA76225B3                                      
000085e8  __covrec_CDBF3A5FF7EE087                                       
000226e8  __covrec_CDE6AE02159A531A                                      
000202f8  __covrec_CDEE2F023C3227C                                       
00008930  __covrec_CE07E47036E86558                                      
00006298  __covrec_CE081AE001D392A7                                      
00019930  __covrec_CE61DF8D70603D05                                      
00003a98  __covrec_CE63BEA95B1AAA26                                      
000161b8  __covrec_CEC06DF4A0AA4647                                      
000121b0  __covrec_CECC738F131939BC                                      
00012278  __covrec_CED9A24C87C67E33                                      
000085c0  __covrec_CEFB9F7F6D63820E                                      
00003e30  __covrec_CF07008B357FC16E                                      
00024448  __covrec_CF1D5F4C4E170F71                                      
00006220  __covrec_CF1DAB8B6A2AA843                                      
00004a10  __covrec_CF30B3F8389553FA                                      
00021108  __covrec_CF35DF077AD86753                                      
00013688  __covrec_CF3797F7279398BAu                                     
0000a4b0  __covrec_CF4FC1E32151C594                                      
000256b8  __covrec_CF5F1121EDD446E6                                      
00024da8  __covrec_CF63A0E991DB00B8                                      
000184b8  __covrec_CF85BDF8DB35D707                                      
0000cff8  __covrec_CF883BE42879D27C                                      
00013d28  __covrec_CF8FD41481671D22                                      
0001f0d8  __covrec_CF94589D9D1DEC52                                      
00015880  __covrec_CFA66EEEFF8D943E                                      
000119e0  __covrec_CFCCF873B7181C91                                      
00009718  __covrec_CFDB817D939AB454                                      
00022440  __covrec_CFDEA33775812B6E                                      
00005b68  __covrec_CFF4B1D49D637D05                                      
00019340  __covrec_D01CCD00E065AA9E                                      
0000e560  __covrec_D023413EC1FF36D0                                      
00007878  __covrec_D04DC704886886C6                                      
000165c8  __covrec_D06B5EA8595E0C3B                                      
0001c888  __covrec_D06E46ADCA79BD5A                                      
00010ba8  __covrec_D07EA17EA69B8479                                      
00017dd8  __covrec_D0B2A5F9CAC16FAF                                      
00006658  __covrec_D0C19A2C829A1D55                                      
00006ef0  __covrec_D0F6FDA3D53C6FE4                                      
00003f70  __covrec_D0FDD256AE50233D                                      
00024330  __covrec_D106E602CF559D67                                      
0000f6b8  __covrec_D13B5C531F5197CD                                      
00024fd8  __covrec_D13CD6508241F616                                      
0000a758  __covrec_D13E1DD0A904D1EC                                      
00017400  __covrec_D146138B6B5808FD                                      
000078a0  __covrec_D149E6B126AFF09E                                      
00013f58  __covrec_D14AB83585B8939C                                      
000027d8  __covrec_D15FC9E9035023E4                                      
00006018  __covrec_D163700B248786AA                                      
0000a2a8  __covrec_D166DCE98F6D0E9C                                      
00007580  __covrec_D171F092417D4735                                      
00013868  __covrec_D18D2F87354CA54Au                                     
00018f08  __covrec_D19210AC555390BA                                      
00010e28  __covrec_D19EE980B71AEC43                                      
00006450  __covrec_D1A6617A5EDDDD2C                                      
0000b658  __covrec_D1D10A4F101AAA4                                       
00014868  __covrec_D1D8719730CB6775                                      
0000f460  __covrec_D2007C2CBD0F9E4D                                      
00022fa8  __covrec_D2192901ABE12A0D                                      
0001e728  __covrec_D21ABA06BC7B35F0                                      
0000db60  __covrec_D22CAAC6655B0C37                                      
0000dc00  __covrec_D28992F781DD20D5                                      
0000ce18  __covrec_D2934CB964BCC507                                      
000137d8  __covrec_D2967BEED231EBB9u                                     
0000ef60  __covrec_D2A160C7D91897                                        
000168e8  __covrec_D2AD16B54854FD69                                      
00018bc0  __covrec_D2B149CAFD234F76                                      
00015358  __covrec_D2B8C126B3C196E6                                      
00001590  __covrec_D2FBD09CF9175ADA                                      
0000a550  __covrec_D30E084174151E21                                      
0001b460  __covrec_D3158B1D6DDFF659                                      
0000e218  __covrec_D3387D696F34035B                                      
000248f8  __covrec_D34ACF1A6D54FBC2                                      
0001b578  __covrec_D351FD64F4FBBB4E                                      
00019278  __covrec_D3552E4CB195D48F                                      
00007f30  __covrec_D3555C4264598523                                      
00006ce8  __covrec_D35B061DD72A8133                                      
00019f70  __covrec_D35EF8425F780E1D                                      
0001d8a0  __covrec_D372A19317C9419D                                      
00009060  __covrec_D384089B6507668C                                      
000223f0  __covrec_D39D20B2386CDF64                                      
000167d0  __covrec_D3A0FA8D29D3B261                                      
00006360  __covrec_D3BCCDBD67187C42                                      
00010888  __covrec_D3BD8053F86E41DE                                      
00019b60  __covrec_D3BF87CF440FE35A                                      
00010608  __covrec_D3E0CC8EE8B7B5EB                                      
0001ea98  __covrec_D3EA813A32C897FB                                      
00025ac8  __covrec_D404D1ACFA455982                                      
0000cdc8  __covrec_D4074637B149442C                                      
000233e0  __covrec_D416D024D1D73101                                      
00001518  __covrec_D41E15BD3C137045                                      
00020f28  __covrec_D442BC42C430DA18                                      
00020910  __covrec_D44D474EB5192D81                                      
000145c0  __covrec_D457016882A1DBC                                       
00011fd0  __covrec_D4626EC386D868E0                                      
00004740  __covrec_D46C6760916F836A                                      
00015178  __covrec_D478B79B70618CA                                       
00005410  __covrec_D47BE27B68D57C53                                      
00001540  __covrec_D4A58762ABE74B26                                      
00009538  __covrec_D4AC32A10CD7CB0F                                      
000183a0  __covrec_D4B6EA881BC12157                                      
0001c0e0  __covrec_D4D14EC238C74E                                        
0000ade8  __covrec_D4D6FC7683C95E7A                                      
0001b9b0  __covrec_D4E68445A3100191                                      
0001a628  __covrec_D4E8DCA12E13317D                                      
00015330  __covrec_D4EAB0412B17FD4D                                      
0000a910  __covrec_D508958877B7CDD7                                      
000232a0  __covrec_D50C12DF2EE267A4                                      
00017748  __covrec_D50DFBBA4D6B38E2                                      
00020488  __covrec_D5127951400A41C4                                      
00005e88  __covrec_D5253C2D081AEC51                                      
0001aa88  __covrec_D527D3D062AE3EE7                                      
00024858  __covrec_D52A934147D69CB7                                      
00014a48  __covrec_D52BE09B3F1D0E98                                      
0001fad8  __covrec_D53BD1FED6E223A3                                      
0000e9c0  __covrec_D5409A4D6856EF55                                      
0000b608  __covrec_D5424533F9D0A94B                                      
00013e90  __covrec_D55558700E625396                                      
00002c10  __covrec_D55622F88F5226B7                                      
0001a5d8  __covrec_D560D1BDEEA85D1E                                      
00018300  __covrec_D56220AED8A68AA7                                      
0001b0f0  __covrec_D577D8ACA65C6EBC                                      
0000faa0  __covrec_D57E84B1A2601E15                                      
00012200  __covrec_D586C93DA51AE2EF                                      
0001baf0  __covrec_D589302BF1DD022                                       
00022eb8  __covrec_D59F4D8821FF319F                                      
000160a0  __covrec_D5A5470482AB7B73                                      
00000dc0  __covrec_D5B4CC8656A701E4                                      
00025820  __covrec_D5C30172EA9E1071                                      
0001e610  __covrec_D5F13B1F091E53A6                                      
00024678  __covrec_D5FCE8C8060A7EF5                                      
00001cc0  __covrec_D601B461E1A36E5E                                      
0000f528  __covrec_D6089EA6A03C1DFE                                      
00012750  __covrec_D65B84EB5603889D                                      
00019cc8  __covrec_D66C7794AB990900                                      
00011468  __covrec_D66F26331EE7175B                                      
0000dc78  __covrec_D67633C8BBEFBD55                                      
00001450  __covrec_D682D97A67E8CF22                                      
00000b18  __covrec_D68C7935EACE4A97                                      
00010c48  __covrec_D6A18F6B0143D735                                      
00009d08  __covrec_D6C0ECB4343048C3                                      
0000b478  __covrec_D6CA4E27A30329FF                                      
00006680  __covrec_D70154E3E201FB1                                       
00010388  __covrec_D706DB4BB573BB3D                                      
00016f78  __covrec_D70A022AB596B45A                                      
00008bb0  __covrec_D70EA4A8A98751CE                                      
00011238  __covrec_D7386B0EE8FE1AA8                                      
00023458  __covrec_D75766304E1D8D92                                      
0001aa60  __covrec_D75DBA36EEF3F958                                      
0001db48  __covrec_D76171FD07E86A8E                                      
00019728  __covrec_D768A311FFDF56EE                                      
0001d580  __covrec_D7904C5A2879B01E                                      
00007558  __covrec_D7983C05E0832327                                      
00017fe0  __covrec_D79A443C489849F6                                      
0000bf18  __covrec_D7A5E186EC53EB7C                                      
00000898  __covrec_D7C7FD587CF7F27E                                      
00016ca8  __covrec_D7D1CEAC00208BB7                                      
0000ec90  __covrec_D7D2A99D60ACB32C                                      
00000668  __covrec_D7DFE1844D8B0F8Cu                                     
000180f8  __covrec_D7F673B4AE2A2EA6                                      
000140c0  __covrec_D7F70C066D31D65B                                      
00017630  __covrec_D8246573F149E3C9                                      
00018e68  __covrec_D824C551C080ED45                                      
00020de8  __covrec_D82F77AC1E47A870                                      
00018940  __covrec_D82FDAB4C34C5ABF                                      
0001fbf0  __covrec_D8306239A80A3050                                      
00006dd8  __covrec_D8357A951D6CC3AD                                      
000038e0  __covrec_D85940657E5DE4DF                                      
0001eca0  __covrec_D85EB321E56D0315                                      
0001d0d0  __covrec_D883D67AC30EFF9D                                      
00005a78  __covrec_D895D93EA590B5A1                                      
0001dda0  __covrec_D8A263FCD10C4FC                                       
00022da0  __covrec_D8BEE47ABDFE5E7A                                      
0001cc70  __covrec_D8D8622C269DFC32                                      
00023de0  __covrec_D8D91C298404D725                                      
000139b8  __covrec_D91ECAC3B6D052E3                                      
0001c748  __covrec_D928858D6E8F0E82                                      
00022d50  __covrec_D928E5E9AC1238                                        
00016578  __covrec_D93D29EDC0F27E11                                      
0001ffd8  __covrec_D941ADEFFEFD7E35                                      
00012458  __covrec_D946AFFF68D80E46                                      
00001d10  __covrec_D94C1F618B4FD7E8                                      
0001ff88  __covrec_D94CC96ABB0C6DB                                       
00006770  __covrec_D954D0998E13AAD4                                      
0000c7b0  __covrec_D959A60138CD433E                                      
00017c48  __covrec_D9616245EF11A58D                                      
00023778  __covrec_D972293A653FFC79                                      
0000a5a0  __covrec_D98016B2FE4D3D31                                      
000176d0  __covrec_D982EE0B3EA97BB5                                      
000163e8  __covrec_D982FC0AAED0521E                                      
0001deb8  __covrec_D9834B1298AF0659                                      
00009308  __covrec_D98E6A74FFF9D8A                                       
00003520  __covrec_D996028D5A69C6F2                                      
00007760  __covrec_D998495D77F56213                                      
00020230  __covrec_D9AE959CE96C297F                                      
00004d30  __covrec_D9B5BBF5883ABD67                                      
00004a38  __covrec_D9BFBE2790C83171                                      
00003b88  __covrec_D9D1CA770677649C                                      
000055f0  __covrec_D9DA8721215694F0                                      
00006428  __covrec_D9DDA3EAD197CE88                                      
00003fc0  __covrec_D9DF300B9FB82770                                      
00020870  __covrec_DA089776324B511E                                      
0000cbc0  __covrec_DA16BD1FEC470510                                      
00021d88  __covrec_DA2E46AAD0F0A00A                                      
000252a8  __covrec_DA3D6B82745A5886                                      
00003bb0  __covrec_DA73F3FA2202180A                                      
00007e40  __covrec_DA78BB48445AA633                                      
0001bff0  __covrec_DA8144EFE9176E59                                      
00015a60  __covrec_DA84E43E59E2D225                                      
0000f280  __covrec_DA9A9D536ADFC90B                                      
00018418  __covrec_DAB0F1E4E4626DE7                                      
00009470  __covrec_DAB8E868E50A27CF                                      
000138c8  __covrec_DABFBE0453737A5C                                      
00010d38  __covrec_DACD33E1AF0DED55                                      
0000ad48  __covrec_DAD4941A63D99853                                      
000153a8  __covrec_DAE0762D4F5A4DB9                                      
0000c058  __covrec_DAE8D5ADDB41B37                                       
00001a40  __covrec_DB095F1DF7361C4                                       
000078c8  __covrec_DB2B422DD9C5F163                                      
0001e598  __covrec_DB363FCB291EB8C7                                      
0000a6b8  __covrec_DB471C349C709A12                                      
000160f0  __covrec_DB4960CB4A009A12                                      
00018210  __covrec_DB509B663C50FCE1                                      
0000eba0  __covrec_DB846B1F611511E2                                      
00014c28  __covrec_DB876D2CFCBE9D17                                      
000132a8  __covrec_DB956436E78DD5FAu                                     
0001f880  __covrec_DB9F4938889B0F96                                      
00016d70  __covrec_DBA898CC3AAAC47A                                      
00022828  __covrec_DBA8FC0364B7E8C8                                      
0000f0a0  __covrec_DBC4F0F97B3DA53C                                      
0000d1b0  __covrec_DBE35451CF19422                                       
0001aec0  __covrec_DC014427C2170B59                                      
0001ca40  __covrec_DC055F581051F1B9                                      
0001c1a8  __covrec_DC0782090FC2D18C                                      
0001e200  __covrec_DC0C72BFD637E815                                      
0000f2f8  __covrec_DC0FA30D02EF7B58                                      
00015830  __covrec_DC21113B831CCAF7                                      
00015920  __covrec_DC391CE5546088EE                                      
000017c0  __covrec_DC3FCB1CD0B907FA                                      
00007fa8  __covrec_DC3FF53EE745C134                                      
00004150  __covrec_DC44040CD5577CAF                                      
000239a8  __covrec_DC4ABEDB7CB18580                                      
00025460  __covrec_DC54482443DF736C                                      
00003070  __covrec_DC612321FB754968                                      
0000acf8  __covrec_DC679B92F1EE3E32                                      
0000ee98  __covrec_DC69E42406D125B8                                      
00022850  __covrec_DC8120142E5AA3C2                                      
00022558  __covrec_DC8529AD0C253A64                                      
000214f0  __covrec_DC91B4C1852099B7                                      
00014458  __covrec_DCA2A249A7F128BF                                      
000252d0  __covrec_DCAE1D4F86680A6F                                      
0001b2f8  __covrec_DCB8EBA6C5901A62                                      
0000ab90  __covrec_DCB964463AE10E6B                                      
0001d300  __covrec_DCC15BAB75B71021                                      
00018508  __covrec_DCF02DD5E24A8FFD                                      
00023638  __covrec_DCF2E1E915646DD1                                      
00017608  __covrec_DCF4D42138FE57E5                                      
00007af8  __covrec_DCFDECC609924E0D                                      
00017770  __covrec_DD12E3826143D106                                      
0000a410  __covrec_DD1D58311D02EABE                                      
00017b30  __covrec_DD1E62EB7E85E4C9                                      
00000578  __covrec_DD2DAE6733804F42u                                     
000230e8  __covrec_DD374FAD1A733A1C                                      
00020618  __covrec_DD3BD095BB9882CF                                      
0000a208  __covrec_DD46D3C4DEFB9C99                                      
00008430  __covrec_DD47B775D2BA38FC                                      
000207d0  __covrec_DD49A6AE2A489512                                      
00007f08  __covrec_DD4A0C4B99122703                                      
00023340  __covrec_DD6ABC3BC9B13F5                                       
000036b0  __covrec_DD7190B3978EBC39                                      
00009b00  __covrec_DD7A9DE99C6C5AF4                                      
00007ff8  __covrec_DD8F3F4BB452940E                                      
00019b10  __covrec_DDC2F5C5F05B8E9F                                      
00011030  __covrec_DDCA764F6F979673                                      
0000a3e8  __covrec_DDD36BF1BDB7AA08                                      
00018df0  __covrec_DDF3C7ABCF52DF40                                      
0000ca58  __covrec_DDF81D9F2B5DCDD2                                      
00016848  __covrec_DDFE80346DDAE364                                      
0000b0b8  __covrec_DE0C383DAC236695                                      
000236d8  __covrec_DE2CACF93F987CFA                                      
00006090  __covrec_DE34EC45D2197840                                      
00018328  __covrec_DE4D368759EBD538                                      
0000b810  __covrec_DE53C8C4FE5CC688                                      
0001c770  __covrec_DE7467337E6FBCEE                                      
00019e58  __covrec_DE76924EB4F2FCD1                                      
000025a8  __covrec_DE76C20852CC2132                                      
00005230  __covrec_DE7AA2ACCED77C8                                       
00020118  __covrec_DE94F63CBCD6A402                                      
00015308  __covrec_DEAF12801A9CA606                                      
000257f8  __covrec_DED0F8C98CB47FBA                                      
00002f80  __covrec_DED677DADB7BB886                                      
00016028  __covrec_DEDB504927DC0B78                                      
00016b90  __covrec_DEDCA7BC725056E7                                      
00011c88  __covrec_DEE1C41A02EED5C4                                      
00000ed8  __covrec_DEECC6CD28815579                                      
00018468  __covrec_DEFF42FDFD7D9E87                                      
000172e8  __covrec_DF0A7D180413449C                                      
00017928  __covrec_DF115B317F5C430                                       
0000e420  __covrec_DF19DB5FF8AA4536                                      
00001d60  __covrec_DF2ACD149E3EC26B                                      
000156f0  __covrec_DF3165A3EA9D64C6                                      
0000f4d8  __covrec_DF36CD3867E449BC                                      
0001bca8  __covrec_DF4324A666654F7B                                      
00013b70  __covrec_DF465A079B7A6E97                                      
000187d8  __covrec_DF592D6B2943D071                                      
0000aa50  __covrec_DF7E3D1C5554EC59                                      
0000d408  __covrec_DF80A5B790AC171A                                      
0000af00  __covrec_DF83ECEE727A5DD6                                      
0001a038  __covrec_DF8F47C6221DF313                                      
0001d620  __covrec_DF92A94CD5ED2480                                      
00014138  __covrec_DF99F6B7CA03ED45                                      
00010068  __covrec_DF9BB6D34120A97B                                      
0001f858  __covrec_DFAC83472808A612                                      
00002c88  __covrec_DFB5D1D33A87B86B                                      
00011dc8  __covrec_DFE73B7B1021BC7A                                      
00024e20  __covrec_DFF4FFAC2CDFA80B                                      
00011710  __covrec_DFFFDF448C6D309                                       
00016b68  __covrec_E00B16F169645B17                                      
00021fb8  __covrec_E00D1F457315AEA2                                      
00022788  __covrec_E017057177F657A5                                      
00008548  __covrec_E0574A7F6C7FE9EB                                      
00006e28  __covrec_E0575EF810248D3C                                      
00002eb8  __covrec_E076DE5CF10EA0F6                                      
00009948  __covrec_E0842A3A8957D10D                                      
000038b8  __covrec_E08A7D27AEA0B6C4                                      
0001e7a0  __covrec_E08C991EEEAF4A6C                                      
00014b88  __covrec_E0A31EFFAF4D49CE                                      
0000c350  __covrec_E0DF7F5D25D80AD9                                      
00001f90  __covrec_E0EAD5EDA1401596                                      
00022e68  __covrec_E0F98EA752C98C67                                      
000150b0  __covrec_E0FDEC82B9C99CDC                                      
00005fc8  __covrec_E114898DAAA5BEF6                                      
0001e9a8  __covrec_E129A7E8FA064E26                                      
00021270  __covrec_E151FBF90CD92B7A                                      
00005a50  __covrec_E1530E7A17298A76                                      
0001d5f8  __covrec_E1741E1C1FEE838E                                      
0000dd68  __covrec_E176DE7F78C356A8                                      
00006590  __covrec_E18B4A3D28292E1                                       
000200a0  __covrec_E1918CAA399C52ED                                      
0001cf40  __covrec_E1A30E1B4F980C91                                      
00012188  __covrec_E1A5B2CA3303A7AC                                      
00001838  __covrec_E1A6791F0E05F114                                      
0000a2f8  __covrec_E1B2D1FEB13F85A6                                      
0000ad20  __covrec_E1D05ED567AD88B3                                      
00009ad8  __covrec_E1DBE843867CF66E                                      
000172c0  __covrec_E1DFEC5D496887                                        
00014098  __covrec_E20921E552814F6E                                      
00020ac8  __covrec_E22416991EAE9A13                                      
0000e1f0  __covrec_E248C48590FF7B21                                      
0000ed08  __covrec_E253D24803A745F8                                      
00004d58  __covrec_E25E3C69A2C093FE                                      
0001fc68  __covrec_E284B546EF47EFE4                                      
0001fba0  __covrec_E28AA4D8AA37BB7C                                      
00020f78  __covrec_E2B3CBE0494787A3                                      
000071c0  __covrec_E2BACE41E30617A9                                      
0001ccc0  __covrec_E2BC49106D215FDF                                      
00025618  __covrec_E2C13D8CCB183096                                      
0001d698  __covrec_E2C22A4936FF8F7A                                      
000084a8  __covrec_E2CB17AF898C3228                                      
00020a28  __covrec_E2D2A254D7084D54                                      
0000b018  __covrec_E2E834B6629CE320                                      
00002080  __covrec_E2F64C6B079FF5AB                                      
00004538  __covrec_E30F78146A77D9A7                                      
00020ed8  __covrec_E310EBFC87A74FEA                                      
00008188  __covrec_E322092842F7340                                       
00023ef8  __covrec_E3392E68D8092AFD                                      
00024c68  __covrec_E341DC783B32CB13                                      
000074e0  __covrec_E343A047350791DF                                      
00006888  __covrec_E34511D25E36A244                                      
0001a7e0  __covrec_E346B52F05A65467                                      
00008818  __covrec_E3518C62E0440A85                                      
0001e840  __covrec_E35CD4DC3FB79700                                      
00015ee8  __covrec_E36730D09DD7936C                                      
00012a00  __covrec_E3732906550CD981u                                     
0001c9f0  __covrec_E377B543C679DA6B                                      
000128e0  __covrec_E3820D34BA47BB77                                      
00020ca8  __covrec_E395DF451BEF8FA                                       
0001f358  __covrec_E3A868EB46B23ACB                                      
00006180  __covrec_E3C48853351D961                                       
00004e70  __covrec_E3CF855287A82BEC                                      
0001f718  __covrec_E3DFBD2A832F6CF2                                      
00022e18  __covrec_E3E85BD240BE519C                                      
00006518  __covrec_E40BD4FBEC9475E                                       
00023a20  __covrec_E40F38B16CB82A01                                      
00023368  __covrec_E41939E24BB7AF2D                                      
00007350  __covrec_E4610D219A4ED31                                       
00016438  __covrec_E46163911BAB573B                                      
0000e510  __covrec_E468212A7A4C64E3                                      
000242e0  __covrec_E468D55EFDE77DC3                                      
00004510  __covrec_E49524A10E027AC6                                      
0000fb68  __covrec_E4A1E387ECAC3A2D                                      
000040d8  __covrec_E4B0626E416B19B5                                      
0000c5a8  __covrec_E4B890F76048E996                                      
000142c8  __covrec_E4BB08E6BCCDD44A                                      
0000b130  __covrec_E4BC5C1C9B522724                                      
00015628  __covrec_E4BF0C13C7F6442                                       
00009c18  __covrec_E4C40D5C5CFA6531                                      
000210b8  __covrec_E4CD4A21ECE3A959                                      
00021338  __covrec_E4CFEC018AC3C48E                                      
00005118  __covrec_E4D053578B19A849                                      
00020460  __covrec_E4E9721F492B3BF3                                      
00010748  __covrec_E4EE63A78EBD9E96                                      
00023e58  __covrec_E4F2F0A5878654E2                                      
0001d120  __covrec_E4F77A5421C608BD                                      
000197a0  __covrec_E4FBA9140A482B55                                      
0000b888  __covrec_E5004354570D679                                       
000204b0  __covrec_E5461CF947A5E872                                      
0000ffc8  __covrec_E54F38072A567845                                      
000154c0  __covrec_E55E2C217D46160C                                      
0001fdf8  __covrec_E55F64C97BABC326                                      
00000a50  __covrec_E570407CEC6CB7F0                                      
000101f8  __covrec_E58267904E30DEFA                                      
00016208  __covrec_E599D0A2FDFDE14F                                      
00024fb0  __covrec_E5A782A6075FA69D                                      
0001a560  __covrec_E5BAA4C6824D8BD                                       
000064c8  __covrec_E5BADA89A063A7FE                                      
00023d90  __covrec_E5C29692E62043B3                                      
00009c90  __covrec_E619CCC955A6862B                                      
00006a90  __covrec_E65B615C74CEBB96                                      
000122c8  __covrec_E66B7ADE829927E1                                      
00010310  __covrec_E672E4C139CF37B5                                      
00003908  __covrec_E67E7DC7B1601F23                                      
00023e08  __covrec_E68F02DCEDB7E853                                      
00016f28  __covrec_E69EFB0C4CE4EAFA                                      
0000c788  __covrec_E6A145D181120995                                      
000243f8  __covrec_E6A9BE55B8D634E7                                      
00001810  __covrec_E6B1F129216596D                                       
00022030  __covrec_E6B9158EA4138828                                      
000124a8  __covrec_E6BC0395B465B060                                      
000106a8  __covrec_E6E84AC0AB1FA6F                                       
0000eb78  __covrec_E6EDFEBC4DC305A2                                      
00003c00  __covrec_E701EA8D7F416EB9                                      
000117d8  __covrec_E7095CEEB5EADC68                                      
00017798  __covrec_E7210D4ED94CB1BC                                      
00008ca0  __covrec_E72B77A267908E6C                                      
0001c9a0  __covrec_E732C21944523DE8                                      
000156a0  __covrec_E73539908F5D39B4                                      
0000f050  __covrec_E7450405C7F6F39C                                      
0000bea0  __covrec_E747975BDCB68B72                                      
000021c0  __covrec_E748C901CEE0C64                                       
0001e340  __covrec_E753F02886064EED                                      
000181c0  __covrec_E7759AD25DADDF74                                      
0000f730  __covrec_E77647DCFED80E9                                       
000055a0  __covrec_E77E74F8DA2AF574                                      
0000d660  __covrec_E788ABFEAD96B1B3                                      
00015d58  __covrec_E799FA8FDABFED90                                      
00016550  __covrec_E7C7C4EC6B0E7E9C                                      
0001dee0  __covrec_E7C9892D4DB5DF92                                      
00001158  __covrec_E7E547A68226B4AD                                      
000087c8  __covrec_E7E7144D5ECBBB5                                       
00019160  __covrec_E7E9EDF12A75F5D4                                      
0001ab78  __covrec_E7EFB131A1925BF6                                      
00011300  __covrec_E7F6FCCA4F212604                                      
0001a920  __covrec_E7F89125FADB2EB1                                      
000089f8  __covrec_E801FF57F7B8F56C                                      
000055c8  __covrec_E8170BC21DBCAFEB                                      
0000ea10  __covrec_E82325860AD548EB                                      
0000fac8  __covrec_E8236E0C4E17C5AD                                      
0001ef48  __covrec_E82466F4F4F1A97D                                      
00006860  __covrec_E83844EB97E41293                                      
00003750  __covrec_E85969F560DDD631                                      
0000ee70  __covrec_E85C8D29E7F6CB1F                                      
000108b0  __covrec_E8750E338B985971                                      
00019480  __covrec_E877FC675AB8A419                                      
00002350  __covrec_E87D88B23CD18670                                      
00013728  __covrec_E87E0AE133896FB5u                                     
000092b8  __covrec_E88140DB696B12FA                                      
00001720  __covrec_E8917193E5FEF053                                      
0000f0c8  __covrec_E893E960D0B12CDC                                      
00022ff8  __covrec_E8A081836A2215D4                                      
000246a0  __covrec_E8B7E3B389FF534D                                      
0001d648  __covrec_E8BD5282E63DDE7F                                      
0000e330  __covrec_E8D50A624AF1499A                                      
00007c10  __covrec_E8E82BD5A06CBDFD                                      
0001cc20  __covrec_E8F923593A2E89F0                                      
00004830  __covrec_E9006A34444A2A37                                      
00003de0  __covrec_E960579F8AE392F0                                      
00004998  __covrec_E96F6C670CC524BB                                      
000041a0  __covrec_E98E4523C76567FC                                      
0001aad8  __covrec_E99ED403F1447F35                                      
0001fdd0  __covrec_E9A3A1E60182F09D                                      
0001f920  __covrec_E9BB2D6563F916C9                                      
00006ba8  __covrec_E9CD8EC02240DD72                                      
0000f758  __covrec_E9D0B9A106B570B2                                      
0000edf8  __covrec_E9F6566CE2924DCD                                      
00019c00  __covrec_EA0889CE86745BEB                                      
0000cc88  __covrec_EA1E48C3488CC0E4                                      
00005190  __covrec_EA2293814417AE2                                       
00010130  __covrec_EA2B3784EFBDE16B                                      
00015f60  __covrec_EA32AA8651965B03                                      
00001608  __covrec_EA38372D951F349C                                      
0001a4e8  __covrec_EA46A2CFBD4A8015                                      
00016140  __covrec_EA4ACE560588DA1A                                      
000250a0  __covrec_EA4CA2CD49150809                                      
0001b118  __covrec_EA6DEE83B70CE45D                                      
00019a98  __covrec_EA76B305533F5C33                                      
00008318  __covrec_EA87A98CE1D84D5D                                      
0001bf28  __covrec_EA965D0A9831FE33                                      
0000cad0  __covrec_EAA690377138D9D7                                      
00006ab8  __covrec_EABD2DB4D7FE38C3                                      
0001a088  __covrec_EABF2010EE5DD0DF                                      
000158a8  __covrec_EAD5AD4978976A51                                      
0001c838  __covrec_EADA5C7EAF43B99B                                      
000163c0  __covrec_EAE2A943087D753C                                      
00018058  __covrec_EAE2D8E1C2A7AA9F                                      
000171a8  __covrec_EAFCEE9E0E0851A2                                      
00013be8  __covrec_EB260801B5C3CAC4                                      
0001cd88  __covrec_EB3063223C4FA2D4                                      
00005d20  __covrec_EB354C3B55D00E6E                                      
0000c530  __covrec_EB3CD7B477E32A81                                      
0000ba68  __covrec_EB4E39EF1EA17CA5                                      
00007170  __covrec_EB5AED9D23042DB4                                      
000110f8  __covrec_EB81A68135E0DDA4                                      
00006fe0  __covrec_EB884DF891B7C0B5                                      
000240b0  __covrec_EB967233F7157EA6                                      
0001aba0  __covrec_EBB3A01EC02207ED                                      
00004768  __covrec_EBB9657C4CBDFB97                                      
0000f640  __covrec_EBCEB31F8A3D685C                                      
00003fe8  __covrec_EBD4B15D669FF5C6                                      
00024600  __covrec_EBFFC241DCF42C6F                                      
00005e38  __covrec_EC14A2237089E2CD                                      
0000ccd8  __covrec_EC1CAADB898CC6AE                                      
0001d6e8  __covrec_EC24CDCC4DA4C89E                                      
00020dc0  __covrec_EC4B7BCAD4CE4562                                      
0001b690  __covrec_EC531612C0772DFD                                      
00021e50  __covrec_EC591A5F6A9F3EE7                                      
0001d198  __covrec_EC81A163807EFF02                                      
00002d78  __covrec_EC974998F0B94BAA                                      
000064f0  __covrec_ECA9C1C44D4A3387                                      
00022af8  __covrec_ECACBE2C1337F54A                                      
0000ef38  __covrec_ECC1E88C41748830                                      
0000e790  __covrec_ECF40B9B8A4306F9                                      
00001928  __covrec_ECF55B1F21E4B275                                      
0001d918  __covrec_ED2921FF39F6931F                                      
00021428  __covrec_ED5132579AB74B7                                       
0001d710  __covrec_ED51E4B0E0C4403A                                      
00013df0  __covrec_ED533E3C48FCFDE6                                      
00006d88  __covrec_ED5378248E071109                                      
00015e20  __covrec_ED59F6F7EF5DA16E                                      
000215e0  __covrec_ED6172EA6D608FBF                                      
00010568  __covrec_ED88A247DEB1B920                                      
00022cd8  __covrec_ED955C2CA172481D                                      
0000f208  __covrec_EDA7DA81A150E038                                      
0000dea8  __covrec_EDB3AA564B5BB202                                      
00020b40  __covrec_EDD65A3EF2661A40                                      
0000f398  __covrec_EDDEF903D67BFC06                                      
00009010  __covrec_EDDFCB24481343C8                                      
0000d908  __covrec_EDFD3659CF8A198E                                      
00019fe8  __covrec_EE07273CD7BA7999                                      
000093f8  __covrec_EE0F6CF5ED5E776E                                      
0000a730  __covrec_EE26B27D7B570B3D                                      
0001a150  __covrec_EE36074BFF983BA8                                      
00000000  __covrec_EE3B624BA76DF02u                                      
00014ae8  __covrec_EE3D60871E19E466                                      
00017900  __covrec_EE646ABD48F324B1                                      
00017c98  __covrec_EE67EA54C0D1336B                                      
00021888  __covrec_EE78D4BAE64628AC                                      
000146b0  __covrec_EE96F096B8801EC6                                      
00020000  __covrec_EEA2B8DB7CDF45BA                                      
00002af8  __covrec_EEAE4C8C4CDDB260                                      
0000ff00  __covrec_EEC19C275E247D9D                                      
00006338  __covrec_EEEC5419627FC981                                      
00014890  __covrec_EEEF62D74F96B153                                      
0001fe48  __covrec_EEFFBF196666E0B1                                      
0000d6b0  __covrec_EF06C3EF94148348                                      
0001b348  __covrec_EF2E35E91DA3E7E1                                      
0001e4a8  __covrec_EF321B2448442D75                                      
000190c0  __covrec_EF35E953655323CB                                      
0000bab8  __covrec_EF506552D1D7BE22                                      
00021360  __covrec_EF5DBDB39CA4E3C8                                      
00025b90  __covrec_EF761CE23D988177                                      
00023228  __covrec_EF8C0FB0282EEC3C                                      
00021ec8  __covrec_EFA2EA16983795EB                                      
0001f420  __covrec_EFA7D62E9CC21E11                                      
0001a948  __covrec_EFAAB8BCD7041367                                      
0001fe20  __covrec_EFC421F19CC0695F                                      
00013c38  __covrec_EFCF663EF5A032AF                                      
00011058  __covrec_EFD1C49295F7E42E                                      
00010b58  __covrec_EFE4358F82272623                                      
000074b8  __covrec_F0026EB50F7B8029                                      
000031d8  __covrec_F0078734676383D6                                      
00017e00  __covrec_F00DCE3359CDC797                                      
0001dd00  __covrec_F00EE0E385919F36                                      
0000cf30  __covrec_F01F43B2AB69C7                                        
00022bc0  __covrec_F02A4C0B48BA4DE8                                      
00011968  __covrec_F04D21C3157E4AF3                                      
000186e8  __covrec_F06260284DBD02F                                       
00014ca0  __covrec_F066E71140960A7A                                      
0000bc20  __covrec_F06D606E3FF7FEB2                                      
00024588  __covrec_F09752E0CB6AE9B0                                      
0000ce40  __covrec_F09CDBF34DB339AD                                      
00025488  __covrec_F09FD1D9AFC1248F                                      
0001c248  __covrec_F0A079BD2B655421                                      
0001ad30  __covrec_F0A66ADF393ADCF                                       
00009600  __covrec_F0ACEBB6D32F523D                                      
000018d8  __covrec_F0BB4BC77CD8C0EB                                      
0000ebc8  __covrec_F0C5C704EF22E445                                      
0001e548  __covrec_F0C5F02746706C2E                                      
00025000  __covrec_F0CE01E0D7ADECCD                                      
0000d2a0  __covrec_F0CF892F63A7F7F2                                      
00021658  __covrec_F0ED8DAE27871494                                      
0000c0d0  __covrec_F10A23C35B517DD2                                      
000075a8  __covrec_F13A8066761C463B                                      
0001f768  __covrec_F13BD03F24CD41C4                                      
000173d8  __covrec_F14DF3E88694EB98                                      
00017068  __covrec_F15342EC295C4195                                      
0001c2c0  __covrec_F153F75E52337D9E                                      
00016050  __covrec_F171DFDF9FFAFC4B                                      
00002030  __covrec_F17DC41AD5655B1D                                      
000082c8  __covrec_F1B36A5B4773B81                                       
000224b8  __covrec_F1BB9DCF66B2E665                                      
000224e0  __covrec_F1BD8A9A9F532796                                      
0001dfd0  __covrec_F1C5EA97337A376C                                      
0000fd98  __covrec_F1CA3058F4C0F3B1                                      
0001bc58  __covrec_F1D172C710754A1C                                      
0000e150  __covrec_F1D5AE02B00D28                                        
000049c0  __covrec_F1E83CA2B0CD6A20                                      
000257d0  __covrec_F1F09D90BCEAFB4B                                      
00016ff0  __covrec_F1F94900F96751E4                                      
00023660  __covrec_F2055A48D4124787                                      
00014a20  __covrec_F25CF64A0D786FAD                                      
00004bf0  __covrec_F2618F42DC968004                                      
0000f168  __covrec_F277D89E3DFFF5DD                                      
00022698  __covrec_F279CD3163C64FDB                                      
000097b8  __covrec_F299FB8EC8B5A98D                                      
0000a4d8  __covrec_F29AB24D20F7541B                                      
00007850  __covrec_F2C38226B0B6E63B                                      
000176f8  __covrec_F2E112670F26F589                                      
00012430  __covrec_F2FDFE424BC57950                                      
00021c48  __covrec_F300BE205DE6885F                                      
0001a740  __covrec_F30D5A9CEDC5B010                                      
00022c10  __covrec_F30FE177296AD808                                      
00023fe8  __covrec_F315EEF1D342B2B8                                      
0000cee0  __covrec_F317C3F6F2F95EE3                                      
00006568  __covrec_F31B4D53596DC8E7                                      
0001f218  __covrec_F33FA5E5946D41DF                                      
00013538  __covrec_F34415AA74C2C0B5u                                     
0000e7b8  __covrec_F35691FD0BB8A7B8                                      
00023020  __covrec_F3796B19B12E33D8                                      
0000d778  __covrec_F3809CC4BFBFDA24                                      
00018738  __covrec_F3DEE83188FE9450                                      
00003f20  __covrec_F3F4BEC6FC4C603                                       
00008890  __covrec_F42DCE2D205E9019                                      
00017a90  __covrec_F44105A9DB29ADA8                                      
00012908  __covrec_F442D8DCEFB37265                                      
0001e9f8  __covrec_F446EFFE4ECAF20B                                      
000193e0  __covrec_F44BCDE80540ACE                                       
0001c090  __covrec_F4548201BD3EAC3E                                      
00004c18  __covrec_F454D8ABE2DC2387                                      
00020550  __covrec_F459D04CD914C549                                      
0001baa0  __covrec_F45F6DEB3475DB6C                                      
00023070  __covrec_F4697B9D34D9C2FD                                      
000212e8  __covrec_F46A5C6127C4AB57                                      
00021ba8  __covrec_F488698DD641F6C0                                      
00005ff0  __covrec_F4A6E46EEBB7430F                                      
00001310  __covrec_F4D430A9AC32DC03                                      
00025668  __covrec_F4D6254BED3EB795                                      
00015218  __covrec_F4F2B61C4D5F3D1B                                      
00010fe0  __covrec_F5013732295CEBE5                                      
00013940  __covrec_F515BF3F6C43A13C                                      
00025438  __covrec_F5441364105C4831                                      
0001a718  __covrec_F54F96C40C150854                                      
00004c90  __covrec_F555D7D565E23141                                      
0000a960  __covrec_F5588139E339EF27                                      
0001dd78  __covrec_F55BEBE648827E35                                      
00012de0  __covrec_F5693309C435B169u                                     
00007828  __covrec_F573A0ADEA913771                                      
0001ff38  __covrec_F578DF2B62F3EC2A                                      
00021b08  __covrec_F57EDEDFDA6CF386                                      
000211a8  __covrec_F59242E88E296C60                                      
0001e7f0  __covrec_F592AF369DF303C7                                      
0001da80  __covrec_F59599ABF0D094C0                                      
00019bd8  __covrec_F5A085EC34DA3294                                      
00008b60  __covrec_F5AFEB1EEA354D61                                      
0000b6f8  __covrec_F5B52FC120DCEFF6                                      
00002b20  __covrec_F5BC47E50C3570B4                                      
0001f1f0  __covrec_F5BD1513B88B160C                                      
00014728  __covrec_F5DF5144051CF861                                      
0000ecb8  __covrec_F5F30506630A8A6A                                      
0000b8b0  __covrec_F623366B7B1875EF                                      
000028a0  __covrec_F623BD0F22F6A4D                                       
0001c798  __covrec_F62A4E84854F00AB                                      
0001ee58  __covrec_F63917391CDF1060                                      
0001db98  __covrec_F641D033A3B76080                                      
00001b80  __covrec_F65571CE4E3F88C                                       
00003a70  __covrec_F65C7AC0F7EB18B5                                      
00021e78  __covrec_F67717D560A0A71B                                      
00006900  __covrec_F69D3E0B112353E9                                      
00021748  __covrec_F6A6161E52150C55                                      
00005938  __covrec_F6A64CBDA47317FD                                      
0000f9b0  __covrec_F6B56496C33FA558                                      
00010590  __covrec_F6C47C4FF9C0768B                                      
0001b7f8  __covrec_F6CB0FB76DB7C061                                      
00009380  __covrec_F6DAA592595F28C                                       
00019f98  __covrec_F6DACE3A02BB195F                                      
00000cd0  __covrec_F6DE419292C4B531                                      
0000b590  __covrec_F6E4D297C5804202                                      
00013b98  __covrec_F6EF86C8AD33C5F                                       
0000bef0  __covrec_F6F0D555DD9571C2                                      
0000b950  __covrec_F6F7419BF1DFF9CE                                      
0000eda8  __covrec_F7136B9270F615B7                                      
000203e8  __covrec_F727B396E853F4C6                                      
0000b630  __covrec_F743C000ABE7980A                                      
00017d88  __covrec_F7736ABD36D8BBB4                                      
0001ffb0  __covrec_F7951C80133BC982                                      
0001d350  __covrec_F7C78CEF5E408043                                      
00010950  __covrec_F7CCB73360C44C19                                      
00011670  __covrec_F7E26B3CC76FBD79                                      
0001ac40  __covrec_F7F06F29CD5645B2                                      
0000f8e8  __covrec_F7F273F985C06D9C                                      
00021cc0  __covrec_F7FD019E68E15B66                                      
00013a08  __covrec_F82293AD89C95321                                      
00024290  __covrec_F83801700042C111                                      
0000fde8  __covrec_F83A171A8DE1F8B3                                      
0000e038  __covrec_F84035B684B27B21                                      
000255c8  __covrec_F84476004A9419B5                                      
0000a640  __covrec_F85390884DDE2EF8                                      
00025640  __covrec_F8622FA966D873E9                                      
00006108  __covrec_F86E8E4C58460891                                      
0001e4f8  __covrec_F87ED71B4B96DAF7                                      
00000eb0  __covrec_F87F2A62EAC8F4FB                                      
00011288  __covrec_F88B33E70F89E09                                       
0000be78  __covrec_F8915E7F9ECEA84A                                      
00015150  __covrec_F89C26854B2D1763                                      
00013a58  __covrec_F8B636CC8785578B                                      
0001a1c8  __covrec_F8C67827E38A707E                                      
00017c20  __covrec_F8DAF622177DDF09                                      
00010180  __covrec_F8E27A2D33292F4B                                      
00009ba0  __covrec_F8EC7E727BB49656                                      
00014fe8  __covrec_F8F59A5D281E154A                                      
0001e6d8  __covrec_F90AEA9E33CC3FD0                                      
00010d60  __covrec_F9263E8B0B2360BF                                      
0000b1f8  __covrec_F9407E25A3F45B0C                                      
00003278  __covrec_F9448A84AD8185BA                                      
000091c8  __covrec_F95EAA333DB23898                                      
00011d28  __covrec_F977D804E2DE5C3E                                      
00008778  __covrec_F97C6C392C8944F3                                      
00001040  __covrec_F9850F6D40ADE08F                                      
0001bb68  __covrec_F98706092338D1AC                                      
000157b8  __covrec_F997C76990247678                                      
000003b8  __covrec_F99B5A9295D4E4A4u                                     
0001c8b0  __covrec_F9B8863AA8D07B2E                                      
000169b0  __covrec_F9C1242D2B0E88F1                                      
000194a8  __covrec_F9CEF8B54F659592                                      
0001eac0  __covrec_F9F17622EAACD3F8                                      
0000c7d8  __covrec_FA02E2CA7F81E3AF                                      
00025078  __covrec_FA1A0CD252443CB9                                      
0000f078  __covrec_FA3CF57E57B39F53                                      
00025320  __covrec_FA4E0605556B1FF8                                      
00016618  __covrec_FA532534B8E49667                                      
00009808  __covrec_FA6A73CFC94A4F8F                                      
00023f20  __covrec_FA8C4457FF885F84                                      
00004060  __covrec_FAB52BFBB5CA2B3                                       
000064a0  __covrec_FACA0D83EF2252D9                                      
00016fa0  __covrec_FAF9DCB299F46E05                                      
00010298  __covrec_FB10B5C5DB7D0EAB                                      
00024e70  __covrec_FB1C3EBF78E81EB4                                      
000061a8  __covrec_FB1D8691C0553F                                        
0001d4b8  __covrec_FB25D5ADFAE7CF99                                      
00000fa0  __covrec_FB54D5102C521951                                      
00021950  __covrec_FB5D1BC27A8DD03D                                      
0000e3a8  __covrec_FB615516353485F1                                      
0000a258  __covrec_FB7CF8B94050C947                                      
0000b9a0  __covrec_FB7ED0D421C87335                                      
00008f48  __covrec_FB91A69921C0AA0                                       
00011800  __covrec_FB989D4CBC1E077                                       
00005618  __covrec_FBABB1CFAA0837B                                       
0001c630  __covrec_FBB2491193F06C7C                                      
00024f10  __covrec_FBB328D41253AA63                                      
0000aa78  __covrec_FBCE000054D77117                                      
00007030  __covrec_FBDF9DFB9E695E89                                      
00001e78  __covrec_FBE2FAF21937296B                                      
00014700  __covrec_FBEA5EB78C0ECE47                                      
00002ee0  __covrec_FBFF4A8CB46E08B0                                      
000166e0  __covrec_FC011BFBB3580070                                      
00023160  __covrec_FC2903866F474719                                      
000123e0  __covrec_FC4C0F69166A5CA                                       
0000dbb0  __covrec_FC508B703A037D2C                                      
0000fa00  __covrec_FC6C86B71CC34A40                                      
0000b0e0  __covrec_FCA71EE4D37F88C6                                      
00024a10  __covrec_FCABA0F5ECEDCC50                                      
0001a268  __covrec_FCB5F83EF13F479E                                      
0000ff50  __covrec_FCB920B883F15C5B                                      
0001ca68  __covrec_FCBD9855C8410B60                                      
00016a00  __covrec_FCBEAB076ED5E696                                      
0000a1b8  __covrec_FCDCDFD15AC0E740                                      
0001b028  __covrec_FCE97030B320F56B                                      
0001c298  __covrec_FD07BF04513AA52D                                      
00014688  __covrec_FD4E65FC107866                                        
000048f8  __covrec_FD6EFDF54A7E61F9                                      
0000c210  __covrec_FD7AD1BDA795009C                                      
00011e40  __covrec_FD9DA43F75BC40F9                                      
00008980  __covrec_FDAA4CDD67C3D058                                      
0000f708  __covrec_FDC1FA3BFCE27CA3                                      
00025370  __covrec_FDC3E2FAEE0FE220                                      
000010b8  __covrec_FDD8526D2A93F33C                                      
00005028  __covrec_FDFA5CAFBD69AC08                                      
00013e40  __covrec_FE00A2899632E542                                      
0000bc70  __covrec_FE189E8205BFE13F                                      
0000d0c0  __covrec_FE7D9684EFE6977B                                      
00003700  __covrec_FE88999DF0EAFFD6                                      
0001f740  __covrec_FE89C50404FB1505                                      
0000bfe0  __covrec_FE8AC5C2C53B8D86                                      
00019868  __covrec_FE8C97AFE4526003                                      
00020b18  __covrec_FEA09730A65AF008                                      
00001630  __covrec_FEC5D3DE69CA8E17                                      
00008fc0  __covrec_FEC7313548E6B0A0                                      
0001a358  __covrec_FEC825881F5DF330                                      
0000d728  __covrec_FED7286FD0A0846C                                      
000067e8  __covrec_FEDB316D835D59CB                                      
00011c60  __covrec_FEEDC4A55B8BFBDD                                      
00021e00  __covrec_FEFBA9885AD7A047                                      
00015c18  __covrec_FEFBFAD1C55D9F34                                      
00000848  __covrec_FF2F71DB13F48ED9                                      
0001e570  __covrec_FF35EDE222E83E37                                      
000008e8  __covrec_FF3F3C37D1ECEF0E                                      
0001f268  __covrec_FF5AA72EA0724903                                      
000050c8  __covrec_FF6BB409FA34F363                                      
0001d9e0  __covrec_FF735A13828CCB25                                      
000022b0  __covrec_FF79AF72E78DEE41                                      
00016258  __covrec_FF7FD13D9E3F904D                                      
0000fa78  __covrec_FFA0CFE7D81EDE77                                      
00002da0  __covrec_FFA9859ECBCE5FF5                                      
00015ec0  __covrec_FFBF9291393D90B9                                      
0000c490  __covrec_FFC75160907BE257                                      
00019ed0  __covrec_FFD9A2C13A4608C                                       
000117b0  __covrec_FFDBAA12E3B6E83D                                      
00017108  __covrec_FFDC4185CB0E6A5                                       
0000a0f0  __covrec_FFDFE8E406984E9A                                      
0000bd38  __covrec_FFEA5922A8E15BB8                                      
00016988  __covrec_FFF4B8069E156362                                      
00008660  __covrec_FFFB116B4E183B3A                                      
UNDEFED   __mpu_init                                                     
300008f8  __profc_Default_Handler                                        
30000938  __profc_Reset_Handler                                          
30000940  __profc_SYSCFG_DL_GPIO_init                                    
30000948  __profc_SYSCFG_DL_SPI_1_init                                   
30000950  __profc_SYSCFG_DL_SYSCTL_init                                  
30000958  __profc_SYSCFG_DL_init                                         
30000960  __profc_SYSCFG_DL_initPower                                    
000004b0  __profd_Default_Handler                                        
000004e0  __profd_Reset_Handler                                          
00000060  __profd_SYSCFG_DL_GPIO_init                                    
000000c0  __profd_SYSCFG_DL_SPI_1_init                                   
00000090  __profd_SYSCFG_DL_SYSCTL_init                                  
00000000  __profd_SYSCFG_DL_init                                         
00000030  __profd_SYSCFG_DL_initPower                                    
000008a0  __profd_TFT_DrawChar                                           
00000840  __profd_TFT_DrawPixel                                          
000008d0  __profd_TFT_DrawString                                         
00000870  __profd_TFT_FillRect                                           
00000810  __profd_TFT_FillScreen                                         
00000690  __profd_TFT_HardwareReset                                      
00000720  __profd_TFT_Init                                               
000007b0  __profd_TFT_ReadID                                             
00000750  __profd_TFT_ReadRegister                                       
000007e0  __profd_TFT_SetAddressWindow                                   
00000510  __profd_TFT_WriteCommand                                       
00000600  __profd_TFT_WriteData                                          
00000660  __profd_TFT_WriteData16                                        
00000900  __profd_main                                                   
000005d0  __profd_tft.c_CS_High                                          
00000570  __profd_tft.c_CS_Low                                           
00000540  __profd_tft.c_DC_Command                                       
00000630  __profd_tft.c_DC_Data                                          
000009f0  __profd_tft.c_DL_Common_updateReg                              
000006c0  __profd_tft.c_DL_GPIO_clearPins                                
000006f0  __profd_tft.c_DL_GPIO_setPins                                  
00000960  __profd_tft.c_DL_SPI_enable                                    
000009c0  __profd_tft.c_DL_SPI_isBusy                                    
00000780  __profd_tft.c_DL_SPI_receiveData8                              
00000930  __profd_tft.c_DL_SPI_setBitRateSerialClockDivider              
00000990  __profd_tft.c_DL_SPI_transmitData8                             
000005a0  __profd_tft.c_SPI_WriteByte                                    
00000480  __profd_ti_msp_dl_config.c_DL_Common_updateReg                 
000001e0  __profd_ti_msp_dl_config.c_DL_GPIO_clearPins                   
00000210  __profd_ti_msp_dl_config.c_DL_GPIO_enableOutput                
00000150  __profd_ti_msp_dl_config.c_DL_GPIO_enablePower                 
000001b0  __profd_ti_msp_dl_config.c_DL_GPIO_initDigitalOutput           
00000270  __profd_ti_msp_dl_config.c_DL_GPIO_initPeripheralInputFunction 
00000240  __profd_ti_msp_dl_config.c_DL_GPIO_initPeripheralOutputFunction
000000f0  __profd_ti_msp_dl_config.c_DL_GPIO_reset                       
000003c0  __profd_ti_msp_dl_config.c_DL_SPI_enable                       
00000180  __profd_ti_msp_dl_config.c_DL_SPI_enablePower                  
00000120  __profd_ti_msp_dl_config.c_DL_SPI_reset                        
00000360  __profd_ti_msp_dl_config.c_DL_SPI_setBitRateSerialClockDivider 
00000390  __profd_ti_msp_dl_config.c_DL_SPI_setFIFOThreshold             
00000300  __profd_ti_msp_dl_config.c_DL_SYSCTL_disableHFXT               
00000330  __profd_ti_msp_dl_config.c_DL_SYSCTL_disableSYSPLL             
000002a0  __profd_ti_msp_dl_config.c_DL_SYSCTL_setBORThreshold           
000002d0  __profd_ti_msp_dl_config.c_DL_SYSCTL_setSYSOSCFreq             
00000420  __profd_ti_msp_dl_config.c_DL_UNICOMM_enablePower              
000003f0  __profd_ti_msp_dl_config.c_DL_UNICOMM_reset                    
00000450  __profd_ti_msp_dl_config.c_DL_UNICOMM_setIPMode                
3003fef8  __stack                                                        
30000000  __start___llvm_prf_bits                                        
30000800  __start___llvm_prf_cnts                                        
30000000  __stop___llvm_prf_bits                                         
30000aa0  __stop___llvm_prf_cnts                                         
10009c7d  __udivmoddi4                                                   
1000a7a5  _c_int00_noargs                                                
30000b90  _device                                                        
30000aa0  _ftable                                                        
30000c68  _lock                                                          
100075bb  _nop                                                           
30000c08  _stream                                                        
30000000  _sys_memory                                                    
UNDEFED   _system_post_cinit                                             
1000a931  _system_pre_init                                               
30000c6c  _unlock                                                        
1000a919  abort                                                          
10009745  aligned_alloc                                                  
1000a49d  atoi                                                           
ffffffff  binit                                                          
1000a1a9  close                                                          
1000a621  exit                                                           
1000a67d  finddevice                                                     
10009dc9  fputc                                                          
10009851  fputs                                                          
1000994d  free                                                           
1000a935  fseek                                                          
1000a015  fseeko                                                         
1000a07d  getdevice                                                      
10000000  interruptVectors                                               
1000a6a9  lseek                                                          
100065c1  main                                                           
1000a911  malloc                                                         
10009745  memalign                                                       
1000a7c9  memccpy                                                        
10009d2d  memcpy                                                         
10009ec5  memset                                                         
30000e34  parmbuf                                                        
1000a209  printf                                                         
1000a939  remove                                                         
10009a29  setvbuf                                                        
1000a519  sprintf                                                        
100088a9  strcmp                                                         
1000a6d5  unlink                                                         
1000a8a3  wcslen                                                         
1000a701  write                                                          


GLOBAL SYMBOLS: SORTED BY Symbol Address 

address   name                                                           
-------   ----                                                           
00000000  __TI_ATRegion0_region_sz                                       
00000000  __TI_ATRegion0_src_addr                                        
00000000  __TI_ATRegion0_trg_addr                                        
00000000  __TI_ATRegion1_region_sz                                       
00000000  __TI_ATRegion1_src_addr                                        
00000000  __TI_ATRegion1_trg_addr                                        
00000000  __TI_ATRegion2_region_sz                                       
00000000  __TI_ATRegion2_src_addr                                        
00000000  __TI_ATRegion2_trg_addr                                        
00000000  __covrec_EE3B624BA76DF02u                                      
00000000  __profd_SYSCFG_DL_init                                         
00000030  __covrec_8A9FB042CC4F2B10u                                     
00000030  __profd_SYSCFG_DL_initPower                                    
00000060  __profd_SYSCFG_DL_GPIO_init                                    
00000088  __covrec_347F5236CD6A8821u                                     
00000090  __profd_SYSCFG_DL_SYSCTL_init                                  
000000c0  __profd_SYSCFG_DL_SPI_1_init                                   
000000f0  __profd_ti_msp_dl_config.c_DL_GPIO_reset                       
00000100  __STACK_SIZE                                                   
00000120  __profd_ti_msp_dl_config.c_DL_SPI_reset                        
00000150  __profd_ti_msp_dl_config.c_DL_GPIO_enablePower                 
00000180  __profd_ti_msp_dl_config.c_DL_SPI_enablePower                  
000001b0  __profd_ti_msp_dl_config.c_DL_GPIO_initDigitalOutput           
000001e0  __profd_ti_msp_dl_config.c_DL_GPIO_clearPins                   
00000210  __profd_ti_msp_dl_config.c_DL_GPIO_enableOutput                
00000240  __profd_ti_msp_dl_config.c_DL_GPIO_initPeripheralOutputFunction
00000270  __profd_ti_msp_dl_config.c_DL_GPIO_initPeripheralInputFunction 
000002a0  __profd_ti_msp_dl_config.c_DL_SYSCTL_setBORThreshold           
000002a8  __covrec_C7CF69551785A508u                                     
000002d0  __profd_ti_msp_dl_config.c_DL_SYSCTL_setSYSOSCFreq             
000002e8  __covrec_73D06BFCEB79115Fu                                     
00000300  __profd_ti_msp_dl_config.c_DL_SYSCTL_disableHFXT               
00000330  __profd_ti_msp_dl_config.c_DL_SYSCTL_disableSYSPLL             
00000360  __profd_ti_msp_dl_config.c_DL_SPI_setBitRateSerialClockDivider 
00000368  __covrec_4E1A7F59973ACCB2u                                     
00000390  __profd_ti_msp_dl_config.c_DL_SPI_setFIFOThreshold             
000003b8  __covrec_F99B5A9295D4E4A4u                                     
000003c0  __profd_ti_msp_dl_config.c_DL_SPI_enable                       
000003e8  __covrec_CD4A8BBF42B93D9Du                                     
000003f0  __profd_ti_msp_dl_config.c_DL_UNICOMM_reset                    
00000420  __profd_ti_msp_dl_config.c_DL_UNICOMM_enablePower              
00000438  __covrec_BEEFAD7D9530066Eu                                     
00000450  __profd_ti_msp_dl_config.c_DL_UNICOMM_setIPMode                
00000478  __covrec_8DCACE79A3C220A9u                                     
00000480  __profd_ti_msp_dl_config.c_DL_Common_updateReg                 
000004b0  __profd_Default_Handler                                        
000004c8  __covrec_9613F930BEF71DDDu                                     
000004e0  __profd_Reset_Handler                                          
00000508  __covrec_A5A75A50A6681C5Cu                                     
00000510  __profd_TFT_WriteCommand                                       
00000540  __covrec_57CDA72D04A5E694u                                     
00000540  __profd_tft.c_DC_Command                                       
00000570  __profd_tft.c_CS_Low                                           
00000578  __covrec_DD2DAE6733804F42u                                     
000005a0  __covrec_6497BFE2A00B8653u                                     
000005a0  __profd_tft.c_SPI_WriteByte                                    
000005c8  __covrec_90C9B803289D8B5Bu                                     
000005d0  __profd_tft.c_CS_High                                          
00000600  __covrec_CAC374A65142BF09u                                     
00000600  __profd_TFT_WriteData                                          
00000630  __profd_tft.c_DC_Data                                          
00000640  __covrec_52DA6B89AFD9BEEFu                                     
00000660  __profd_TFT_WriteData16                                        
00000668  __covrec_D7DFE1844D8B0F8Cu                                     
00000690  __profd_TFT_HardwareReset                                      
000006a0  __covrec_B44C2FD68F1F000Au                                     
000006c0  __profd_tft.c_DL_GPIO_clearPins                                
000006d0  __covrec_754DE0ABC1699C52u                                     
000006f0  __profd_tft.c_DL_GPIO_setPins                                  
00000708  __covrec_BE2747E0B77C11DCu                                     
00000720  __profd_TFT_Init                                               
00000740  __covrec_A72580571A0F056Du                                     
00000750  __profd_TFT_ReadRegister                                       
00000778  __covrec_AFB7312F1F304372u                                     
00000780  __profd_tft.c_DL_SPI_receiveData8                              
000007b0  __profd_TFT_ReadID                                             
000007c0  __covrec_60BB75E91683A620u                                     
000007e0  __profd_TFT_SetAddressWindow                                   
000007f8  __covrec_9A4402462CFB25DF                                      
00000800  __SYSMEM_SIZE                                                  
00000810  __profd_TFT_FillScreen                                         
00000820  __covrec_46BEBFAC6345CB29                                      
00000840  __profd_TFT_DrawPixel                                          
00000848  __covrec_FF2F71DB13F48ED9                                      
00000870  __covrec_A817DEA7EA22BFD4                                      
00000870  __profd_TFT_FillRect                                           
00000898  __covrec_D7C7FD587CF7F27E                                      
000008a0  __profd_TFT_DrawChar                                           
000008c0  __covrec_64798FC843A57EC4                                      
000008d0  __profd_TFT_DrawString                                         
000008e8  __covrec_FF3F3C37D1ECEF0E                                      
00000900  __profd_main                                                   
00000910  __covrec_365DCC393F100621                                      
00000930  __profd_tft.c_DL_SPI_setBitRateSerialClockDivider              
00000938  __covrec_C0751327896BCD4C                                      
00000960  __covrec_4378EEF47529ACB7                                      
00000960  __profd_tft.c_DL_SPI_enable                                    
00000988  __covrec_4442015EC0C5EEBB                                      
00000990  __profd_tft.c_DL_SPI_transmitData8                             
000009b0  __covrec_9672CC8BFCA5E55F                                      
000009c0  __profd_tft.c_DL_SPI_isBusy                                    
000009d8  __covrec_107802700ECD7C02                                      
000009f0  __profd_tft.c_DL_Common_updateReg                              
00000a00  __covrec_166C82B5B146B5D7                                      
00000a28  __covrec_8833BE5CC8D8CD39                                      
00000a50  __covrec_E570407CEC6CB7F0                                      
00000a78  __covrec_AE0BED86C6A7FF8E                                      
00000aa0  __covrec_547CF9FBFA8DAB2                                       
00000ac8  __covrec_C9152F537137F215                                      
00000af0  __covrec_78A6620B2B654D40                                      
00000b18  __covrec_D68C7935EACE4A97                                      
00000b40  __covrec_54BFE4BB339D82FA                                      
00000b68  __covrec_754324FB8D9A7A07                                      
00000b90  __covrec_3FD1311A037EBF95                                      
00000bb8  __covrec_31B0598EDF1F8AA0                                      
00000be0  __covrec_A04768BF98A46F04                                      
00000c08  __covrec_2ADD8BD0BF6DAA7F                                      
00000c30  __covrec_7E833D27BC76F69                                       
00000c58  __covrec_1313DC5687DCCBE4                                      
00000c80  __covrec_A1138DE5EAE933DC                                      
00000ca8  __covrec_75F1BF7FBDDFEB47                                      
00000cd0  __covrec_F6DE419292C4B531                                      
00000cf8  __covrec_6041B4936B66AE76                                      
00000d20  __covrec_38A0CEE2744B092C                                      
00000d48  __covrec_98A9B8719202C524                                      
00000d70  __covrec_724B69EBC536E402                                      
00000d98  __covrec_8BB0E9BD6752B68F                                      
00000dc0  __covrec_D5B4CC8656A701E4                                      
00000de8  __covrec_260485F951D8CFA2                                      
00000e10  __covrec_831E1A4E4267625                                       
00000e38  __covrec_8A64EB646297B7C9                                      
00000e60  __covrec_4C80DA44FB3A96A9                                      
00000e88  __covrec_C637502431AE366C                                      
00000eb0  __covrec_F87F2A62EAC8F4FB                                      
00000ed8  __covrec_DEECC6CD28815579                                      
00000f00  __covrec_6772213A314354D1                                      
00000f28  __covrec_5DF05A020DDAC415                                      
00000f50  __covrec_8CC88C2980D5E8E7                                      
00000f78  __covrec_688EB108228CD2D5                                      
00000fa0  __covrec_FB54D5102C521951                                      
00000fc8  __covrec_B27A7CC7DFBAAB69                                      
00000ff0  __covrec_2B9ED78528214928                                      
00001018  __covrec_7A9D5D7B9AB5F84B                                      
00001040  __covrec_F9850F6D40ADE08F                                      
00001068  __covrec_76904C01277EB08D                                      
00001090  __covrec_2429638F3104CEC6                                      
000010b8  __covrec_FDD8526D2A93F33C                                      
000010e0  __covrec_9371DF3BA7A24845                                      
00001108  __covrec_4A7ED0D2F2AEA5EE                                      
00001130  __covrec_10D83D798DF85215                                      
00001158  __covrec_E7E547A68226B4AD                                      
00001180  __covrec_22D092EAE16D02EF                                      
000011a8  __covrec_3A26CCF0B62A8E89                                      
000011d0  __covrec_927B310F26D3C792                                      
000011f8  __covrec_5F8A9EEA556599FE                                      
00001220  __covrec_B9537AAE86C9A6BD                                      
00001248  __covrec_24D80F5FFDB3B16                                       
00001270  __covrec_C72CDDA90EDC4BAD                                      
00001298  __covrec_153C71C9353F6537                                      
000012c0  __covrec_C165DBE4DFA429BB                                      
000012e8  __covrec_3C4C09DA7A2DAAD2                                      
00001310  __covrec_F4D430A9AC32DC03                                      
00001338  __covrec_6286C85827C38416                                      
00001360  __covrec_172B59B25D72358A                                      
00001388  __covrec_B7020FE632FE5CBA                                      
000013b0  __covrec_AC85984330425F4                                       
000013d8  __covrec_93B792D30284781D                                      
00001400  __covrec_17F9955224B25587                                      
00001428  __covrec_36AB183A395E4CAF                                      
00001450  __covrec_D682D97A67E8CF22                                      
00001478  __covrec_1BC9AF92F5A17ABA                                      
000014a0  __covrec_96B898C1AEF5ABFE                                      
000014c8  __covrec_7F5390900BC1E039                                      
000014f0  __covrec_76E4256734D158F0                                      
00001518  __covrec_D41E15BD3C137045                                      
00001540  __covrec_D4A58762ABE74B26                                      
00001568  __covrec_536847D883D87D6E                                      
00001590  __covrec_D2FBD09CF9175ADA                                      
000015b8  __covrec_5C3E23360D9CC29D                                      
000015e0  __covrec_392FECAD18A74184                                      
00001608  __covrec_EA38372D951F349C                                      
00001630  __covrec_FEC5D3DE69CA8E17                                      
00001658  __covrec_174915AB4E2EDF5C                                      
00001680  __covrec_39C130C9E557E548                                      
000016a8  __covrec_8B65E50AD9B90CB2                                      
000016d0  __covrec_51BBACEB942ABDE0                                      
000016f8  __covrec_3325AABB0D89DD6E                                      
00001720  __covrec_E8917193E5FEF053                                      
00001748  __covrec_31B1F8CB4704B234                                      
00001770  __covrec_CD2ABFA5EBEDE95E                                      
00001798  __covrec_945B320FDD26C251                                      
000017c0  __covrec_DC3FCB1CD0B907FA                                      
000017e8  __covrec_843E4D1E9BF6B555                                      
00001810  __covrec_E6B1F129216596D                                       
00001838  __covrec_E1A6791F0E05F114                                      
00001860  __covrec_BC45A73D645FD3FC                                      
00001888  __covrec_7B0D1997C0B96950                                      
000018b0  __covrec_4EC6A12FB13E3388                                      
000018d8  __covrec_F0BB4BC77CD8C0EB                                      
00001900  __covrec_4600AE4381D2A14B                                      
00001928  __covrec_ECF55B1F21E4B275                                      
00001950  __covrec_B11B2EE5DD5BF989                                      
00001978  __covrec_9CE83C69FDCAB33F                                      
000019a0  __covrec_8D041F01DCFF76E9                                      
000019c8  __covrec_6BD34685A631A1D6                                      
000019f0  __covrec_8C68376B81A654D                                       
00001a18  __covrec_6C6F66E03D089E18                                      
00001a40  __covrec_DB095F1DF7361C4                                       
00001a68  __covrec_17E07C5FF5F82422                                      
00001a90  __covrec_5C2CCE1E95C8ED88                                      
00001ab8  __covrec_68D7D6BD174BD691                                      
00001ae0  __covrec_1A3FA77D293B3485                                      
00001b08  __covrec_6984BC0E4025AAAD                                      
00001b30  __covrec_B9B5FC828B38D38D                                      
00001b58  __covrec_3DC72BA4C9ECB1F9                                      
00001b80  __covrec_F65571CE4E3F88C                                       
00001ba8  __covrec_CC106C1DC2E570F1                                      
00001bd0  __covrec_A35E9CF26F2BDBBC                                      
00001bf8  __covrec_2A8B557658325237                                      
00001c20  __covrec_338D56CED01B062B                                      
00001c48  __covrec_9FD05553BDBB26A0                                      
00001c70  __covrec_45D841902927495C                                      
00001c98  __covrec_2D13BBFC3A449323                                      
00001cc0  __covrec_D601B461E1A36E5E                                      
00001ce8  __covrec_753F40F7B964E92B                                      
00001d10  __covrec_D94C1F618B4FD7E8                                      
00001d38  __covrec_A582FD26365EDEB5                                      
00001d60  __covrec_DF2ACD149E3EC26B                                      
00001d88  __covrec_BD0209660F1F417F                                      
00001db0  __covrec_7A071E65D3316B74                                      
00001dd8  __covrec_9BED06F3F05054A7                                      
00001e00  __covrec_97FE914C95D2847E                                      
00001e28  __covrec_6A0D657EAAFA6D83                                      
00001e50  __covrec_B99C443DB87550BB                                      
00001e78  __covrec_FBE2FAF21937296B                                      
00001ea0  __covrec_826D827693E26F8E                                      
00001ec8  __covrec_982A03B6F4015226                                      
00001ef0  __covrec_1CC14C8A376E03E3                                      
00001f18  __covrec_33562C81DF7B10BF                                      
00001f40  __covrec_6BF83EE06BDBD2E2                                      
00001f68  __covrec_2A5F24567CA81B28                                      
00001f90  __covrec_E0EAD5EDA1401596                                      
00001fb8  __covrec_AD57993B2D1B4ADD                                      
00001fe0  __covrec_AFA442495C6D179E                                      
00002008  __covrec_CC76C5EF96D89539                                      
00002030  __covrec_F17DC41AD5655B1D                                      
00002058  __covrec_C17BEFE86E29456D                                      
00002080  __covrec_E2F64C6B079FF5AB                                      
000020a8  __covrec_A60CE06FA61792A8                                      
000020d0  __covrec_245CEEBD24015B1F                                      
000020f8  __covrec_16F02D052FF565BE                                      
00002120  __covrec_5EF187E37416A4F9                                      
00002148  __covrec_8B1AB1F5C66D6D39                                      
00002170  __covrec_AEF580CD966715F9                                      
00002198  __covrec_8ADC157C3BA0D74                                       
000021c0  __covrec_E748C901CEE0C64                                       
000021e8  __covrec_36CAFF9A6A4269C6                                      
00002210  __covrec_C66DD2C07ECA2C23                                      
00002238  __covrec_A94C22CB595C43D7                                      
00002260  __covrec_2356CFAA058BDA63                                      
00002288  __covrec_ACC0C4F85F9EECDE                                      
000022b0  __covrec_FF79AF72E78DEE41                                      
000022d8  __covrec_C4A3B254D2D9F398                                      
00002300  __covrec_51DD21FD505FE478                                      
00002328  __covrec_3C422C657214FCF6                                      
00002350  __covrec_E87D88B23CD18670                                      
00002378  __covrec_82D68F70652044A4                                      
000023a0  __covrec_904ACE8D0D9342BF                                      
000023c8  __covrec_67DA54DDFC65307F                                      
000023f0  __covrec_8EF895267F5CDD60                                      
00002418  __covrec_2D61228427B0BF14                                      
00002440  __covrec_AD7F2294BFBEBDD6                                      
00002468  __covrec_C8956EA37A365FE5                                      
00002490  __covrec_5A3EEBA233C7FD36                                      
000024b8  __covrec_5EEB11B587254FC6                                      
000024e0  __covrec_9D61967B1604A9FF                                      
00002508  __covrec_759DA5659B0848DA                                      
00002530  __covrec_51932377A8B429F2                                      
00002558  __covrec_B4C2F0FEBCAF2F60                                      
00002580  __covrec_A23437AA47C4156F                                      
000025a8  __covrec_DE76C20852CC2132                                      
000025d0  __covrec_614A14DB5C7FA19C                                      
000025f8  __covrec_5F54C48325B5A57F                                      
00002620  __covrec_87C9BEA1359FC9A0                                      
00002648  __covrec_99723926C2A9DDD1                                      
00002670  __covrec_2662EFE42B16DEE1                                      
00002698  __covrec_B24530735833F91C                                      
000026c0  __covrec_C36BC5DC6B7BAC00                                      
000026e8  __covrec_AB53902A6CB08F7A                                      
00002710  __covrec_9684DC37DE1EE5D0                                      
00002738  __covrec_6FA5483804028977                                      
00002760  __covrec_37752C52AA74DBFE                                      
00002788  __covrec_3B3A4AD98C182DE4                                      
000027b0  __covrec_9F301B3FF3F09194                                      
000027d8  __covrec_D15FC9E9035023E4                                      
00002800  __covrec_32F0D770382D1DA9                                      
00002828  __covrec_333383517C1FF008                                      
00002850  __covrec_C820D13AAADDFBF9                                      
00002878  __covrec_81193C19F1226052                                      
000028a0  __covrec_F623BD0F22F6A4D                                       
000028c8  __covrec_CBFAAF6E85E67C2A                                      
000028f0  __covrec_3D0A3FF0C21D6472                                      
00002918  __covrec_B1FB48C95F950150                                      
00002940  __covrec_755B8BFE980A79C2                                      
00002968  __covrec_AD930365B8D74045                                      
00002990  __covrec_8546DDDFA9C4DAA6                                      
000029b8  __covrec_74BCAFA8ECADE0A0                                      
000029e0  __covrec_5F2C4E1FA0B9AA98                                      
00002a08  __covrec_4BCFC91C4159B7BB                                      
00002a30  __covrec_6BDA03C7088A51E1                                      
00002a58  __covrec_8EE48BF767F05E71                                      
00002a80  __covrec_CBD9B5558060A720                                      
00002aa8  __covrec_BEA364F8E4F6612A                                      
00002ad0  __covrec_24C869B71C1745EC                                      
00002af8  __covrec_EEAE4C8C4CDDB260                                      
00002b20  __covrec_F5BC47E50C3570B4                                      
00002b48  __covrec_83FC5939804F48BE                                      
00002b70  __covrec_674309A670714414                                      
00002b98  __covrec_3A479AE32438F206                                      
00002bc0  __covrec_511C8E60BD52A8FB                                      
00002be8  __covrec_302F2AC2878AEE63                                      
00002c10  __covrec_D55622F88F5226B7                                      
00002c38  __covrec_449CAC6A58F3AD72                                      
00002c60  __covrec_3EA0432BC3C9FA6C                                      
00002c88  __covrec_DFB5D1D33A87B86B                                      
00002cb0  __covrec_4351608A646C6B0                                       
00002cd8  __covrec_51714BA3B36DEA32                                      
00002d00  __covrec_B5B67982233FDBC                                       
00002d28  __covrec_6DDBBF9D5036FD29                                      
00002d50  __covrec_32E8DB488C68B78D                                      
00002d78  __covrec_EC974998F0B94BAA                                      
00002da0  __covrec_FFA9859ECBCE5FF5                                      
00002dc8  __covrec_C19614860C5B3309                                      
00002df0  __covrec_B3D5A60E04922FE                                       
00002e18  __covrec_4665283335DF6F97                                      
00002e40  __covrec_7462DC7A71D86840                                      
00002e68  __covrec_86BE7AAE5C9A1D91                                      
00002e90  __covrec_1AE60D0DA8D77CF0                                      
00002eb8  __covrec_E076DE5CF10EA0F6                                      
00002ee0  __covrec_FBFF4A8CB46E08B0                                      
00002f08  __covrec_7BB562F45E0D5B23                                      
00002f30  __covrec_358682B259B0A962                                      
00002f58  __covrec_73DD9FCB2CCA7C8E                                      
00002f80  __covrec_DED677DADB7BB886                                      
00002fa8  __covrec_259FE72B02F982E3                                      
00002fd0  __covrec_59FF2B4C942CC8BA                                      
00002ff8  __covrec_3E5598E6C0B42553                                      
00003020  __covrec_934A4CFD323FFCEA                                      
00003048  __covrec_BE6EA14CE4CA1756                                      
00003070  __covrec_DC612321FB754968                                      
00003098  __covrec_2F298529E754A752                                      
000030c0  __covrec_2DD25A1E0605CEF0                                      
000030e8  __covrec_80DCCF459AA832D6                                      
00003110  __covrec_6EFB6DE4C2F58B43                                      
00003138  __covrec_62C0A1F549FDA73                                       
00003160  __covrec_CA08C308926F86A5                                      
00003188  __covrec_75AAF50C859E50CC                                      
000031b0  __covrec_AB18DF03A4278F7C                                      
000031d8  __covrec_F0078734676383D6                                      
00003200  __covrec_133E6E5754396960                                      
00003228  __covrec_619272C7739451E2                                      
00003250  __covrec_36371372719FAE20                                      
00003278  __covrec_F9448A84AD8185BA                                      
000032a0  __covrec_68D88CCC12AD2A3F                                      
000032c8  __covrec_AA551E34D18F74A4                                      
000032f0  __covrec_831A63E7C251114F                                      
00003318  __covrec_AFCA5308CBE5226                                       
00003340  __covrec_C6E5A9332171B0BC                                      
00003368  __covrec_889A5AA5ACC834CB                                      
00003390  __covrec_823F1D2457AF8D4E                                      
000033b8  __covrec_34D87877B62187C0                                      
000033e0  __covrec_BF2D601022292D70                                      
00003408  __covrec_B6093B1DCE09925C                                      
00003430  __covrec_2B9D588B68FFC9FD                                      
00003458  __covrec_1F4169E57C49DBAC                                      
00003480  __covrec_6C58C8CB7A51E29B                                      
000034a8  __covrec_583D9624CEFEF063                                      
000034d0  __covrec_AA6FBA67DEF67586                                      
000034f8  __covrec_7B4F680C24B702F2                                      
00003520  __covrec_D996028D5A69C6F2                                      
00003548  __covrec_60463F3D453FCBCE                                      
00003570  __covrec_AF5F32085D968C75                                      
00003598  __covrec_5E1546171B50C0C5                                      
000035c0  __covrec_5AA5C0ECFAA2F10                                       
000035e8  __covrec_280C086A8D3E033A                                      
00003610  __covrec_5749A9E4CCC687D1                                      
00003638  __covrec_62A98C93F42CDCD3                                      
00003660  __covrec_3B9AD5E448524FFF                                      
00003688  __covrec_B30841581A67FF30                                      
000036b0  __covrec_DD7190B3978EBC39                                      
000036d8  __covrec_73B1F7479AB6411A                                      
00003700  __covrec_FE88999DF0EAFFD6                                      
00003728  __covrec_5959C51EAFB0B0AB                                      
00003750  __covrec_E85969F560DDD631                                      
00003778  __covrec_BE863C686EAC33EF                                      
000037a0  __covrec_C14829C5FDA5D6EA                                      
000037c8  __covrec_650B600441780F70                                      
000037f0  __covrec_3A36369733F8D5B6                                      
00003818  __covrec_3CC05BCBB89EC8C0                                      
00003840  __covrec_78AD70B3007626BA                                      
00003868  __covrec_58173AEB70F92F68                                      
00003890  __covrec_ACDEA53952D33B4F                                      
000038b8  __covrec_E08A7D27AEA0B6C4                                      
000038e0  __covrec_D85940657E5DE4DF                                      
00003908  __covrec_E67E7DC7B1601F23                                      
00003930  __covrec_36CEC9582B8D65CF                                      
00003958  __covrec_CBF2E73A32284FE9                                      
00003980  __covrec_A129DDC39A66AF54                                      
000039a8  __covrec_5C20B4D769B6D32F                                      
000039d0  __covrec_9637A9217038C34B                                      
000039f8  __covrec_BDE4D2739B89D2E9                                      
00003a20  __covrec_6471B342D16BEEB2                                      
00003a48  __covrec_97A00561A864863A                                      
00003a70  __covrec_F65C7AC0F7EB18B5                                      
00003a98  __covrec_CE63BEA95B1AAA26                                      
00003ac0  __covrec_64CC73B6A273C4C6                                      
00003ae8  __covrec_9BB5C9E7D8F22F76                                      
00003b10  __covrec_B52663DA78115B23                                      
00003b38  __covrec_65CF7FB8BFC9DCA0                                      
00003b60  __covrec_4B1752517A897C5                                       
00003b88  __covrec_D9D1CA770677649C                                      
00003bb0  __covrec_DA73F3FA2202180A                                      
00003bd8  __covrec_433BCD6A7AE9A476                                      
00003c00  __covrec_E701EA8D7F416EB9                                      
00003c28  __covrec_5333A61D2C451B71                                      
00003c50  __covrec_910A6D471848A06A                                      
00003c78  __covrec_AA7C108880CD93D6                                      
00003ca0  __covrec_93AB60BEB75C916D                                      
00003cc8  __covrec_A0DAA40F9ED6261A                                      
00003cf0  __covrec_657DCEB9CBC9A15                                       
00003d18  __covrec_23A2723218FB953F                                      
00003d40  __covrec_3BB04CDDF195DCC8                                      
00003d68  __covrec_37BBD65DD58D473                                       
00003d90  __covrec_75F48255A7DB16EE                                      
00003db8  __covrec_50443E9660573DAD                                      
00003de0  __covrec_E960579F8AE392F0                                      
00003e08  __covrec_B98076446EF295FD                                      
00003e30  __covrec_CF07008B357FC16E                                      
00003e58  __covrec_94E6AF6193706E7F                                      
00003e80  __covrec_BA9D085EEB283A31                                      
00003ea8  __covrec_A1ADEE0AAE7AB6EF                                      
00003ed0  __covrec_887A079051E440D0                                      
00003ef8  __covrec_4F2301F1873D147E                                      
00003f20  __covrec_F3F4BEC6FC4C603                                       
00003f48  __covrec_8A1E5EF64B22B12B                                      
00003f70  __covrec_D0FDD256AE50233D                                      
00003f98  __covrec_4FE47ABC0D76B93E                                      
00003fc0  __covrec_D9DF300B9FB82770                                      
00003fe8  __covrec_EBD4B15D669FF5C6                                      
00004010  __covrec_7092067BD5916200                                      
00004038  __covrec_87E2C683173C05DA                                      
00004060  __covrec_FAB52BFBB5CA2B3                                       
00004088  __covrec_B065FF55E74FCCD1                                      
000040b0  __covrec_3BEB96B4128A074A                                      
000040d8  __covrec_E4B0626E416B19B5                                      
00004100  __covrec_49838A933E918F6A                                      
00004128  __covrec_735D7B941E383EA1                                      
00004150  __covrec_DC44040CD5577CAF                                      
00004178  __covrec_4125B57286A5529                                       
000041a0  __covrec_E98E4523C76567FC                                      
000041c8  __covrec_5284D5E45F2661CB                                      
000041f0  __covrec_3660EF20DA7A07C2                                      
00004218  __covrec_A423D128DFA778BC                                      
00004240  __covrec_25B72A3D7BD5840F                                      
00004268  __covrec_3A1D4C8225602426                                      
00004290  __covrec_4F98EC9A5D6C22FC                                      
000042b8  __covrec_7E094802DB2C7872                                      
000042e0  __covrec_1B9CA30A65B78731                                      
00004308  __covrec_B7F8AA0A75D437ED                                      
00004330  __covrec_106C0A8F47E4EBF5                                      
00004358  __covrec_7228F69D8F36EB6F                                      
00004380  __covrec_328AFB179A26404D                                      
000043a8  __covrec_329ACE27EDB24189                                      
000043d0  __covrec_7B1BF4E8C50F2A0D                                      
000043f8  __covrec_78597822E22CC415                                      
00004420  __covrec_BD5CC9630DBCBBE9                                      
00004448  __covrec_41AEBAB8BD1FD2DB                                      
00004470  __covrec_5F8EB310E228C202                                      
00004498  __covrec_BA12879443A2327D                                      
000044c0  __covrec_9329FD48AB2E1274                                      
000044e8  __covrec_9C5BA9E739FA244E                                      
00004510  __covrec_E49524A10E027AC6                                      
00004538  __covrec_E30F78146A77D9A7                                      
00004560  __covrec_24DBDAA504A8EB                                        
00004588  __covrec_B158C101AA167696                                      
000045b0  __covrec_25644B6D8D9339A2                                      
000045d8  __covrec_2E459FB28F5F2122                                      
00004600  __covrec_140C87832FFAF923                                      
00004628  __covrec_C6C59DFD81F45453                                      
00004650  __covrec_70073D59154FBB90                                      
00004678  __covrec_9C553D2B368997E4                                      
000046a0  __covrec_600121E2FBDF7D4E                                      
000046c8  __covrec_C0AA7AE1236408C6                                      
000046f0  __covrec_61EA836F28914C82                                      
00004718  __covrec_5B5EF01BC99E5A86                                      
00004740  __covrec_D46C6760916F836A                                      
00004768  __covrec_EBB9657C4CBDFB97                                      
00004790  __covrec_A5C15D890B087722                                      
000047b8  __covrec_8BE702C3BEFDEA81                                      
000047e0  __covrec_79080B738D71DCA0                                      
00004808  __covrec_C03E22A2F6E2E4EF                                      
00004830  __covrec_E9006A34444A2A37                                      
00004858  __covrec_80EFDD160ECC63A5                                      
00004880  __covrec_79177773D074D56A                                      
000048a8  __covrec_31FD0D502C5066BA                                      
000048d0  __covrec_6A1E7BC147A9A584                                      
000048f8  __covrec_FD6EFDF54A7E61F9                                      
00004920  __covrec_70EC87587136D382                                      
00004948  __covrec_6498EABD08FE2134                                      
00004970  __covrec_920260ADD4BAECEC                                      
00004998  __covrec_E96F6C670CC524BB                                      
000049c0  __covrec_F1E83CA2B0CD6A20                                      
000049e8  __covrec_A14E5249FF6D9B73                                      
00004a10  __covrec_CF30B3F8389553FA                                      
00004a38  __covrec_D9BFBE2790C83171                                      
00004a60  __covrec_192A7CE8DD30AE20                                      
00004a88  __covrec_3F3F06B0DE5DFDFD                                      
00004ab0  __covrec_9AC3CF09EF2C674                                       
00004ad8  __covrec_ABA022C0A714032                                       
00004b00  __covrec_C93E92B492002ABF                                      
00004b28  __covrec_347D20A347D54D3B                                      
00004b50  __covrec_B26FE818C9BBF2BF                                      
00004b78  __covrec_70226340E9DAF01A                                      
00004ba0  __covrec_36C64B2F466F1472                                      
00004bc8  __covrec_5DCBC94E2F239EF0                                      
00004bf0  __covrec_F2618F42DC968004                                      
00004c18  __covrec_F454D8ABE2DC2387                                      
00004c40  __covrec_2A736453A4775CC3                                      
00004c68  __covrec_79D6AA16F231D6E                                       
00004c90  __covrec_F555D7D565E23141                                      
00004cb8  __covrec_6D31441440B2B830                                      
00004ce0  __covrec_44C5379EEB9C4                                         
00004d08  __covrec_40835A27C3B3C9BC                                      
00004d30  __covrec_D9B5BBF5883ABD67                                      
00004d58  __covrec_E25E3C69A2C093FE                                      
00004d80  __covrec_5B4547B2E6288EA9                                      
00004da8  __covrec_601FDE1BE8C6AAE0                                      
00004dd0  __covrec_1D5453C0FE32606E                                      
00004df8  __covrec_862F74E5EAEB7D2C                                      
00004e20  __covrec_B09D4FD458CDE129                                      
00004e48  __covrec_15599278F6628FD9                                      
00004e70  __covrec_E3CF855287A82BEC                                      
00004e98  __covrec_174F15FCCDC74864                                      
00004ec0  __covrec_A78911E3D047929E                                      
00004ee8  __covrec_5B93A986E69D6689                                      
00004f10  __covrec_9E844E7AE3CA768E                                      
00004f38  __covrec_C31D13C77667C7D8                                      
00004f60  __covrec_476992FF089351FB                                      
00004f88  __covrec_1DA2DF1D9481285F                                      
00004fb0  __covrec_960AA1E8FBB5B563                                      
00004fd8  __covrec_48B35313DF575FFA                                      
00005000  __covrec_ADC012B52C9206AC                                      
00005028  __covrec_FDFA5CAFBD69AC08                                      
00005050  __covrec_B1C3981F9634D369                                      
00005078  __covrec_322133A61A45AB4E                                      
000050a0  __covrec_697D5C899E463194                                      
000050c8  __covrec_FF6BB409FA34F363                                      
000050f0  __covrec_85D07076A9880596                                      
00005118  __covrec_E4D053578B19A849                                      
00005140  __covrec_33066D15E3040297                                      
00005168  __covrec_B3FCF4E02B6C0FD4                                      
00005190  __covrec_EA2293814417AE2                                       
000051b8  __covrec_11E4D0BB9C3E8C30                                      
000051e0  __covrec_6C6D0F2F16F1F38D                                      
00005208  __covrec_AD047280576A3B69                                      
00005230  __covrec_DE7AA2ACCED77C8                                       
00005258  __covrec_B15D06C22FEC71D9                                      
00005280  __covrec_1707DC81A21DBC1C                                      
000052a8  __covrec_168493D43873B111                                      
000052d0  __covrec_5CDB53EB55DAC376                                      
000052f8  __covrec_929C3D7BA5E7A98D                                      
00005320  __covrec_4DE3D6A3E8BDB070                                      
00005348  __covrec_25E129209C6D6E08                                      
00005370  __covrec_6450FD0A03211B5F                                      
00005398  __covrec_619C2FAE5D265277                                      
000053c0  __covrec_B253B33871D9C4D2                                      
000053e8  __covrec_858246B40FF97B3A                                      
00005410  __covrec_D47BE27B68D57C53                                      
00005438  __covrec_47FB578411340773                                      
00005460  __covrec_9C2775F1FB7FD0B3                                      
00005488  __covrec_4372B022B5546D6B                                      
000054b0  __covrec_5767CF3A670B399C                                      
000054d8  __covrec_48DB928E5EA29731                                      
00005500  __covrec_3163B63F3B49E158                                      
00005528  __covrec_B63BB6869D812CAF                                      
00005550  __covrec_BF99175D50CA1867                                      
00005578  __covrec_622C64949E26680D                                      
000055a0  __covrec_E77E74F8DA2AF574                                      
000055c8  __covrec_E8170BC21DBCAFEB                                      
000055f0  __covrec_D9DA8721215694F0                                      
00005618  __covrec_FBABB1CFAA0837B                                       
00005640  __covrec_8BA3D2C2EDECD73D                                      
00005668  __covrec_3838EAEF37C9B024                                      
00005690  __covrec_2B07AC81363554B8                                      
000056b8  __covrec_AECF195AE0C883E0                                      
000056e0  __covrec_69790632A0BC140D                                      
00005708  __covrec_17302E52AA89C0CD                                      
00005730  __covrec_18ACCAC5D58EF3D4                                      
00005758  __covrec_BC1E770725353BFE                                      
00005780  __covrec_57DC8F9B3C4337A2                                      
000057a8  __covrec_9712907A002D60F7                                      
000057d0  __covrec_18ACAD82B94D6601                                      
000057f8  __covrec_CA8DBCD54A2B28B1                                      
00005820  __covrec_7B7E33D7E8902EE6                                      
00005848  __covrec_71DB72C3301D9EA2                                      
00005870  __covrec_7E3C84C442B06ADC                                      
00005898  __covrec_B7FE008276F99331                                      
000058c0  __covrec_1267B4521C0A50E3                                      
000058e8  __covrec_14D1DCA4E67C18C5                                      
00005910  __covrec_79E89AE24E1E33A3                                      
00005938  __covrec_F6A64CBDA47317FD                                      
00005960  __covrec_8D4838020815225E                                      
00005988  __covrec_8040F2CFD3D473A4                                      
000059b0  __covrec_BE5A92894152D5DE                                      
000059d8  __covrec_22AA610D5E826481                                      
00005a00  __covrec_BB50BDBE0E77D3AD                                      
00005a28  __covrec_8E0F7C647D51BFD2                                      
00005a50  __covrec_E1530E7A17298A76                                      
00005a78  __covrec_D895D93EA590B5A1                                      
00005aa0  __covrec_6EE2BF9459318274                                      
00005ac8  __covrec_C3A1DC3CF32D203A                                      
00005af0  __covrec_39BD400369155FF7                                      
00005b18  __covrec_9255662AF750EBBF                                      
00005b40  __covrec_4474B8D0BC074C04                                      
00005b68  __covrec_CFF4B1D49D637D05                                      
00005b90  __covrec_BB9DB7256D55E22C                                      
00005bb8  __covrec_726A5C9D52F7F5E7                                      
00005be0  __covrec_40C3C35157F185E9                                      
00005c08  __covrec_BB43D7D806F4CBD6                                      
00005c30  __covrec_66FCC1F75E2E4197                                      
00005c58  __covrec_99992A15E457B36F                                      
00005c80  __covrec_B8D875108F459ADA                                      
00005ca8  __covrec_8DFC72E8925CC73                                       
00005cd0  __covrec_8D1AA427298D1344                                      
00005cf8  __covrec_BA1ECAA1A7696E1A                                      
00005d20  __covrec_EB354C3B55D00E6E                                      
00005d48  __covrec_6D66CFB74E90B79C                                      
00005d70  __covrec_41838BAC8E2D2787                                      
00005d98  __covrec_84E26731CB5A9EAC                                      
00005dc0  __covrec_27F653CEA4118248                                      
00005de8  __covrec_9455C9786A09CB57                                      
00005e10  __covrec_30ED4319F76DB893                                      
00005e38  __covrec_EC14A2237089E2CD                                      
00005e60  __covrec_B2DF3A96F478E43B                                      
00005e88  __covrec_D5253C2D081AEC51                                      
00005eb0  __covrec_CD3F17D62E99D72F                                      
00005ed8  __covrec_611766D475D70993                                      
00005f00  __covrec_778D7F40FA03F2E9                                      
00005f28  __covrec_406378224CE7840F                                      
00005f50  __covrec_2286D5FF0FC802ED                                      
00005f78  __covrec_CA685C0901188451                                      
00005fa0  __covrec_B2E7260EC55D2713                                      
00005fc8  __covrec_E114898DAAA5BEF6                                      
00005ff0  __covrec_F4A6E46EEBB7430F                                      
00006018  __covrec_D163700B248786AA                                      
00006040  __covrec_3D5160002BBF26F9                                      
00006068  __covrec_436280033B12932A                                      
00006090  __covrec_DE34EC45D2197840                                      
000060b8  __covrec_A178521A967058F3                                      
000060e0  __covrec_B869702795BA3180                                      
00006108  __covrec_F86E8E4C58460891                                      
00006130  __covrec_6100AF97F9A9E9F7                                      
00006158  __covrec_96AA8D61B3A8DA35                                      
00006180  __covrec_E3C48853351D961                                       
000061a8  __covrec_FB1D8691C0553F                                        
000061d0  __covrec_23BDC91C28D00DEB                                      
000061f8  __covrec_61840838A007A7EE                                      
00006220  __covrec_CF1DAB8B6A2AA843                                      
00006248  __covrec_C8340AF3DD76DEA5                                      
00006270  __covrec_5341AC3ACCD56D5A                                      
00006298  __covrec_CE081AE001D392A7                                      
000062c0  __covrec_61C676D4F7B32687                                      
000062e8  __covrec_65FB37FD3ECB0783                                      
00006310  __covrec_1F81DC0331A088EE                                      
00006338  __covrec_EEEC5419627FC981                                      
00006360  __covrec_D3BCCDBD67187C42                                      
00006388  __covrec_46EDCBBEAFD38B16                                      
000063b0  __covrec_A72768145C3B258D                                      
000063d8  __covrec_2597CFE535DF7925                                      
00006400  __covrec_C268EEC39DA3B21C                                      
00006428  __covrec_D9DDA3EAD197CE88                                      
00006450  __covrec_D1A6617A5EDDDD2C                                      
00006478  __covrec_366594CABF5FBBE1                                      
000064a0  __covrec_FACA0D83EF2252D9                                      
000064c8  __covrec_E5BADA89A063A7FE                                      
000064f0  __covrec_ECA9C1C44D4A3387                                      
00006518  __covrec_E40BD4FBEC9475E                                       
00006540  __covrec_8D17775B98F2D331                                      
00006568  __covrec_F31B4D53596DC8E7                                      
00006590  __covrec_E18B4A3D28292E1                                       
000065b8  __covrec_2E714EFCCE61715E                                      
000065e0  __covrec_7ACF2422A306985E                                      
00006608  __covrec_B25D5E7D963D0469                                      
00006630  __covrec_CD52D5354BACA035                                      
00006658  __covrec_D0C19A2C829A1D55                                      
00006680  __covrec_D70154E3E201FB1                                       
000066a8  __covrec_6CC6679ECBEE14F9                                      
000066d0  __covrec_7291D6678338BC48                                      
000066f8  __covrec_8EBE3C0B375841A4                                      
00006720  __covrec_BB7CDB87DF7DC393                                      
00006748  __covrec_2B5FFCF4F8CB86BC                                      
00006770  __covrec_D954D0998E13AAD4                                      
00006798  __covrec_883C1BD346B3B6A7                                      
000067c0  __covrec_7BEAFE9253C2DC91                                      
000067e8  __covrec_FEDB316D835D59CB                                      
00006810  __covrec_3D25EC3DE4E423F3                                      
00006838  __covrec_8C3011EFB7930608                                      
00006860  __covrec_E83844EB97E41293                                      
00006888  __covrec_E34511D25E36A244                                      
000068b0  __covrec_831EB062A57A0618                                      
000068d8  __covrec_63D016BC5F283A2B                                      
00006900  __covrec_F69D3E0B112353E9                                      
00006928  __covrec_5942973784CEEA25                                      
00006950  __covrec_3AF95226F44434B7                                      
00006978  __covrec_3CFE3402D2666528                                      
000069a0  __covrec_A7959569B6A5A56F                                      
000069c8  __covrec_82D6940BA8D59531                                      
000069f0  __covrec_15E9C88B8913D74B                                      
00006a18  __covrec_3AAA2A3C5CE52BA3                                      
00006a40  __covrec_89DB25962A5EB408                                      
00006a68  __covrec_66E9970543670AE8                                      
00006a90  __covrec_E65B615C74CEBB96                                      
00006ab8  __covrec_EABD2DB4D7FE38C3                                      
00006ae0  __covrec_BF6A0C809C015679                                      
00006b08  __covrec_59EA745BFA1ABDC0                                      
00006b30  __covrec_78426C8A160B6351                                      
00006b58  __covrec_4B5ADC67ED6C8790                                      
00006b80  __covrec_C9E60D5E928F5EEC                                      
00006ba8  __covrec_E9CD8EC02240DD72                                      
00006bd0  __covrec_6769A1B6579C1917                                      
00006bf8  __covrec_9C93726BBC48186D                                      
00006c20  __covrec_92B52E0B3366C97                                       
00006c48  __covrec_22F1260B2ECCC08F                                      
00006c70  __covrec_1D8009E1123EFE18                                      
00006c98  __covrec_B329A0B3FCA532E3                                      
00006cc0  __covrec_810D579CAA1E6A5D                                      
00006ce8  __covrec_D35B061DD72A8133                                      
00006d10  __covrec_208E88AD446ED6FF                                      
00006d38  __covrec_8656F45CC3A9BD8D                                      
00006d60  __covrec_AE6F1168B53990C8                                      
00006d88  __covrec_ED5378248E071109                                      
00006db0  __covrec_7C1807FD8A2400E0                                      
00006dd8  __covrec_D8357A951D6CC3AD                                      
00006e00  __covrec_67345CC240590D89                                      
00006e28  __covrec_E0575EF810248D3C                                      
00006e50  __covrec_86EFB8D70E3195D9                                      
00006e78  __covrec_20502D4EF27C8C51                                      
00006ea0  __covrec_BAFF080CE41F419B                                      
00006ec8  __covrec_50E1A630398A4DB2                                      
00006ef0  __covrec_D0F6FDA3D53C6FE4                                      
00006f18  __covrec_6EEA99F60149DC25                                      
00006f40  __covrec_217DB9DBC67C1EFE                                      
00006f68  __covrec_2C5B3AD84DE89A09                                      
00006f90  __covrec_331725AF5DF50438                                      
00006fb8  __covrec_29CB61A807DB331C                                      
00006fe0  __covrec_EB884DF891B7C0B5                                      
00007008  __covrec_AB271BB12C7B2E99                                      
00007030  __covrec_FBDF9DFB9E695E89                                      
00007058  __covrec_78E44053E051208B                                      
00007080  __covrec_1409994ABADCA9DB                                      
000070a8  __covrec_80FFFF73B4ABC887                                      
000070d0  __covrec_10D7C14A5E1269A                                       
000070f8  __covrec_230E01EBA14683DA                                      
00007120  __covrec_75E3E8E045B77C3                                       
00007148  __covrec_9CDBAE3A4C8F2B61                                      
00007170  __covrec_EB5AED9D23042DB4                                      
00007198  __covrec_61449AE38B530A4                                       
000071c0  __covrec_E2BACE41E30617A9                                      
000071e8  __covrec_572E084EA8EAC4C5                                      
00007210  __covrec_10ACAC719BF92A02                                      
00007238  __covrec_A0EDF6B61594B5D2                                      
00007260  __covrec_525C3DF9C95B7EC                                       
00007288  __covrec_5A2DEE3595B11481                                      
000072b0  __covrec_ADDF4235E39AF004                                      
000072d8  __covrec_43D8C40C41906745                                      
00007300  __covrec_6FC2A34653C7B741                                      
00007328  __covrec_538F62B599A02D85                                      
00007350  __covrec_E4610D219A4ED31                                       
00007378  __covrec_C18C03D15A8F8D51                                      
000073a0  __covrec_1528E95DCB01A67C                                      
000073c8  __covrec_2D0041D38F4C7BA8                                      
000073f0  __covrec_53274C6784AC6740                                      
00007418  __covrec_5CFAB2D619F63C5                                       
00007440  __covrec_C4CB3B4E9E7F3A34                                      
00007468  __covrec_650D813178C6FBA0                                      
00007490  __covrec_1881D5B34314DF64                                      
000074b8  __covrec_F0026EB50F7B8029                                      
000074e0  __covrec_E343A047350791DF                                      
00007508  __covrec_C2EA69130D5DE4D6                                      
00007530  __covrec_4EFD1DA62AB1D0E3                                      
00007558  __covrec_D7983C05E0832327                                      
00007580  __covrec_D171F092417D4735                                      
000075a8  __covrec_F13A8066761C463B                                      
000075d0  __covrec_7970AA4372F62F23                                      
000075f8  __covrec_149ACD14E0572626                                      
00007620  __covrec_7BCFB99D45157AF6                                      
00007648  __covrec_B23169270BEA3591                                      
00007670  __covrec_1317F30DAB07CEFD                                      
00007698  __covrec_A8A70DDF5F2056BA                                      
000076c0  __covrec_31F7B8F147936BE1                                      
000076e8  __covrec_7D5CB73C05FC6F34                                      
00007710  __covrec_500923B66EDC1559                                      
00007738  __covrec_C8F4E67F540B3236                                      
00007760  __covrec_D998495D77F56213                                      
00007788  __covrec_56994D288387D9E1                                      
000077b0  __covrec_2E3C982E9C9C353                                       
000077d8  __covrec_CB401E04B85A55F6                                      
00007800  __covrec_A80BD7A623AB578                                       
00007828  __covrec_F573A0ADEA913771                                      
00007850  __covrec_F2C38226B0B6E63B                                      
00007878  __covrec_D04DC704886886C6                                      
000078a0  __covrec_D149E6B126AFF09E                                      
000078c8  __covrec_DB2B422DD9C5F163                                      
000078f0  __covrec_642A5D35D62CCC35                                      
00007918  __covrec_2B68E5DDE2E9662B                                      
00007940  __covrec_644EE4DEA57C92BA                                      
00007968  __covrec_9189174E9CA856EE                                      
00007990  __covrec_1CA1AE9514CE36B4                                      
000079b8  __covrec_96AE1425C6CA1E9C                                      
000079e0  __covrec_3129FF84AE3F76E2                                      
00007a08  __covrec_AF0B549003A6C852                                      
00007a30  __covrec_483E582084ED31BD                                      
00007a58  __covrec_182EBC3292D8B057                                      
00007a80  __covrec_9E55FF8E109C4C33                                      
00007aa8  __covrec_1930B2CB90352D46                                      
00007ad0  __covrec_8D6FF92E7B672D3F                                      
00007af8  __covrec_DCFDECC609924E0D                                      
00007b20  __covrec_AB7956570CA67670                                      
00007b48  __covrec_18DDFB0FE08ED969                                      
00007b70  __covrec_BD20025876B40285                                      
00007b98  __covrec_341863ACF88CD371                                      
00007bc0  __covrec_76D4C9D79366C347                                      
00007be8  __covrec_6964C0ABD1B3D33E                                      
00007c10  __covrec_E8E82BD5A06CBDFD                                      
00007c38  __covrec_3435C80BC3722BAD                                      
00007c60  __covrec_46453BBBC5316FD3                                      
00007c88  __covrec_79483E28CA94B7B7                                      
00007cb0  __covrec_AB304C8261FDEB8F                                      
00007cd8  __covrec_4D32569C34B2D696                                      
00007d00  __covrec_8BE10D2019571717                                      
00007d28  __covrec_BC56D22003F30EB                                       
00007d50  __covrec_707AD4A7445FB443                                      
00007d78  __covrec_51A09EDC84208728                                      
00007da0  __covrec_191831FA0CEE1893                                      
00007dc8  __covrec_352F9E2440E9C139                                      
00007df0  __covrec_6280E7CD83141F1B                                      
00007e18  __covrec_859E28C748FFE64C                                      
00007e40  __covrec_DA78BB48445AA633                                      
00007e68  __covrec_1CE8FD9CC832CE68                                      
00007e90  __covrec_BB37BA4602A701B5                                      
00007eb8  __covrec_2239F1A9CC961427                                      
00007ee0  __covrec_BC620F117425D53                                       
00007f08  __covrec_DD4A0C4B99122703                                      
00007f30  __covrec_D3555C4264598523                                      
00007f58  __covrec_B0D24101139E4F24                                      
00007f80  __covrec_16A0659A24000E67                                      
00007fa8  __covrec_DC3FF53EE745C134                                      
00007fd0  __covrec_981A9F8688DAB97D                                      
00007ff8  __covrec_DD8F3F4BB452940E                                      
00008020  __covrec_6A6362E7A2077239                                      
00008048  __covrec_24DC5A464E150DEB                                      
00008070  __covrec_A0759E883AB3A266                                      
00008098  __covrec_9E26C402F00A2F32                                      
000080c0  __covrec_88AFBC48C36297DD                                      
000080e8  __covrec_16D434825183503F                                      
00008110  __covrec_AC783881F1762401                                      
00008138  __covrec_8FA27FFC6507F02D                                      
00008160  __covrec_91A85A47E46E837B                                      
00008188  __covrec_E322092842F7340                                       
000081b0  __covrec_7267E5B89742BDEF                                      
000081d8  __covrec_9DD34F2822473557                                      
00008200  __covrec_CA8C60D3EA5362E1                                      
00008228  __covrec_B4A7C58ED4F2BBE5                                      
00008250  __covrec_A56E213FAEA092D9                                      
00008278  __covrec_B1CE96BC945B0CBF                                      
000082a0  __covrec_3F67DCC65271B3FF                                      
000082c8  __covrec_F1B36A5B4773B81                                       
000082f0  __covrec_60CD53922E0964B6                                      
00008318  __covrec_EA87A98CE1D84D5D                                      
00008340  __covrec_5B7AB3B015354B82                                      
00008368  __covrec_30B7C7B021FF32BD                                      
00008390  __covrec_B871D12F39A6AF36                                      
000083b8  __covrec_C14519F9FADE6C9A                                      
000083e0  __covrec_6A20DA2468D71674                                      
00008408  __covrec_889B730B19F33BB5                                      
00008430  __covrec_DD47B775D2BA38FC                                      
00008458  __covrec_AB5B451F3E10B919                                      
00008480  __covrec_1B0D2750B34B1703                                      
000084a8  __covrec_E2CB17AF898C3228                                      
000084d0  __covrec_14C92017E2A5AC67                                      
000084f8  __covrec_18C79462758238BA                                      
00008520  __covrec_57A66E83E0547B4C                                      
00008548  __covrec_E0574A7F6C7FE9EB                                      
00008570  __covrec_C3F7D722BD7A26A9                                      
00008598  __covrec_C7DC5231AA70BA0F                                      
000085c0  __covrec_CEFB9F7F6D63820E                                      
000085e8  __covrec_CDBF3A5FF7EE087                                       
00008610  __covrec_15EBD46F714DA966                                      
00008638  __covrec_4FF6C882AEFBE71                                       
00008660  __covrec_FFFB116B4E183B3A                                      
00008688  __covrec_638756E0999BF942                                      
000086b0  __covrec_B7F5FFCDF30CB218                                      
000086d8  __covrec_13150132607A5180                                      
00008700  __covrec_1F323AB5CF4D4A72                                      
00008728  __covrec_8196FC9DDEF99D32                                      
00008750  __covrec_608554DE1C9501C7                                      
00008778  __covrec_F97C6C392C8944F3                                      
000087a0  __covrec_B9AB8834A2237901                                      
000087c8  __covrec_E7E7144D5ECBBB5                                       
000087f0  __covrec_BB3928FABB4339BB                                      
00008818  __covrec_E3518C62E0440A85                                      
00008840  __covrec_67F252814530E1AE                                      
00008868  __covrec_C8E89BD540C9114F                                      
00008890  __covrec_F42DCE2D205E9019                                      
000088b8  __covrec_74BF17EF8000DDA7                                      
000088e0  __covrec_CD808DC22BF44FE8                                      
00008908  __covrec_17E08951EDF009B4                                      
00008930  __covrec_CE07E47036E86558                                      
00008958  __covrec_2DF772145F02FC49                                      
00008980  __covrec_FDAA4CDD67C3D058                                      
000089a8  __covrec_40C30177E58A8F00                                      
000089d0  __covrec_4891A72BFF7F5031                                      
000089f8  __covrec_E801FF57F7B8F56C                                      
00008a20  __covrec_643F4F8E75138635                                      
00008a48  __covrec_5FFD77205848B964                                      
00008a70  __covrec_133B487217BB2E5A                                      
00008a98  __covrec_512002C148919CFE                                      
00008ac0  __covrec_8B3C2D954ED0BA75                                      
00008ae8  __covrec_C71D83EEEEBD25C5                                      
00008b10  __covrec_1AFE76699DCE6D3D                                      
00008b38  __covrec_BA973D6E4001920E                                      
00008b60  __covrec_F5AFEB1EEA354D61                                      
00008b88  __covrec_B441970F37224737                                      
00008bb0  __covrec_D70EA4A8A98751CE                                      
00008bd8  __covrec_C047E60BD8866964                                      
00008c00  __covrec_C634E91CD196F85E                                      
00008c28  __covrec_C28518340856F2B0                                      
00008c50  __covrec_5DCE58CE14EFB2DE                                      
00008c78  __covrec_9B85596B8A1AE901                                      
00008ca0  __covrec_E72B77A267908E6C                                      
00008cc8  __covrec_8F06D388B748E7A8                                      
00008cf0  __covrec_78368865D6205216                                      
00008d18  __covrec_B1A9F6BF4A203553                                      
00008d40  __covrec_A4F309C69DE758AC                                      
00008d68  __covrec_BFAFD22F7BF690C5                                      
00008d90  __covrec_12A84A218C9DEA06                                      
00008db8  __covrec_6C743F583DE17023                                      
00008de0  __covrec_473C66096BA722FD                                      
00008e08  __covrec_ACF4230EF393C5BA                                      
00008e30  __covrec_C4D78141AF2572F5                                      
00008e58  __covrec_76FA1361CF01BDA3                                      
00008e80  __covrec_95D71764A59AEC27                                      
00008ea8  __covrec_CCE8587A3277B01F                                      
00008ed0  __covrec_8813AE4156258C77                                      
00008ef8  __covrec_BAB821C194D33E0C                                      
00008f20  __covrec_C6E5746A589295D1                                      
00008f48  __covrec_FB91A69921C0AA0                                       
00008f70  __covrec_14465F9D45D58042                                      
00008f98  __covrec_60C4F50F13ECC26                                       
00008fc0  __covrec_FEC7313548E6B0A0                                      
00008fe8  __covrec_5543982661761F02                                      
00009010  __covrec_EDDFCB24481343C8                                      
00009038  __covrec_A142625DB4946496                                      
00009060  __covrec_D384089B6507668C                                      
00009088  __covrec_47BE7FD010B31ACF                                      
000090b0  __covrec_A6F91C9DE4E92CCF                                      
000090d8  __covrec_9EDD55D5C8BE933C                                      
00009100  __covrec_3E1568D9541C8352                                      
00009128  __covrec_75A8DE6340DA4CB3                                      
00009150  __covrec_967BFC98B61002E2                                      
00009178  __covrec_5540FB3D09913541                                      
000091a0  __covrec_18A4EB207556A42C                                      
000091c8  __covrec_F95EAA333DB23898                                      
000091f0  __covrec_8DA516C1E6826A9E                                      
00009218  __covrec_69C8694219275654                                      
00009240  __covrec_1A22B483B14D442                                       
00009268  __covrec_CBC9F45CB78F8B90                                      
00009290  __covrec_1D1393F256C668B4                                      
000092b8  __covrec_E88140DB696B12FA                                      
000092e0  __covrec_5431C2A10E3AF27F                                      
00009308  __covrec_D98E6A74FFF9D8A                                       
00009330  __covrec_9E7667E7EBD723A3                                      
00009358  __covrec_B1FA2164EC3E6151                                      
00009380  __covrec_F6DAA592595F28C                                       
000093a8  __covrec_548397170303D112                                      
000093d0  __covrec_1908F0908D2CBF18                                      
000093f8  __covrec_EE0F6CF5ED5E776E                                      
00009420  __covrec_8BCACFC8A7CAB002                                      
00009448  __covrec_9CB452459D1C403B                                      
00009470  __covrec_DAB8E868E50A27CF                                      
00009498  __covrec_33495A652304E49                                       
000094c0  __covrec_7D0DD1100E5C3292                                      
000094e8  __covrec_C470FE3D8AEB00D9                                      
00009510  __covrec_6F87E0D31011FA87                                      
00009538  __covrec_D4AC32A10CD7CB0F                                      
00009560  __covrec_7E4E238AD334240D                                      
00009588  __covrec_97BE04EE290C2F02                                      
000095b0  __covrec_3D0817C7DF21F89F                                      
000095d8  __covrec_6335E4F87C82DFDD                                      
00009600  __covrec_F0ACEBB6D32F523D                                      
00009628  __covrec_B359F814EED190EC                                      
00009650  __covrec_AA520EFB2821E557                                      
00009678  __covrec_2BE6C0B46C211135                                      
000096a0  __covrec_AC39529A12F08E6B                                      
000096c8  __covrec_59E40C65BB4D18F7                                      
000096f0  __covrec_A4D349F83946625F                                      
00009718  __covrec_CFDB817D939AB454                                      
00009740  __covrec_1AF6215EE93D46D6                                      
00009768  __covrec_3B097A2085B9CD1E                                      
00009790  __covrec_3B1FE69DF6A41D79                                      
000097b8  __covrec_F299FB8EC8B5A98D                                      
000097e0  __covrec_55C345FCDBE2932D                                      
00009808  __covrec_FA6A73CFC94A4F8F                                      
00009830  __covrec_954D554981613485                                      
00009858  __covrec_60CE23351F0BB0C5                                      
00009880  __covrec_A0D214D928BC709E                                      
000098a8  __covrec_BB204FB54CD4EFC                                       
000098d0  __covrec_6357598EEBCB078A                                      
000098f8  __covrec_984F02E3E0699504                                      
00009920  __covrec_83A7E935CDCDEF7A                                      
00009948  __covrec_E0842A3A8957D10D                                      
00009970  __covrec_856B515851EDB492                                      
00009998  __covrec_4749F46D3908955F                                      
000099c0  __covrec_16D70E5A69A3760A                                      
000099e8  __covrec_A9DA2B99CE47AF13                                      
00009a10  __covrec_34AF19AADA685B0E                                      
00009a38  __covrec_3886213F5ECF5BC5                                      
00009a60  __covrec_60422E52F6D7CCB4                                      
00009a88  __covrec_C24C11236C197783                                      
00009ab0  __covrec_89030C179EB9C81C                                      
00009ad8  __covrec_E1DBE843867CF66E                                      
00009b00  __covrec_DD7A9DE99C6C5AF4                                      
00009b28  __covrec_40C2045D2339AE27                                      
00009b50  __covrec_163C92947DFA7B45                                      
00009b78  __covrec_B77E9FAD3DF35EBE                                      
00009ba0  __covrec_F8EC7E727BB49656                                      
00009bc8  __covrec_15A6988EB176291B                                      
00009bf0  __covrec_8B4A5432F640F7CC                                      
00009c18  __covrec_E4C40D5C5CFA6531                                      
00009c40  __covrec_6F6B58E351921A4C                                      
00009c68  __covrec_C3B2B1E927D2AED0                                      
00009c90  __covrec_E619CCC955A6862B                                      
00009cb8  __covrec_A06516C97CF745F                                       
00009ce0  __covrec_614E3FACC915D745                                      
00009d08  __covrec_D6C0ECB4343048C3                                      
00009d30  __covrec_948B551B6988013C                                      
00009d58  __covrec_70CF8CA989011034                                      
00009d80  __covrec_7D42ED8A1849121                                       
00009da8  __covrec_8A1F9CA0D4334F06                                      
00009dd0  __covrec_4F658069E82642B3                                      
00009df8  __covrec_BC7A07810C2A4EA5                                      
00009e20  __covrec_17F1308C877F8432                                      
00009e48  __covrec_BB175E3871FD845                                       
00009e70  __covrec_B599D5FE34962FCD                                      
00009e98  __covrec_9A40F604B5DC964B                                      
00009ec0  __covrec_825B61DE411E2061                                      
00009ee8  __covrec_61126BC06481CB11                                      
00009f10  __covrec_219DAFA81AFAA2FB                                      
00009f38  __covrec_55C646F71E54567                                       
00009f60  __covrec_91CF93C22BDB4813                                      
00009f88  __covrec_656B3D9D6026034                                       
00009fb0  __covrec_56B780A4FDEE900D                                      
00009fd8  __covrec_1F9CF73C50D6AB19                                      
0000a000  __covrec_9852984F812F872E                                      
0000a028  __covrec_B0584FEB9BE7B098                                      
0000a050  __covrec_C49D033DE3A9AFB9                                      
0000a078  __covrec_CC0E79F34BDE50C1                                      
0000a0a0  __covrec_AFF8EA2E9F42EA4D                                      
0000a0c8  __covrec_7642F55933F834AD                                      
0000a0f0  __covrec_FFDFE8E406984E9A                                      
0000a118  __covrec_813E893FC027E207                                      
0000a140  __covrec_2D3B4279E82844EA                                      
0000a168  __covrec_9E7D8352594DED0C                                      
0000a190  __covrec_5BD32E00C445D602                                      
0000a1b8  __covrec_FCDCDFD15AC0E740                                      
0000a1e0  __covrec_30FBE63F83B9D1D                                       
0000a208  __covrec_DD46D3C4DEFB9C99                                      
0000a230  __covrec_890AAC5CB222EC4D                                      
0000a258  __covrec_FB7CF8B94050C947                                      
0000a280  __covrec_98CE03280FE13541                                      
0000a2a8  __covrec_D166DCE98F6D0E9C                                      
0000a2d0  __covrec_162CFD0A1B796938                                      
0000a2f8  __covrec_E1B2D1FEB13F85A6                                      
0000a320  __covrec_60E01FB0FEA6B10F                                      
0000a348  __covrec_60B82B20ADF3A6C9                                      
0000a370  __covrec_20F4440F1638C2A5                                      
0000a398  __covrec_64C631C3419D8497                                      
0000a3c0  __covrec_1A6E887ACACAFF76                                      
0000a3e8  __covrec_DDD36BF1BDB7AA08                                      
0000a410  __covrec_DD1D58311D02EABE                                      
0000a438  __covrec_A892DA4DF516689A                                      
0000a460  __covrec_73146D47C2268B40                                      
0000a488  __covrec_7A9B0D8ED1CC3EDE                                      
0000a4b0  __covrec_CF4FC1E32151C594                                      
0000a4d8  __covrec_F29AB24D20F7541B                                      
0000a500  __covrec_A9C81912A7BBEE                                        
0000a528  __covrec_16EB4AA73251958E                                      
0000a550  __covrec_D30E084174151E21                                      
0000a578  __covrec_3C99A72BDFB45697                                      
0000a5a0  __covrec_D98016B2FE4D3D31                                      
0000a5c8  __covrec_9A82C2E58801D4EB                                      
0000a5f0  __covrec_9E940468EF94664F                                      
0000a618  __covrec_52B97E8CA708B350                                      
0000a640  __covrec_F85390884DDE2EF8                                      
0000a668  __covrec_B39D9BE678C85D9F                                      
0000a690  __covrec_77EC49B74F3623B4                                      
0000a6b8  __covrec_DB471C349C709A12                                      
0000a6e0  __covrec_74B4AAA5875A1A40                                      
0000a708  __covrec_3971B1944E0C574C                                      
0000a730  __covrec_EE26B27D7B570B3D                                      
0000a758  __covrec_D13E1DD0A904D1EC                                      
0000a780  __covrec_C0D2729B0E6DF1B7                                      
0000a7a8  __covrec_20C5FBED395A9EDE                                      
0000a7d0  __covrec_8CC132A12E67D303                                      
0000a7f8  __covrec_7E376119588B9530                                      
0000a820  __covrec_97505DF3A3ED9895                                      
0000a848  __covrec_A8A28DA9DA2B412D                                      
0000a870  __covrec_19FA784ADD838849                                      
0000a898  __covrec_A6542DEDB8EB9879                                      
0000a8c0  __covrec_848A2C0F944BCCE0                                      
0000a8e8  __covrec_982466CC2ACC15EC                                      
0000a910  __covrec_D508958877B7CDD7                                      
0000a938  __covrec_91615256E6397B28                                      
0000a960  __covrec_F5588139E339EF27                                      
0000a988  __covrec_6CFE6451EC9C52F9                                      
0000a9b0  __covrec_C13AD5850545AB0D                                      
0000a9d8  __covrec_3B8B8236C02173C2                                      
0000aa00  __covrec_66884EF09B90C267                                      
0000aa28  __covrec_2D99555663CB507E                                      
0000aa50  __covrec_DF7E3D1C5554EC59                                      
0000aa78  __covrec_FBCE000054D77117                                      
0000aaa0  __covrec_C55313E71DA0C3B9                                      
0000aac8  __covrec_BE5179F5A57B6AE2                                      
0000aaf0  __covrec_BE65544DFD0F9AD8                                      
0000ab18  __covrec_81467A257584C92B                                      
0000ab40  __covrec_892CE1FEF10A5D0D                                      
0000ab68  __covrec_80A35A396107311D                                      
0000ab90  __covrec_DCB964463AE10E6B                                      
0000abb8  __covrec_A8B2B5CC8DBF4800                                      
0000abe0  __covrec_670FD0ADF37D7A4F                                      
0000ac08  __covrec_51C74FFAA225D32A                                      
0000ac30  __covrec_94FC025036BEDEC0                                      
0000ac58  __covrec_60B6B884D1017516                                      
0000ac80  __covrec_9592186C0C7D6FA5                                      
0000aca8  __covrec_22F2AD01BBE54AC3                                      
0000acd0  __covrec_6E1A44D3C8BC259D                                      
0000acf8  __covrec_DC679B92F1EE3E32                                      
0000ad20  __covrec_E1D05ED567AD88B3                                      
0000ad48  __covrec_DAD4941A63D99853                                      
0000ad70  __covrec_5AD07ACFA2247082                                      
0000ad98  __covrec_325BB6249AC215ED                                      
0000adc0  __covrec_72D21F5906349DB2                                      
0000ade8  __covrec_D4D6FC7683C95E7A                                      
0000ae10  __covrec_4920BE8E09645FFF                                      
0000ae38  __covrec_8F284A69A811272                                       
0000ae60  __covrec_AC6538EBC735DD0C                                      
0000ae88  __covrec_79B455E75A91963                                       
0000aeb0  __covrec_8CCB7565812889A7                                      
0000aed8  __covrec_6EF8002856E4CBFC                                      
0000af00  __covrec_DF83ECEE727A5DD6                                      
0000af28  __covrec_B8DFCB0E91A6A538                                      
0000af50  __covrec_2DA3C7F5F3A1833F                                      
0000af78  __covrec_988A11D4D2F16FBF                                      
0000afa0  __covrec_9ED94584C2643908                                      
0000afc8  __covrec_6ADB0BC98E99DF0C                                      
0000aff0  __covrec_B9BBACA01A41B6C8                                      
0000b018  __covrec_E2E834B6629CE320                                      
0000b040  __covrec_8E12A2008EF3ABE8                                      
0000b068  __covrec_67EBF9464B1739FF                                      
0000b090  __covrec_7849C203D9D4558A                                      
0000b0b8  __covrec_DE0C383DAC236695                                      
0000b0e0  __covrec_FCA71EE4D37F88C6                                      
0000b108  __covrec_656CD7E4E614AD16                                      
0000b130  __covrec_E4BC5C1C9B522724                                      
0000b158  __covrec_6BC92AC9CC41220E                                      
0000b180  __covrec_73921255196ED739                                      
0000b1a8  __covrec_55266747A4570DA1                                      
0000b1d0  __covrec_947018608C3D9167                                      
0000b1f8  __covrec_F9407E25A3F45B0C                                      
0000b220  __covrec_969B534D19665BDF                                      
0000b248  __covrec_8D824999EFBDB130                                      
0000b270  __covrec_43CA149CDA99F19C                                      
0000b298  __covrec_4EFB28BC93277616                                      
0000b2c0  __covrec_479B15013490219A                                      
0000b2e8  __covrec_9256D4F3A2C9619B                                      
0000b310  __covrec_C9EA72700DD2DA54                                      
0000b338  __covrec_1067EFD43AC4737C                                      
0000b360  __covrec_BA25A56B15309134                                      
0000b388  __covrec_616CE32FFC7272F1                                      
0000b3b0  __covrec_A7E144897978C90C                                      
0000b3d8  __covrec_5D2E7F106E151629                                      
0000b400  __covrec_C1B2B1A0B6EC290F                                      
0000b428  __covrec_17DAEC6AFA72F54C                                      
0000b450  __covrec_A92884B33FF83C3F                                      
0000b478  __covrec_D6CA4E27A30329FF                                      
0000b4a0  __covrec_1740AFC189A8EDA2                                      
0000b4c8  __covrec_A3F69F3D1A174B83                                      
0000b4f0  __covrec_87F49CE40477D202                                      
0000b518  __covrec_107B128032F6DB3F                                      
0000b540  __covrec_C2BB13DE1AE343CB                                      
0000b568  __covrec_1BD34071CFA619DA                                      
0000b590  __covrec_F6E4D297C5804202                                      
0000b5b8  __covrec_945ECCD4F2946F36                                      
0000b5e0  __covrec_AA70E0B980B5AC70                                      
0000b608  __covrec_D5424533F9D0A94B                                      
0000b630  __covrec_F743C000ABE7980A                                      
0000b658  __covrec_D1D10A4F101AAA4                                       
0000b680  __covrec_4AF143174640E56D                                      
0000b6a8  __covrec_A3E9BABFF30D1406                                      
0000b6d0  __covrec_A232361CAB162550                                      
0000b6f8  __covrec_F5B52FC120DCEFF6                                      
0000b720  __covrec_751C6A39772D4981                                      
0000b748  __covrec_24D4168F36768F8A                                      
0000b770  __covrec_9AAB0F09D0C7B1A3                                      
0000b798  __covrec_2E6EC07223ED40B7                                      
0000b7c0  __covrec_C8BD44ABF6512FBA                                      
0000b7e8  __covrec_716AB83B32900FE5                                      
0000b810  __covrec_DE53C8C4FE5CC688                                      
0000b838  __covrec_C284900A3BECEF9F                                      
0000b860  __covrec_7DEA2A08886235ED                                      
0000b888  __covrec_E5004354570D679                                       
0000b8b0  __covrec_F623366B7B1875EF                                      
0000b8d8  __covrec_24CD7D1265135F07                                      
0000b900  __covrec_A2445591609CD347                                      
0000b928  __covrec_63DD24C70A829FA0                                      
0000b950  __covrec_F6F7419BF1DFF9CE                                      
0000b978  __covrec_A525F0238C786183                                      
0000b9a0  __covrec_FB7ED0D421C87335                                      
0000b9c8  __covrec_1EF1FB822FC56A69                                      
0000b9f0  __covrec_811ED8DACF2F0A4C                                      
0000ba18  __covrec_1658A1CFEC8A9371                                      
0000ba40  __covrec_8589C79F6871C223                                      
0000ba68  __covrec_EB4E39EF1EA17CA5                                      
0000ba90  __covrec_8D9CC3D5970D5F2                                       
0000bab8  __covrec_EF506552D1D7BE22                                      
0000bae0  __covrec_2A1CAF1263274BD9                                      
0000bb08  __covrec_8A5792BFD162766B                                      
0000bb30  __covrec_9071575618984415                                      
0000bb58  __covrec_59674A5A4E18485A                                      
0000bb80  __covrec_C15F2CF5A53F36D6                                      
0000bba8  __covrec_161C5CCBB18E3472                                      
0000bbd0  __covrec_1796D1C61F0D17A8                                      
0000bbf8  __covrec_30FFD4E1DBF1C36F                                      
0000bc20  __covrec_F06D606E3FF7FEB2                                      
0000bc48  __covrec_6A1A64384C549626                                      
0000bc70  __covrec_FE189E8205BFE13F                                      
0000bc98  __covrec_AE75ACC2669723B3                                      
0000bcc0  __covrec_575DC9889DF6949E                                      
0000bce8  __covrec_A807F26F4DECD342                                      
0000bd10  __covrec_AFF99C21C3C36C23                                      
0000bd38  __covrec_FFEA5922A8E15BB8                                      
0000bd60  __covrec_8863A4DB3AC090CF                                      
0000bd88  __covrec_C4CD8A127B42E748                                      
0000bdb0  __covrec_8073F98D4C5CB220                                      
0000bdd8  __covrec_5E08C98A59626A7F                                      
0000be00  __covrec_A11EC3781DB0FEF3                                      
0000be28  __covrec_70AB79C230504C55                                      
0000be50  __covrec_74C599A820D7E755                                      
0000be78  __covrec_F8915E7F9ECEA84A                                      
0000bea0  __covrec_E747975BDCB68B72                                      
0000bec8  __covrec_171317B20F4BC1DB                                      
0000bef0  __covrec_F6F0D555DD9571C2                                      
0000bf18  __covrec_D7A5E186EC53EB7C                                      
0000bf40  __covrec_212223448B5B81B9                                      
0000bf68  __covrec_49B99623CFA970C2                                      
0000bf90  __covrec_90D55D76C1B40953                                      
0000bfb8  __covrec_4718A562B567B04C                                      
0000bfe0  __covrec_FE8AC5C2C53B8D86                                      
0000c008  __covrec_45436CBF3A4CA093                                      
0000c030  __covrec_861ECA2F7740943D                                      
0000c058  __covrec_DAE8D5ADDB41B37                                       
0000c080  __covrec_CCBC4573637DA55F                                      
0000c0a8  __covrec_28CAF5403BA112D7                                      
0000c0d0  __covrec_F10A23C35B517DD2                                      
0000c0f8  __covrec_1607E55D10EC504D                                      
0000c120  __covrec_7D68043D64CDCF90                                      
0000c148  __covrec_69F779B385F91D45                                      
0000c170  __covrec_9DA8AA09702AC6CE                                      
0000c198  __covrec_6B1D995AB962F0B2                                      
0000c1c0  __covrec_8AE8A728D35176EE                                      
0000c1e8  __covrec_5BE8C1F5F9F49C79                                      
0000c210  __covrec_FD7AD1BDA795009C                                      
0000c238  __covrec_586FB34E967A1C01                                      
0000c260  __covrec_A7B0855D94B2B621                                      
0000c288  __covrec_299EDB45E19271B                                       
0000c2b0  __covrec_80A20283D33EB74C                                      
0000c2d8  __covrec_37E4676AA453B73A                                      
0000c300  __covrec_CCE2B14552749412                                      
0000c328  __covrec_91268A0619F1717E                                      
0000c350  __covrec_E0DF7F5D25D80AD9                                      
0000c378  __covrec_92053EA39EF00CBD                                      
0000c3a0  __covrec_4EB0839C474D2F33                                      
0000c3c8  __covrec_9DCFB323BA939264                                      
0000c3f0  __covrec_3AFB7D729C4BABB0                                      
0000c418  __covrec_746E139C881AA4DE                                      
0000c440  __covrec_3DCF74A11C3A8FF3                                      
0000c468  __covrec_81F4A0B0F22321B5                                      
0000c490  __covrec_FFC75160907BE257                                      
0000c4b8  __covrec_80FAC2C06823F74B                                      
0000c4e0  __covrec_5CEF60968AFEBE0C                                      
0000c508  __covrec_245EBA72A5A0F5EB                                      
0000c530  __covrec_EB3CD7B477E32A81                                      
0000c558  __covrec_C5BCF3911B560B66                                      
0000c580  __covrec_7AF5297569FCAA08                                      
0000c5a8  __covrec_E4B890F76048E996                                      
0000c5d0  __covrec_55810F3EB635025A                                      
0000c5f8  __covrec_1BFF9732B2DAF38C                                      
0000c620  __covrec_671D097439EB28D6                                      
0000c648  __covrec_9446C51CC8E8E80F                                      
0000c670  __covrec_AABEAADEEB5F4E6E                                      
0000c698  __covrec_3060B93F85E68B18                                      
0000c6c0  __covrec_757DFFBA2ED8856A                                      
0000c6e8  __covrec_5CA635E71B7D840A                                      
0000c710  __covrec_5698EC3DDF5C0D44                                      
0000c738  __covrec_7D4D287D0E89CC67                                      
0000c760  __covrec_C6AB4526964850E8                                      
0000c788  __covrec_E6A145D181120995                                      
0000c7b0  __covrec_D959A60138CD433E                                      
0000c7d8  __covrec_FA02E2CA7F81E3AF                                      
0000c800  __covrec_39FF74C6619FBAEE                                      
0000c828  __covrec_3DDAFC730FA6812                                       
0000c850  __covrec_15B0477F91E5A15B                                      
0000c878  __covrec_228B4DCEDE67C9E2                                      
0000c8a0  __covrec_C360429D1CA00A11                                      
0000c8c8  __covrec_BA38EBDE4E634B4D                                      
0000c8f0  __covrec_C47257D07254FED2                                      
0000c918  __covrec_324DA2EC0B259559                                      
0000c940  __covrec_6DCA04C94E6C21D3                                      
0000c968  __covrec_BC100AC494729832                                      
0000c990  __covrec_A13F1F077C7FDC3                                       
0000c9b8  __covrec_37961B0C63A935F4                                      
0000c9e0  __covrec_BEEF592826313069                                      
0000ca08  __covrec_639B738A714F9727                                      
0000ca30  __covrec_6382BE4728128A7B                                      
0000ca58  __covrec_DDF81D9F2B5DCDD2                                      
0000ca80  __covrec_2B3D97B203BD5320                                      
0000caa8  __covrec_430272C77074C92                                       
0000cad0  __covrec_EAA690377138D9D7                                      
0000caf8  __covrec_B1327D09E22FBFCD                                      
0000cb20  __covrec_563C36D078652BFB                                      
0000cb48  __covrec_1129F9D0907743CC                                      
0000cb70  __covrec_528F08850A5A6AA                                       
0000cb98  __covrec_5425D9490B6AD1D3                                      
0000cbc0  __covrec_DA16BD1FEC470510                                      
0000cbe8  __covrec_967F9D7DA7B29977                                      
0000cc10  __covrec_3443F015958810F5                                      
0000cc38  __covrec_757BBA318B051CC4                                      
0000cc60  __covrec_3E27CE08F0E438A7                                      
0000cc88  __covrec_EA1E48C3488CC0E4                                      
0000ccb0  __covrec_564B00DAE5D93552                                      
0000ccd8  __covrec_EC1CAADB898CC6AE                                      
0000cd00  __covrec_5683CC655E710871                                      
0000cd28  __covrec_12B33D9FCAB5C7F6                                      
0000cd50  __covrec_53A77370C248305E                                      
0000cd78  __covrec_CA7C0417F799A12C                                      
0000cda0  __covrec_BAC215A305CB6BB2                                      
0000cdc8  __covrec_D4074637B149442C                                      
0000cdf0  __covrec_746721CCAF0ACA8E                                      
0000ce18  __covrec_D2934CB964BCC507                                      
0000ce40  __covrec_F09CDBF34DB339AD                                      
0000ce68  __covrec_BC5C2824B87BC903                                      
0000ce90  __covrec_3C024D0166B213F1                                      
0000ceb8  __covrec_7AC6F1147BA12A69                                      
0000cee0  __covrec_F317C3F6F2F95EE3                                      
0000cf08  __covrec_8B74CFDA35A78F8A                                      
0000cf30  __covrec_F01F43B2AB69C7                                        
0000cf58  __covrec_3E9B067C2AF7B980                                      
0000cf80  __covrec_132818003A70A7AF                                      
0000cfa8  __covrec_321A183A8097BE95                                      
0000cfd0  __covrec_729FBAB722BFBBA7                                      
0000cff8  __covrec_CF883BE42879D27C                                      
0000d020  __covrec_12BA5CE176C32DDC                                      
0000d048  __covrec_8C7B9AC84A1290D6                                      
0000d070  __covrec_45E0153103EFF78C                                      
0000d098  __covrec_A74A9BBECDE04B5E                                      
0000d0c0  __covrec_FE7D9684EFE6977B                                      
0000d0e8  __covrec_19B8727C1D4ABDAE                                      
0000d110  __covrec_581FA69547FF1789                                      
0000d138  __covrec_5D7FBF201AF53977                                      
0000d160  __covrec_3440A467A910C969                                      
0000d188  __covrec_4DC7EBBFBBF2C80C                                      
0000d1b0  __covrec_DBE35451CF19422                                       
0000d1d8  __covrec_B552D37472D35192                                      
0000d200  __covrec_5A717D53595AA9DE                                      
0000d228  __covrec_991F8D3FEEE781EF                                      
0000d250  __covrec_C239BA51ED9EC8C                                       
0000d278  __covrec_822640F61646CC5D                                      
0000d2a0  __covrec_F0CF892F63A7F7F2                                      
0000d2c8  __covrec_98E619A5BCB11368                                      
0000d2f0  __covrec_35A409F0E6C93C4C                                      
0000d318  __covrec_87B54D9AAE31261B                                      
0000d340  __covrec_AAEDD5461DEC88D2                                      
0000d368  __covrec_AC9CB004A666D213                                      
0000d390  __covrec_BEF4D4CCDE60C523                                      
0000d3b8  __covrec_CB6A11825FEC0147                                      
0000d3e0  __covrec_96777DB40E8EF14                                       
0000d408  __covrec_DF80A5B790AC171A                                      
0000d430  __covrec_2AFC953AB3BFA4B3                                      
0000d458  __covrec_A6927DC5BF881DDC                                      
0000d480  __covrec_4C2163C5B5E62E0A                                      
0000d4a8  __covrec_497DA2F3E5D93472                                      
0000d4d0  __covrec_18C7DFC85F74DF88                                      
0000d4f8  __covrec_1E5D0BA266A05409                                      
0000d520  __covrec_A2C00EFD24BAB1B8                                      
0000d548  __covrec_430FD1DD48650ACE                                      
0000d570  __covrec_66203DD865386CF4                                      
0000d598  __covrec_34960821BB303171                                      
0000d5c0  __covrec_2175477B7920D59E                                      
0000d5e8  __covrec_1FC1559D82C02D42                                      
0000d610  __covrec_9384DA28BA881739                                      
0000d638  __covrec_58550788DEC90388                                      
0000d660  __covrec_E788ABFEAD96B1B3                                      
0000d688  __covrec_B055CE97798BAEE5                                      
0000d6b0  __covrec_EF06C3EF94148348                                      
0000d6d8  __covrec_119935E492C58911                                      
0000d700  __covrec_CCFBAF14A6C959A5                                      
0000d728  __covrec_FED7286FD0A0846C                                      
0000d750  __covrec_9D65C69103DC9EE1                                      
0000d778  __covrec_F3809CC4BFBFDA24                                      
0000d7a0  __covrec_BA37DB786B6EA1B4                                      
0000d7c8  __covrec_51997A82F632E9B6                                      
0000d7f0  __covrec_9B5D5C9A185C05A3                                      
0000d818  __covrec_BBCC8B4742E2744A                                      
0000d840  __covrec_600D5DFBC7E8E0D1                                      
0000d868  __covrec_9F3C201AFBFC7771                                      
0000d890  __covrec_38889281C354E797                                      
0000d8b8  __covrec_8E0D2AC8B7B51C20                                      
0000d8e0  __covrec_17309D8202C86DB3                                      
0000d908  __covrec_EDFD3659CF8A198E                                      
0000d930  __covrec_A55C214A5FC44544                                      
0000d958  __covrec_B6061734BA369469                                      
0000d980  __covrec_1DBD55CB071CE798                                      
0000d9a8  __covrec_31384D9C1FCD85B5                                      
0000d9d0  __covrec_65091D5E19CE7236                                      
0000d9f8  __covrec_8334D045F180AF32                                      
0000da20  __covrec_C29C540C64A8C99C                                      
0000da48  __covrec_89A03468FB70BAED                                      
0000da70  __covrec_817DA88F4397C3F0                                      
0000da98  __covrec_988B02AB6E77D263                                      
0000dac0  __covrec_81D9214AFD4BDAC9                                      
0000dae8  __covrec_C307A6F1EDD2DFB6                                      
0000db10  __covrec_48CBB17F0CCCA98C                                      
0000db38  __covrec_7BF25F52501F5463                                      
0000db60  __covrec_D22CAAC6655B0C37                                      
0000db88  __covrec_914E974F02E5E35B                                      
0000dbb0  __covrec_FC508B703A037D2C                                      
0000dbd8  __covrec_1EB10222D35B87B9                                      
0000dc00  __covrec_D28992F781DD20D5                                      
0000dc28  __covrec_80440FC7E70A608E                                      
0000dc50  __covrec_328C937DCC0945C6                                      
0000dc78  __covrec_D67633C8BBEFBD55                                      
0000dca0  __covrec_117A6AE779833FFF                                      
0000dcc8  __covrec_763DF4557E4E5E72                                      
0000dcf0  __covrec_485836BA7ADA70E7                                      
0000dd18  __covrec_AC68201571F3FB9B                                      
0000dd40  __covrec_5DB286C142F2FC00                                      
0000dd68  __covrec_E176DE7F78C356A8                                      
0000dd90  __covrec_2D7A7904D991C2E0                                      
0000ddb8  __covrec_3D01C64E096BB6C9                                      
0000dde0  __covrec_46EDE5804B593543                                      
0000de08  __covrec_6204ED5D4EDC7D02                                      
0000de30  __covrec_475CA32B2C2CE266                                      
0000de58  __covrec_5693A03265561EA1                                      
0000de80  __covrec_78BBAA4C0B416C21                                      
0000dea8  __covrec_EDB3AA564B5BB202                                      
0000ded0  __covrec_754FB894AEB3A2B4                                      
0000def8  __covrec_15699B8DF7CF109F                                      
0000df20  __covrec_C4BF6877E3DA2AE6                                      
0000df48  __covrec_216718CA83AD3AF2                                      
0000df70  __covrec_AD93EC839DDCEE0E                                      
0000df98  __covrec_5792CDB37B0EB554                                      
0000dfc0  __covrec_31DC7ECBF26839AC                                      
0000dfe8  __covrec_B1EB7085F74D8687                                      
0000e010  __covrec_B68CBA3DB0144E60                                      
0000e038  __covrec_F84035B684B27B21                                      
0000e060  __covrec_2DDC7AACECA4585A                                      
0000e088  __covrec_331B394963683510                                      
0000e0b0  __covrec_1179DC1F40DF19BB                                      
0000e0d8  __covrec_AF320D236265B896                                      
0000e100  __covrec_21D48F08684C7774                                      
0000e128  __covrec_B3657841B1675CD2                                      
0000e150  __covrec_F1D5AE02B00D28                                        
0000e178  __covrec_8DFE773213DB51DE                                      
0000e1a0  __covrec_CA537B5FD783D60B                                      
0000e1c8  __covrec_2046BE57FB3E054C                                      
0000e1f0  __covrec_E248C48590FF7B21                                      
0000e218  __covrec_D3387D696F34035B                                      
0000e240  __covrec_61DF9CC8984FB629                                      
0000e268  __covrec_9DBD17518F4E29C3                                      
0000e290  __covrec_40D646295DAC752                                       
0000e2b8  __covrec_1E967D82AE57104C                                      
0000e2e0  __covrec_C4BFDCB78073AB38                                      
0000e308  __covrec_65452D93FF7AE6CE                                      
0000e330  __covrec_E8D50A624AF1499A                                      
0000e358  __covrec_5DF83C55D6E82DD6                                      
0000e380  __covrec_79B4F91832129CA6                                      
0000e3a8  __covrec_FB615516353485F1                                      
0000e3d0  __covrec_30B5CF75E7DDB3BE                                      
0000e3f8  __covrec_3CD7868FF6D37CF3                                      
0000e420  __covrec_DF19DB5FF8AA4536                                      
0000e448  __covrec_45806013A668158C                                      
0000e470  __covrec_B6F3E3BAD089DBAE                                      
0000e498  __covrec_623CC9784B4121C1                                      
0000e4c0  __covrec_75FF3BCF01AD1DCE                                      
0000e4e8  __covrec_1CD6F65EDB220D52                                      
0000e510  __covrec_E468212A7A4C64E3                                      
0000e538  __covrec_633024824CBAEE71                                      
0000e560  __covrec_D023413EC1FF36D0                                      
0000e588  __covrec_4013210C481D0A23                                      
0000e5b0  __covrec_AAEED63D1029DA46                                      
0000e5d8  __covrec_905E63600D3955D3                                      
0000e600  __covrec_8E0C3A5E8D1D8B34                                      
0000e628  __covrec_780EF97DE54A250A                                      
0000e650  __covrec_932E0709331E6B6B                                      
0000e678  __covrec_10824BD04F6231E0                                      
0000e6a0  __covrec_A7B287DE04B3E03                                       
0000e6c8  __covrec_3AA23B4CA70BF4D8                                      
0000e6f0  __covrec_14FA4B69117446C1                                      
0000e718  __covrec_6E5290F4B1AC7C97                                      
0000e740  __covrec_14FF88AAFCD7D57D                                      
0000e768  __covrec_397D89BAB9602260                                      
0000e790  __covrec_ECF40B9B8A4306F9                                      
0000e7b8  __covrec_F35691FD0BB8A7B8                                      
0000e7e0  __covrec_91246371028CE229                                      
0000e808  __covrec_AFEBE9C6828061A1                                      
0000e830  __covrec_99389F241C65C1B8                                      
0000e858  __covrec_B44AEF7925B0EBA                                       
0000e880  __covrec_B967147E74E51FAD                                      
0000e8a8  __covrec_94630ABCD1F71558                                      
0000e8d0  __covrec_1D69454E4585F9FA                                      
0000e8f8  __covrec_3AC1DBF81307EA6C                                      
0000e920  __covrec_5775237149682687                                      
0000e948  __covrec_69C2D9C3FFABDF1E                                      
0000e970  __covrec_1EE4D15989A2B4E4                                      
0000e998  __covrec_4E427332E8382E46                                      
0000e9c0  __covrec_D5409A4D6856EF55                                      
0000e9e8  __covrec_90DCF7F79E49CAAC                                      
0000ea10  __covrec_E82325860AD548EB                                      
0000ea38  __covrec_84D04A2932D868E1                                      
0000ea60  __covrec_B05388EBD8752329                                      
0000ea88  __covrec_C81DAEE90F8696CC                                      
0000eab0  __covrec_7F39F8D4F7AA2194                                      
0000ead8  __covrec_6F902A328862CA3C                                      
0000eb00  __covrec_A509FC975E3FE1D                                       
0000eb28  __covrec_6FC781AA1F8A0AF6                                      
0000eb50  __covrec_601D8438B0B370FE                                      
0000eb78  __covrec_E6EDFEBC4DC305A2                                      
0000eba0  __covrec_DB846B1F611511E2                                      
0000ebc8  __covrec_F0C5C704EF22E445                                      
0000ebf0  __covrec_8D95D35639606030                                      
0000ec18  __covrec_77AFE7D5BE45A231                                      
0000ec40  __covrec_50F46F04ABA816B1                                      
0000ec68  __covrec_8F001A8FBE0D0EA1                                      
0000ec90  __covrec_D7D2A99D60ACB32C                                      
0000ecb8  __covrec_F5F30506630A8A6A                                      
0000ece0  __covrec_4E1DBE19647923AA                                      
0000ed08  __covrec_E253D24803A745F8                                      
0000ed30  __covrec_811F42F540BF9F2A                                      
0000ed58  __covrec_6442263EB4C4ECE0                                      
0000ed80  __covrec_347833257255D714                                      
0000eda8  __covrec_F7136B9270F615B7                                      
0000edd0  __covrec_832A43C86DB40C1D                                      
0000edf8  __covrec_E9F6566CE2924DCD                                      
0000ee20  __covrec_AA329F79BA5D4AEB                                      
0000ee48  __covrec_7CE52103876A38E8                                      
0000ee70  __covrec_E85C8D29E7F6CB1F                                      
0000ee98  __covrec_DC69E42406D125B8                                      
0000eec0  __covrec_3BF2B88451504C58                                      
0000eee8  __covrec_84B49415AF1868AF                                      
0000ef10  __covrec_965CD31C1298714E                                      
0000ef38  __covrec_ECC1E88C41748830                                      
0000ef60  __covrec_D2A160C7D91897                                        
0000ef88  __covrec_CDBCE9076F882CD6                                      
0000efb0  __covrec_9C7E4780112F9DD4                                      
0000efd8  __covrec_82FF712195CADFA0                                      
0000f000  __covrec_31723A59EE01CB6F                                      
0000f028  __covrec_9F2BD20A1D192943                                      
0000f050  __covrec_E7450405C7F6F39C                                      
0000f078  __covrec_FA3CF57E57B39F53                                      
0000f0a0  __covrec_DBC4F0F97B3DA53C                                      
0000f0c8  __covrec_E893E960D0B12CDC                                      
0000f0f0  __covrec_74AD938A5BA92A7E                                      
0000f118  __covrec_AFDAEBE1B0D952AD                                      
0000f140  __covrec_C73A30597B6CE2DC                                      
0000f168  __covrec_F277D89E3DFFF5DD                                      
0000f190  __covrec_7AA1C05CED579EC5                                      
0000f1b8  __covrec_14C7D3D01E57A504                                      
0000f1e0  __covrec_B179A17659FF2C11                                      
0000f208  __covrec_EDA7DA81A150E038                                      
0000f230  __covrec_9517842FD8D805A0                                      
0000f258  __covrec_710DEE95B1A70540                                      
0000f280  __covrec_DA9A9D536ADFC90B                                      
0000f2a8  __covrec_6314EB5485BC7F25                                      
0000f2d0  __covrec_7DA2BD1290B5E601                                      
0000f2f8  __covrec_DC0FA30D02EF7B58                                      
0000f320  __covrec_B978B224B473938F                                      
0000f348  __covrec_343940E2870E9B0E                                      
0000f370  __covrec_7A067878B7FDE586                                      
0000f398  __covrec_EDDEF903D67BFC06                                      
0000f3c0  __covrec_3F79BDA4008A8933                                      
0000f3e8  __covrec_3B24D5353F7BB6D1                                      
0000f410  __covrec_6AEE3ED1AB86CC6C                                      
0000f438  __covrec_6F20C2D7023DB8E8                                      
0000f460  __covrec_D2007C2CBD0F9E4D                                      
0000f488  __covrec_4698FA8E637FED05                                      
0000f4b0  __covrec_30FFBF09B05F3927                                      
0000f4d8  __covrec_DF36CD3867E449BC                                      
0000f500  __covrec_8EB22456CBE7DB26                                      
0000f528  __covrec_D6089EA6A03C1DFE                                      
0000f550  __covrec_50652C5F2DE678E3                                      
0000f578  __covrec_B09F79FD8EF659EE                                      
0000f5a0  __covrec_B78EF92F49E0058B                                      
0000f5c8  __covrec_2D1E6856B3061151                                      
0000f5f0  __covrec_19E75B9307F97AB0                                      
0000f618  __covrec_A90175A665803D3A                                      
0000f640  __covrec_EBCEB31F8A3D685C                                      
0000f668  __covrec_78F30011E96A5C42                                      
0000f690  __covrec_81785CEA135AD10E                                      
0000f6b8  __covrec_D13B5C531F5197CD                                      
0000f6e0  __covrec_9C873B56BD4E64FA                                      
0000f708  __covrec_FDC1FA3BFCE27CA3                                      
0000f730  __covrec_E77647DCFED80E9                                       
0000f758  __covrec_E9D0B9A106B570B2                                      
0000f780  __covrec_CB3C47A7D249D04                                       
0000f7a8  __covrec_935E5F4BC12023D3                                      
0000f7d0  __covrec_44B12D8825409BC2                                      
0000f7f8  __covrec_1AFE6ECE1BD6F5C2                                      
0000f820  __covrec_B1652563AEC5544B                                      
0000f848  __covrec_4B154ED39D9AF395                                      
0000f870  __covrec_C2BBD9F4FD1A81B5                                      
0000f898  __covrec_84B2FD790164F848                                      
0000f8c0  __covrec_69DE4DF1890DADB7                                      
0000f8e8  __covrec_F7F273F985C06D9C                                      
0000f910  __covrec_C17285F0F24EF078                                      
0000f938  __covrec_3B4669D912F6CCFB                                      
0000f960  __covrec_597B766BDF97E9A4                                      
0000f988  __covrec_7EF36698A1E34789                                      
0000f9b0  __covrec_F6B56496C33FA558                                      
0000f9d8  __covrec_41D355DEE93F316                                       
0000fa00  __covrec_FC6C86B71CC34A40                                      
0000fa28  __covrec_30A6073BD61E816A                                      
0000fa50  __covrec_5406CB2E1C44728                                       
0000fa78  __covrec_FFA0CFE7D81EDE77                                      
0000faa0  __covrec_D57E84B1A2601E15                                      
0000fac8  __covrec_E8236E0C4E17C5AD                                      
0000faf0  __covrec_69DE16BA85A71611                                      
0000fb18  __covrec_780F2DA8DE31FC9E                                      
0000fb40  __covrec_786C1CC0E1F24C6C                                      
0000fb68  __covrec_E4A1E387ECAC3A2D                                      
0000fb90  __covrec_9ECBD043067646A3                                      
0000fbb8  __covrec_74794AE17B5C57B9                                      
0000fbe0  __covrec_7139FD0F045F9185                                      
0000fc08  __covrec_2D8A3E6347FF950C                                      
0000fc30  __covrec_19F06ABB5A28AA72                                      
0000fc58  __covrec_5F86F943AF231A95                                      
0000fc80  __covrec_9CDCF4ABBCDB66CE                                      
0000fca8  __covrec_B03F31128199A7A5                                      
0000fcd0  __covrec_8EA5F89D745F0C6A                                      
0000fcf8  __covrec_6F0FAD3458A6C65F                                      
0000fd20  __covrec_5FF2A874BA51D671                                      
0000fd48  __covrec_6EBA548D6F415BA1                                      
0000fd70  __covrec_16BDE21014ED2C1                                       
0000fd98  __covrec_F1CA3058F4C0F3B1                                      
0000fdc0  __covrec_10DD02304F236F5B                                      
0000fde8  __covrec_F83A171A8DE1F8B3                                      
0000fe10  __covrec_9971090978BE6753                                      
0000fe38  __covrec_C78B4A6A98D02577                                      
0000fe60  __covrec_5AD6145C62BED28F                                      
0000fe88  __covrec_1EC243A73359BD5F                                      
0000feb0  __covrec_42C38FC99BBB9DEE                                      
0000fed8  __covrec_9FD435B6EDB75583                                      
0000ff00  __covrec_EEC19C275E247D9D                                      
0000ff28  __covrec_8BDFCF1999B7FA38                                      
0000ff50  __covrec_FCB920B883F15C5B                                      
0000ff78  __covrec_2DECA8561F707322                                      
0000ffa0  __covrec_42B1FA5D2A28E44C                                      
0000ffc8  __covrec_E54F38072A567845                                      
0000fff0  __covrec_73735C19FACE89E4                                      
00010018  __covrec_6313EF3067172709                                      
00010040  __covrec_BF4EA921547B71EE                                      
00010068  __covrec_DF9BB6D34120A97B                                      
00010090  __covrec_7B424DF0B25FFF2D                                      
000100b8  __covrec_48BFA1C093CFE041                                      
000100e0  __covrec_3F5C1E56D1753C63                                      
00010108  __covrec_3F515E8DEDCFDB3C                                      
00010130  __covrec_EA2B3784EFBDE16B                                      
00010158  __covrec_1F54DD07CE6E3CC3                                      
00010180  __covrec_F8E27A2D33292F4B                                      
000101a8  __covrec_A926C2DA317B08A4                                      
000101d0  __covrec_6732255AC3A1FA23                                      
000101f8  __covrec_E58267904E30DEFA                                      
00010220  __covrec_26F7BD59BDABA46                                       
00010248  __covrec_986C114E42E8D05C                                      
00010270  __covrec_4FC04B3E518F0361                                      
00010298  __covrec_FB10B5C5DB7D0EAB                                      
000102c0  __covrec_1D03C489628EC74D                                      
000102e8  __covrec_18ABC13FAC28025C                                      
00010310  __covrec_E672E4C139CF37B5                                      
00010338  __covrec_80FD584348984E04                                      
00010360  __covrec_7F52CB605BDD2FE                                       
00010388  __covrec_D706DB4BB573BB3D                                      
000103b0  __covrec_B3659197FDC20C4B                                      
000103d8  __covrec_9C5548CB9C402249                                      
00010400  __covrec_3DBD25D85CE95350                                      
00010428  __covrec_A012943D946C7220                                      
00010450  __covrec_3F10DB2D12771804                                      
00010478  __covrec_A01FF74824829A64                                      
000104a0  __covrec_90CD5B778C8D157F                                      
000104c8  __covrec_CD770DF23638413B                                      
000104f0  __covrec_4A70D883AED610D6                                      
00010518  __covrec_4CF1F17A7E634135                                      
00010540  __covrec_C1B12A6B3A138DC9                                      
00010568  __covrec_ED88A247DEB1B920                                      
00010590  __covrec_F6C47C4FF9C0768B                                      
000105b8  __covrec_CB3FF3F526A2F00C                                      
000105e0  __covrec_16674943AE982D61                                      
00010608  __covrec_D3E0CC8EE8B7B5EB                                      
00010630  __covrec_8A28EF8B3F240F7D                                      
00010658  __covrec_BCE304DA2995D59D                                      
00010680  __covrec_54DEC94B3D73D88D                                      
000106a8  __covrec_E6E84AC0AB1FA6F                                       
000106d0  __covrec_3CCD0FBCDE385140                                      
000106f8  __covrec_5A37A076E8C9BBDA                                      
00010720  __covrec_67B70B543A763C65                                      
00010748  __covrec_E4EE63A78EBD9E96                                      
00010770  __covrec_3EEF78312BD96C34                                      
00010798  __covrec_30F8FDE14BEBA5C3                                      
000107c0  __covrec_7D622BAF5C1DD492                                      
000107e8  __covrec_825BEE18E61FC99A                                      
00010810  __covrec_9BDFC8677807B4A8                                      
00010838  __covrec_64AAD3E48D70B9                                        
00010860  __covrec_7549A71CC7241F46                                      
00010888  __covrec_D3BD8053F86E41DE                                      
000108b0  __covrec_E8750E338B985971                                      
000108d8  __covrec_B3A396CC62A90D9D                                      
00010900  __covrec_3B8712F8CC28A7DB                                      
00010928  __covrec_9B8C2CA9195D8A89                                      
00010950  __covrec_F7CCB73360C44C19                                      
00010978  __covrec_C4B01E72A10B79FE                                      
000109a0  __covrec_4726466DEFBBB981                                      
000109c8  __covrec_201277E0AA6EE9F3                                      
000109f0  __covrec_845FD839DBC7C1AF                                      
00010a18  __covrec_608E1EBDE4771F04                                      
00010a40  __covrec_BE9D5D41A4A00A13                                      
00010a68  __covrec_CC6EB3AA84257997                                      
00010a90  __covrec_8B753A5C478F8754                                      
00010ab8  __covrec_23BA94AFA28E8B44                                      
00010ae0  __covrec_B924B179892F5543                                      
00010b08  __covrec_150B89D347BC7E6E                                      
00010b30  __covrec_7E8D5D9947CB4DEB                                      
00010b58  __covrec_EFE4358F82272623                                      
00010b80  __covrec_2F22268672A76EE3                                      
00010ba8  __covrec_D07EA17EA69B8479                                      
00010bd0  __covrec_2EB222C72903A525                                      
00010bf8  __covrec_18AC38AE70A94599                                      
00010c20  __covrec_986BD29BFA975C74                                      
00010c48  __covrec_D6A18F6B0143D735                                      
00010c70  __covrec_35368D2270EB9D54                                      
00010c98  __covrec_AFFEE0267C35E1C9                                      
00010cc0  __covrec_5B2EF3F713A9AD4C                                      
00010ce8  __covrec_26BDD9085FF96DA5                                      
00010d10  __covrec_1540C2C144B9922B                                      
00010d38  __covrec_DACD33E1AF0DED55                                      
00010d60  __covrec_F9263E8B0B2360BF                                      
00010d88  __covrec_22E2236BC99304F9                                      
00010db0  __covrec_922DA92A28304F0F                                      
00010dd8  __covrec_ABBB0DCCFB7B4AA9                                      
00010e00  __covrec_3E9B0EF1AFDE6C23                                      
00010e28  __covrec_D19EE980B71AEC43                                      
00010e50  __covrec_4F1EDF961F9F9089                                      
00010e78  __covrec_993A6E8B0790B7DA                                      
00010ea0  __covrec_BD68002B29E6FA                                        
00010ec8  __covrec_609D0681607B0888                                      
00010ef0  __covrec_6858C8E5B39CEB34                                      
00010f18  __covrec_CB298777B5BBC7AD                                      
00010f40  __covrec_753AC122F5322A9A                                      
00010f68  __covrec_1ED2390858C3EB64                                      
00010f90  __covrec_617E8FCBAE7597D0                                      
00010fb8  __covrec_6884C285E245124A                                      
00010fe0  __covrec_F5013732295CEBE5                                      
00011008  __covrec_BEB1D8468371349B                                      
00011030  __covrec_DDCA764F6F979673                                      
00011058  __covrec_EFD1C49295F7E42E                                      
00011080  __covrec_2A658EA1206C62D6                                      
000110a8  __covrec_B451A5983A07C08F                                      
000110d0  __covrec_303E360AA0461E56                                      
000110f8  __covrec_EB81A68135E0DDA4                                      
00011120  __covrec_75B4464203626D69                                      
00011148  __covrec_96FA237B6317939A                                      
00011170  __covrec_589F986B7592F53B                                      
00011198  __covrec_3E1A6E5850148636                                      
000111c0  __covrec_695B846627E823D1                                      
000111e8  __covrec_9BF50A7EEF665123                                      
00011210  __covrec_81F37EBCBF637F88                                      
00011238  __covrec_D7386B0EE8FE1AA8                                      
00011260  __covrec_88D20376481FF100                                      
00011288  __covrec_F88B33E70F89E09                                       
000112b0  __covrec_13672E230F457DC9                                      
000112d8  __covrec_2C177686F2932C2C                                      
00011300  __covrec_E7F6FCCA4F212604                                      
00011328  __covrec_BAE55637B2915732                                      
00011350  __covrec_916FF1DCA6C18374                                      
00011378  __covrec_25D863D26F29F221                                      
000113a0  __covrec_7A0EA898D56D0CFC                                      
000113c8  __covrec_39B0DFCD7DF2AB37                                      
000113f0  __covrec_3DE34E8EF07EF7FD                                      
00011418  __covrec_5EA71F0DEB9B9AE1                                      
00011440  __covrec_A8498A117B23AFC8                                      
00011468  __covrec_D66F26331EE7175B                                      
00011490  __covrec_68010FB294048503                                      
000114b8  __covrec_8B9A3DF1DFB13D5                                       
000114e0  __covrec_2D4D821B616E6924                                      
00011508  __covrec_6352F0854902E882                                      
00011530  __covrec_30C72D90FAAB52FA                                      
00011558  __covrec_11548A0C371099D9                                      
00011580  __covrec_405D48D0FC02CE4                                       
000115a8  __covrec_5AA4C50A3572C884                                      
000115d0  __covrec_3BEEED776316E3D8                                      
000115f8  __covrec_A43679B7CAE7663                                       
00011620  __covrec_8D90CBB889ED1FE5                                      
00011648  __covrec_784B640CB8E108BA                                      
00011670  __covrec_F7E26B3CC76FBD79                                      
00011698  __covrec_1A0F7EC2AC44F654                                      
000116c0  __covrec_2D723378264E6A7                                       
000116e8  __covrec_307BB5214E98EBCB                                      
00011710  __covrec_DFFFDF448C6D309                                       
00011738  __covrec_31DC30DDC7036A3C                                      
00011760  __covrec_C7D3229704260BFE                                      
00011788  __covrec_B9C3540C3AC1D54F                                      
000117b0  __covrec_FFDBAA12E3B6E83D                                      
000117d8  __covrec_E7095CEEB5EADC68                                      
00011800  __covrec_FB989D4CBC1E077                                       
00011828  __covrec_278B19F5D60C3947                                      
00011850  __covrec_A085E9CD601672CE                                      
00011878  __covrec_8D541966D9D56E19                                      
000118a0  __covrec_A820663F94339109                                      
000118c8  __covrec_29FD4C6F37BB673F                                      
000118f0  __covrec_87AAEC4718B9F8AC                                      
00011918  __covrec_A3C077298A1EE38                                       
00011940  __covrec_AA52FE737418A4EA                                      
00011968  __covrec_F04D21C3157E4AF3                                      
00011990  __covrec_C7C205F37933D1CA                                      
000119b8  __covrec_67F0E0E2F00783DA                                      
000119e0  __covrec_CFCCF873B7181C91                                      
00011a08  __covrec_99409FA97391397F                                      
00011a30  __covrec_AB2A380F7C8F9FB2                                      
00011a58  __covrec_A0DBB38BB4760AA5                                      
00011a80  __covrec_7C742A04106EA598                                      
00011aa8  __covrec_30E2ED287923C2A1                                      
00011ad0  __covrec_3AAA503472040552                                      
00011af8  __covrec_CD5C2F4CD8490DB3                                      
00011b20  __covrec_5FAB5DB66DF3F6B1                                      
00011b48  __covrec_A9C700E1C71561D6                                      
00011b70  __covrec_9C82DD3C630C958E                                      
00011b98  __covrec_C617E7C9DBB1B5DC                                      
00011bc0  __covrec_6230355C4154A2EB                                      
00011be8  __covrec_157321A8C10AC04E                                      
00011c10  __covrec_80F12DDB53016D40                                      
00011c38  __covrec_7149D062015CF471                                      
00011c60  __covrec_FEEDC4A55B8BFBDD                                      
00011c88  __covrec_DEE1C41A02EED5C4                                      
00011cb0  __covrec_A52E9CCCE269F017                                      
00011cd8  __covrec_59F98C605AC61246                                      
00011d00  __covrec_ADE3F00B66E34EBB                                      
00011d28  __covrec_F977D804E2DE5C3E                                      
00011d50  __covrec_2D2B2BAF1BAC8BDA                                      
00011d78  __covrec_1A4544BED21CEB2C                                      
00011da0  __covrec_5F9688E4D5455A4F                                      
00011dc8  __covrec_DFE73B7B1021BC7A                                      
00011df0  __covrec_1CABCD001BB8A2D4                                      
00011e18  __covrec_BE4C15D3B32B067C                                      
00011e40  __covrec_FD9DA43F75BC40F9                                      
00011e68  __covrec_A867A2AB552AD431                                      
00011e90  __covrec_AA40C52F613ED07F                                      
00011eb8  __covrec_A18395C77B6C122B                                      
00011ee0  __covrec_80A470E2383756C7                                      
00011f08  __covrec_41297A6DA905A84F                                      
00011f30  __covrec_134F21299CF91075                                      
00011f58  __covrec_871145ED86CD1F0                                       
00011f80  __covrec_BE385D0749AA9AC6                                      
00011fa8  __covrec_5B3116183A6F0466                                      
00011fd0  __covrec_D4626EC386D868E0                                      
00011ff8  __covrec_731B204584E19236                                      
00012020  __covrec_13941B1E936B73E2                                      
00012048  __covrec_9D8BCDECE7C49ABE                                      
00012070  __covrec_4DAE465C3086FC76                                      
00012098  __covrec_2A91C3E5F45518F9                                      
000120c0  __covrec_11F13472B68456                                        
000120e8  __covrec_7B0291F67719FE1E                                      
00012110  __covrec_6822925391E24728                                      
00012138  __covrec_9BE0DEA223C84842                                      
00012160  __covrec_A974A80756D49DB9                                      
00012188  __covrec_E1A5B2CA3303A7AC                                      
000121b0  __covrec_CECC738F131939BC                                      
000121d8  __covrec_2548E4241C41D4AC                                      
00012200  __covrec_D586C93DA51AE2EF                                      
00012228  __covrec_9D7FE2815054410B                                      
00012250  __covrec_BF0525D0545F407D                                      
00012278  __covrec_CED9A24C87C67E33                                      
000122a0  __covrec_BBC1B71FF0D6E9B7                                      
000122c8  __covrec_E66B7ADE829927E1                                      
000122f0  __covrec_CCA1F12623A87E34                                      
00012318  __covrec_693DE5C38757BCA9                                      
00012340  __covrec_276B3C7F132E7949                                      
00012368  __covrec_A359454EB6553D3C                                      
00012390  __covrec_AC331E4603C5064F                                      
000123b8  __covrec_6B6CF2E8B51150E7                                      
000123e0  __covrec_FC4C0F69166A5CA                                       
00012408  __covrec_9988F745693DE43F                                      
00012430  __covrec_F2FDFE424BC57950                                      
00012458  __covrec_D946AFFF68D80E46                                      
00012480  __covrec_77E8D9E82E558C56                                      
000124a8  __covrec_E6BC0395B465B060                                      
000124d0  __covrec_B5717455E0C92E77                                      
000124f8  __covrec_7BCD1EAB9F4C3537                                      
00012520  __covrec_4636F542C7B57A00                                      
00012548  __covrec_7D40DEB2329FBEA7                                      
00012570  __covrec_812471B10D40FFA1                                      
00012598  __covrec_8348022D202C8AC0                                      
000125c0  __covrec_CDBEC65CA76225B3                                      
000125e8  __covrec_74886A0737907A5C                                      
00012610  __covrec_676F8970FE61FFB9                                      
00012638  __covrec_4436F28390350551                                      
00012660  __covrec_346C6355D054AFA7                                      
00012688  __covrec_222CA9EC1B745CD9                                      
000126b0  __covrec_C37F4325D39AA6F4                                      
000126d8  __covrec_AD1A311A8594BE7E                                      
00012700  __covrec_C1879FA7C346EBC                                       
00012728  __covrec_749663B955003AA6                                      
00012750  __covrec_D65B84EB5603889D                                      
00012778  __covrec_A3B838279DB1FA53                                      
000127a0  __covrec_15D8AD984765CE7C                                      
000127c8  __covrec_12B18424C859DF9D                                      
000127f0  __covrec_913EA166209F947B                                      
00012818  __covrec_1759666B8765F80D                                      
00012840  __covrec_3218CEAEDF4FBA00                                      
00012868  __covrec_1BEE14838B08B7EA                                      
00012890  __covrec_60E17CA99ACCDE1D                                      
000128b8  __covrec_9C1F00C8590A33A7                                      
000128e0  __covrec_E3820D34BA47BB77                                      
00012908  __covrec_F442D8DCEFB37265                                      
00012930  __covrec_63D8F0E07CCD453E                                      
00012958  __covrec_87407FA9A44A40A2u                                     
00012988  __covrec_708B7A7D79BBA6F8u                                     
000129d0  __covrec_84E4A0057FAD0A59u                                     
00012a00  __covrec_E3732906550CD981u                                     
00012a30  __covrec_2A33AB353E6B969Cu                                     
00012a60  __covrec_9F7A44C31F30E557u                                     
00012ab0  __covrec_1818E437BF5521D7u                                     
00012b58  __covrec_312A4BFE34759836u                                     
00012cb8  __covrec_6542572E354590CFu                                     
00012d00  __covrec_A82648F5D98B7859u                                     
00012d80  __covrec_C3CFC36A5F5D99B3u                                     
00012de0  __covrec_F5693309C435B169u                                     
00012e70  __covrec_630C36F8FE9CB836u                                     
00012f00  __covrec_15D3266DA7E8B312u                                     
00013038  __covrec_2FF7B4984425CC0u                                      
000131b8  __covrec_65F04B46BB179B8u                                      
000132a8  __covrec_DB956436E78DD5FAu                                     
00013538  __covrec_F34415AA74C2C0B5u                                     
00013598  __covrec_B7189D63FAA09618u                                     
000135f8  __covrec_C261F68F35CFA580u                                     
00013660  __covrec_B58A8E869E6C801Du                                     
00013688  __covrec_CF3797F7279398BAu                                     
000136c8  __covrec_A04AA94C3C7B06CAu                                     
00013728  __covrec_E87E0AE133896FB5u                                     
00013788  __covrec_736F323106BCBDF9u                                     
000137b0  __covrec_BA0506ACA72E58F1u                                     
000137d8  __covrec_D2967BEED231EBB9u                                     
00013800  __covrec_AA7CC8C43AC85B72u                                     
00013838  __covrec_61B769F232724172u                                     
00013868  __covrec_D18D2F87354CA54Au                                     
000138a0  __covrec_19A0E87120CDC68F                                      
000138c8  __covrec_DABFBE0453737A5C                                      
000138f0  __covrec_C060C9768DCAB2A8                                      
00013918  __covrec_4C8D96EF0DDBAFA7                                      
00013940  __covrec_F515BF3F6C43A13C                                      
00013968  __covrec_8A59311EC687160A                                      
00013990  __covrec_823235607775D0B6                                      
000139b8  __covrec_D91ECAC3B6D052E3                                      
000139e0  __covrec_4160D310CB6BF259                                      
00013a08  __covrec_F82293AD89C95321                                      
00013a30  __covrec_CCE0C4F0B73E0BA                                       
00013a58  __covrec_F8B636CC8785578B                                      
00013a80  __covrec_10C260ADCECCBC97                                      
00013aa8  __covrec_9A1D3965CC9FBFB7                                      
00013ad0  __covrec_C13FE30D6EBFD35D                                      
00013af8  __covrec_B47AEEA05EDD3A0B                                      
00013b20  __covrec_2F210A4B8480D006                                      
00013b48  __covrec_4E4549337C124BD7                                      
00013b70  __covrec_DF465A079B7A6E97                                      
00013b98  __covrec_F6EF86C8AD33C5F                                       
00013bc0  __covrec_17E391D7123D892C                                      
00013be8  __covrec_EB260801B5C3CAC4                                      
00013c10  __covrec_A718305FA851DB46                                      
00013c38  __covrec_EFCF663EF5A032AF                                      
00013c60  __covrec_5109CAA780E293F9                                      
00013c88  __covrec_B9D2F8AC2EC60668                                      
00013cb0  __covrec_629F6EA827D66033                                      
00013cd8  __covrec_7CF3A258CE90A1E7                                      
00013d00  __covrec_95045BBE0FFC0B80                                      
00013d28  __covrec_CF8FD41481671D22                                      
00013d50  __covrec_C7FA0B5F555E0379                                      
00013d78  __covrec_7470D8597953AD98                                      
00013da0  __covrec_2D9218100881F315                                      
00013dc8  __covrec_671360DFD81C473D                                      
00013df0  __covrec_ED533E3C48FCFDE6                                      
00013e18  __covrec_73E881B9822652DA                                      
00013e40  __covrec_FE00A2899632E542                                      
00013e68  __covrec_A909E1BF84590A7D                                      
00013e90  __covrec_D55558700E625396                                      
00013eb8  __covrec_69A7919894F3DB7C                                      
00013ee0  __covrec_C68B8B6BDDE847AE                                      
00013f08  __covrec_C42E9DAA23A2BB70                                      
00013f30  __covrec_1074AE20F9C3BBFE                                      
00013f58  __covrec_D14AB83585B8939C                                      
00013f80  __covrec_BD65040E1CE60EE3                                      
00013fa8  __covrec_7584AB076ECF638E                                      
00013fd0  __covrec_295C308EAC51557B                                      
00013ff8  __covrec_A5EB250CC186D90F                                      
00014020  __covrec_5CD08469690590F                                       
00014048  __covrec_806E27EAF0C11794                                      
00014070  __covrec_8A0205EA0F164286                                      
00014098  __covrec_E20921E552814F6E                                      
000140c0  __covrec_D7F70C066D31D65B                                      
000140e8  __covrec_9A99124CE503DA7C                                      
00014110  __covrec_4F15575AF85F45F8                                      
00014138  __covrec_DF99F6B7CA03ED45                                      
00014160  __covrec_A838B0037E5B820A                                      
00014188  __covrec_712D90923B9313E8                                      
000141b0  __covrec_94CDB1A09E22B70F                                      
000141d8  __covrec_A8618B820C4323C3                                      
00014200  __covrec_B9FD434D26801D1D                                      
00014228  __covrec_60A240CFB9A1358C                                      
00014250  __covrec_BB8C9E940FD1CB5                                       
00014278  __covrec_9F390F9A46DA5254                                      
000142a0  __covrec_86E2D63847DC13CC                                      
000142c8  __covrec_E4BB08E6BCCDD44A                                      
000142f0  __covrec_6B79FF4545BC364E                                      
00014318  __covrec_42266583FA40288A                                      
00014340  __covrec_6AB899E042D0D879                                      
00014368  __covrec_7D2F86AA578C2D6                                       
00014390  __covrec_696D87D6036FC870                                      
000143b8  __covrec_3C2E171F1E98D773                                      
000143e0  __covrec_33589DA86868947D                                      
00014408  __covrec_6F7089FE2CB7231C                                      
00014430  __covrec_C0B20500DA1986C9                                      
00014458  __covrec_DCA2A249A7F128BF                                      
00014480  __covrec_9C726F32BEDB8827                                      
000144a8  __covrec_2C6FF4AFB56852BC                                      
000144d0  __covrec_2F6BED6892E57B50                                      
000144f8  __covrec_62D24A3BE52C9DF1                                      
00014520  __covrec_1EC2171F3DCD1F0A                                      
00014548  __covrec_16FAC33A39EFD93A                                      
00014570  __covrec_3BC485789CD3CEA6                                      
00014598  __covrec_A6CBECAFB28BAB71                                      
000145c0  __covrec_D457016882A1DBC                                       
000145e8  __covrec_2DE13D11106F30C3                                      
00014610  __covrec_C2022158F2C67453                                      
00014638  __covrec_AC7CE2AC0EC3D1F0                                      
00014660  __covrec_C9F9A4550F5A1B1D                                      
00014688  __covrec_FD4E65FC107866                                        
000146b0  __covrec_EE96F096B8801EC6                                      
000146d8  __covrec_C47E72F5FDC963B6                                      
00014700  __covrec_FBEA5EB78C0ECE47                                      
00014728  __covrec_F5DF5144051CF861                                      
00014750  __covrec_91507A5FC4C00B7B                                      
00014778  __covrec_6FCF8583FE1EA4DA                                      
000147a0  __covrec_607EB9EB1A7C5531                                      
000147c8  __covrec_C679D3FB88FDF155                                      
000147f0  __covrec_1E81C76A394FF98F                                      
00014818  __covrec_12CBF742F84AB747                                      
00014840  __covrec_1F6F1D8B6C036644                                      
00014868  __covrec_D1D8719730CB6775                                      
00014890  __covrec_EEEF62D74F96B153                                      
000148b8  __covrec_75FB64B66DD5E76A                                      
000148e0  __covrec_96E3996A1D8BFEE6                                      
00014908  __covrec_6AFC3A74A36A6AA0                                      
00014930  __covrec_53BDD9192758C0C7                                      
00014958  __covrec_2DA731F07EE32B4A                                      
00014980  __covrec_500EF415A0AFA018                                      
000149a8  __covrec_BB2D4E5BDAA29309                                      
000149d0  __covrec_91BE17FADC2CE6A1                                      
000149f8  __covrec_A5422C07757DE534                                      
00014a20  __covrec_F25CF64A0D786FAD                                      
00014a48  __covrec_D52BE09B3F1D0E98                                      
00014a70  __covrec_16C63B1658850B21                                      
00014a98  __covrec_9C947AA69AD7E9AA                                      
00014ac0  __covrec_BB6A325730C2D3A3                                      
00014ae8  __covrec_EE3D60871E19E466                                      
00014b10  __covrec_547AD5C87A6E6E24                                      
00014b38  __covrec_A9060A06C91751D4                                      
00014b60  __covrec_B6D339D17C55796A                                      
00014b88  __covrec_E0A31EFFAF4D49CE                                      
00014bb0  __covrec_59D9833588BD0250                                      
00014bd8  __covrec_B28312D4C996E364                                      
00014c00  __covrec_4BE5F7B4FA177DDC                                      
00014c28  __covrec_DB876D2CFCBE9D17                                      
00014c50  __covrec_80BEC89A48089893                                      
00014c78  __covrec_9E68BCC55001FBBA                                      
00014ca0  __covrec_F066E71140960A7A                                      
00014cc8  __covrec_53F7CEF1C78522B5                                      
00014cf0  __covrec_6645E26004FAF592                                      
00014d18  __covrec_CA9CE7C2E7CA293A                                      
00014d40  __covrec_7991082D2652D1E1                                      
00014d68  __covrec_181211B5F93D0AD3                                      
00014d90  __covrec_3BB61E93E5A13C2F                                      
00014db8  __covrec_2EE3920C4DD5ADB6                                      
00014de0  __covrec_23178DECE8CC2AB1                                      
00014e08  __covrec_968BF711C53DCBB1                                      
00014e30  __covrec_4A910AB47F987A1C                                      
00014e58  __covrec_1C4E558214A79D65                                      
00014e80  __covrec_AC12A735237D4FDA                                      
00014ea8  __covrec_92BD0218D0C57059                                      
00014ed0  __covrec_7AB5EC5CA304F34C                                      
00014ef8  __covrec_5E3E9E3883D3E0E0                                      
00014f20  __covrec_511CDEC80C8154B4                                      
00014f48  __covrec_9A9721AFABEF071A                                      
00014f70  __covrec_43B359A7773AC6EF                                      
00014f98  __covrec_78D0707EFB176809                                      
00014fc0  __covrec_4204A0C3106BE7E9                                      
00014fe8  __covrec_F8F59A5D281E154A                                      
00015010  __covrec_57B455205B710844                                      
00015038  __covrec_4FD2069A8AD8939                                       
00015060  __covrec_855510F4B48B33C0                                      
00015088  __covrec_791E0D39970C6A5B                                      
000150b0  __covrec_E0FDEC82B9C99CDC                                      
000150d8  __covrec_65C7E2ABC9CA6462                                      
00015100  __covrec_62A1C1279D1B74C0                                      
00015128  __covrec_57D8AFD33D621CB8                                      
00015150  __covrec_F89C26854B2D1763                                      
00015178  __covrec_D478B79B70618CA                                       
000151a0  __covrec_A20786540F3A4BB                                       
000151c8  __covrec_8D17B07E7B49790B                                      
000151f0  __covrec_C7BAB4AB86515CC1                                      
00015218  __covrec_F4F2B61C4D5F3D1B                                      
00015240  __covrec_1EB442BE3C5791BE                                      
00015268  __covrec_10744C07F8ABF898                                      
00015290  __covrec_9393A19D803D6CE6                                      
000152b8  __covrec_1C4941C0EE3F2117                                      
000152e0  __covrec_4CD4D0F4250CFD66                                      
00015308  __covrec_DEAF12801A9CA606                                      
00015330  __covrec_D4EAB0412B17FD4D                                      
00015358  __covrec_D2B8C126B3C196E6                                      
00015380  __covrec_830F01A5800B0926                                      
000153a8  __covrec_DAE0762D4F5A4DB9                                      
000153d0  __covrec_96AB09F734ACBF49                                      
000153f8  __covrec_5967EDE5D9075FFC                                      
00015420  __covrec_3DF2909068D8C0D3                                      
00015448  __covrec_B869EDB988C009F7                                      
00015470  __covrec_1B3CC2B68A699D40                                      
00015498  __covrec_3BAAA9F404D52369                                      
000154c0  __covrec_E55E2C217D46160C                                      
000154e8  __covrec_AFA8C746CB31D375                                      
00015510  __covrec_3143D4656068BE29                                      
00015538  __covrec_61ED56434EC677E7                                      
00015560  __covrec_8173293A6B2F7F0B                                      
00015588  __covrec_4CC29D7C021422ED                                      
000155b0  __covrec_1F617C3956463676                                      
000155d8  __covrec_C8FDDF9C0DF63162                                      
00015600  __covrec_B1192246B24D9BDF                                      
00015628  __covrec_E4BF0C13C7F6442                                       
00015650  __covrec_CAC271B48360283D                                      
00015678  __covrec_9AA786A0732AF5F2                                      
000156a0  __covrec_E73539908F5D39B4                                      
000156c8  __covrec_548B429BE36F5883                                      
000156f0  __covrec_DF3165A3EA9D64C6                                      
00015718  __covrec_60AB9A9A8DE3D9DA                                      
00015740  __covrec_94705A8B47CC3541                                      
00015768  __covrec_6F086113AA0BAB9D                                      
00015790  __covrec_84CA99D8A6B2C680                                      
000157b8  __covrec_F997C76990247678                                      
000157e0  __covrec_C8CCF188B36F8DA8                                      
00015808  __covrec_62E503D0127960FE                                      
00015830  __covrec_DC21113B831CCAF7                                      
00015858  __covrec_98C3296CFB84FD3B                                      
00015880  __covrec_CFA66EEEFF8D943E                                      
000158a8  __covrec_EAD5AD4978976A51                                      
000158d0  __covrec_BD114F17117531E                                       
000158f8  __covrec_75B09D190C5E20A4                                      
00015920  __covrec_DC391CE5546088EE                                      
00015948  __covrec_2B580D04D376961D                                      
00015970  __covrec_B42404F0AE348533                                      
00015998  __covrec_8B5B1011C3852C64                                      
000159c0  __covrec_CBE83007F7010C96                                      
000159e8  __covrec_2365053FAC035AAB                                      
00015a10  __covrec_AD361A23EE0AD252                                      
00015a38  __covrec_278E5536214B5313                                      
00015a60  __covrec_DA84E43E59E2D225                                      
00015a88  __covrec_C730E74F29A64089                                      
00015ab0  __covrec_AF47DD1EFBEC3E2D                                      
00015ad8  __covrec_170AF5AE926DC51D                                      
00015b00  __covrec_B65424DF5CB39F9C                                      
00015b28  __covrec_62099483D98BBDE1                                      
00015b50  __covrec_6F569142378D8935                                      
00015b78  __covrec_1F880AE1EE4A787B                                      
00015ba0  __covrec_8048B7E90F069F19                                      
00015bc8  __covrec_21054578FFC9EE27                                      
00015bf0  __covrec_9C0D8759D4DEDC3                                       
00015c18  __covrec_FEFBFAD1C55D9F34                                      
00015c40  __covrec_71D8157156648E29                                      
00015c68  __covrec_AA43E89C3FDE05DE                                      
00015c90  __covrec_2DD07D8034961E79                                      
00015cb8  __covrec_98B98281EDEF7B92                                      
00015ce0  __covrec_8AA51AA9FB9B0746                                      
00015d08  __covrec_3624FCB5E1851D8F                                      
00015d30  __covrec_84B11F4F886E306C                                      
00015d58  __covrec_E799FA8FDABFED90                                      
00015d80  __covrec_3BEB865A84EE4F05                                      
00015da8  __covrec_C67BB74823A39EF4                                      
00015dd0  __covrec_CB7239B079C9BB00                                      
00015df8  __covrec_86EE060828C313A6                                      
00015e20  __covrec_ED59F6F7EF5DA16E                                      
00015e48  __covrec_6BC2C905E8BBAD28                                      
00015e70  __covrec_B14562B39500E1C6                                      
00015e98  __covrec_CD1FEC807124C5DC                                      
00015ec0  __covrec_FFBF9291393D90B9                                      
00015ee8  __covrec_E36730D09DD7936C                                      
00015f10  __covrec_733A437F11944203                                      
00015f38  __covrec_7E4CFA2060B17E34                                      
00015f60  __covrec_EA32AA8651965B03                                      
00015f88  __covrec_94AAA8B74E2E3AC9                                      
00015fb0  __covrec_5AE2528E47AEA764                                      
00015fd8  __covrec_2230C0D69946CC4B                                      
00016000  __covrec_95CD4FFFC8C09349                                      
00016028  __covrec_DEDB504927DC0B78                                      
00016050  __covrec_F171DFDF9FFAFC4B                                      
00016078  __covrec_888167F87ACFFA2B                                      
000160a0  __covrec_D5A5470482AB7B73                                      
000160c8  __covrec_9DDB1351B2231DC                                       
000160f0  __covrec_DB4960CB4A009A12                                      
00016118  __covrec_A4D9FBEA2F760A03                                      
00016140  __covrec_EA4ACE560588DA1A                                      
00016168  __covrec_75CA07728912D96A                                      
00016190  __covrec_92E4DDA47787D579                                      
000161b8  __covrec_CEC06DF4A0AA4647                                      
000161e0  __covrec_4A4DAD0D533B758A                                      
00016208  __covrec_E599D0A2FDFDE14F                                      
00016230  __covrec_39129B01B9A7DAA2                                      
00016258  __covrec_FF7FD13D9E3F904D                                      
00016280  __covrec_26529B915D49F234                                      
000162a8  __covrec_7D81F406BC820BA8                                      
000162d0  __covrec_559A57DB4020EB3D                                      
000162f8  __covrec_4CC22FA285A3B27E                                      
00016320  __covrec_1D88601D63A10063                                      
00016348  __covrec_755300A2FFF99107                                      
00016370  __covrec_563F2827D38D4A3                                       
00016398  __covrec_B415DA85A71442F4                                      
000163c0  __covrec_EAE2A943087D753C                                      
000163e8  __covrec_D982FC0AAED0521E                                      
00016410  __covrec_333219435B338A0A                                      
00016438  __covrec_E46163911BAB573B                                      
00016460  __covrec_4A83718366F87D3F                                      
00016488  __covrec_66BD8C4AAA7C7281                                      
000164b0  __covrec_2D99EAE3F36ECC9A                                      
000164d8  __covrec_1CA340B22F2CC9E                                       
00016500  __covrec_3D83026D43BB5C2A                                      
00016528  __covrec_55F75F55410D098E                                      
00016550  __covrec_E7C7C4EC6B0E7E9C                                      
00016578  __covrec_D93D29EDC0F27E11                                      
000165a0  __covrec_635165F9A6D83D42                                      
000165c8  __covrec_D06B5EA8595E0C3B                                      
000165f0  __covrec_8300018ED0D8F21                                       
00016618  __covrec_FA532534B8E49667                                      
00016640  __covrec_CB8CEB3266C95AA2                                      
00016668  __covrec_C6FF240EF0EF616E                                      
00016690  __covrec_11BA6DE59B28BFCD                                      
000166b8  __covrec_334F5D5867034CE9                                      
000166e0  __covrec_FC011BFBB3580070                                      
00016708  __covrec_4BBC638157F6FE4D                                      
00016730  __covrec_CA8D327D5FE663E5                                      
00016758  __covrec_C32394CEBC8F298D                                      
00016780  __covrec_4A0296565E27DC08                                      
000167a8  __covrec_8C86CA64ED75E0FE                                      
000167d0  __covrec_D3A0FA8D29D3B261                                      
000167f8  __covrec_16B91197C1897CD6                                      
00016820  __covrec_BCF4DEC7AAF51141                                      
00016848  __covrec_DDFE80346DDAE364                                      
00016870  __covrec_8295F0DF17E4CE0F                                      
00016898  __covrec_B4A4EEDCA1B54D92                                      
000168c0  __covrec_74D1B0C700A0A7C0                                      
000168e8  __covrec_D2AD16B54854FD69                                      
00016910  __covrec_A120D45210F64316                                      
00016938  __covrec_7D69EFF2AD60D20F                                      
00016960  __covrec_854AE0C856152B7B                                      
00016988  __covrec_FFF4B8069E156362                                      
000169b0  __covrec_F9C1242D2B0E88F1                                      
000169d8  __covrec_76423D926B492CE3                                      
00016a00  __covrec_FCBEAB076ED5E696                                      
00016a28  __covrec_436E83FED9764DF1                                      
00016a50  __covrec_9875C4C2C4AE4EDE                                      
00016a78  __covrec_B7F121F8D067DE5B                                      
00016aa0  __covrec_86A31914229863AB                                      
00016ac8  __covrec_B1CA3060691257DC                                      
00016af0  __covrec_605A53631F7F7CEF                                      
00016b18  __covrec_B9A4000223009040                                      
00016b40  __covrec_1C0E07A24114AAF5                                      
00016b68  __covrec_E00B16F169645B17                                      
00016b90  __covrec_DEDCA7BC725056E7                                      
00016bb8  __covrec_AD15C1A6B9093E86                                      
00016be0  __covrec_A4C3EB81AE8933F1                                      
00016c08  __covrec_A07AE0EEF1A25D9C                                      
00016c30  __covrec_453B1EF2D2069B0B                                      
00016c58  __covrec_1B2BF684DC595A2B                                      
00016c80  __covrec_39AB08BEEFE8AB41                                      
00016ca8  __covrec_D7D1CEAC00208BB7                                      
00016cd0  __covrec_38C288C17890C16                                       
00016cf8  __covrec_9907BADB2895D69F                                      
00016d20  __covrec_16D2DA11BA350680                                      
00016d48  __covrec_1AAC40224504CAFA                                      
00016d70  __covrec_DBA898CC3AAAC47A                                      
00016d98  __covrec_B827FF49ECB9ACAB                                      
00016dc0  __covrec_93DEF36EBC4241DA                                      
00016de8  __covrec_66AD4B6B94BA581C                                      
00016e10  __covrec_2117D91B52020C7D                                      
00016e38  __covrec_487BEB2173D76C8B                                      
00016e60  __covrec_80963880AAF3E7F7                                      
00016e88  __covrec_6DABDDDB4C170311                                      
00016eb0  __covrec_379FC816CF911EDF                                      
00016ed8  __covrec_C4A06F1976A8BA6C                                      
00016f00  __covrec_355E0E9C4B90DCB7                                      
00016f28  __covrec_E69EFB0C4CE4EAFA                                      
00016f50  __covrec_7AE45E996D9746BD                                      
00016f78  __covrec_D70A022AB596B45A                                      
00016fa0  __covrec_FAF9DCB299F46E05                                      
00016fc8  __covrec_3BDF3964B04EF6B6                                      
00016ff0  __covrec_F1F94900F96751E4                                      
00017018  __covrec_305C29A9F7E3A640                                      
00017040  __covrec_145D172321BB2EAB                                      
00017068  __covrec_F15342EC295C4195                                      
00017090  __covrec_4DB052C8E0A4F33F                                      
000170b8  __covrec_8653C82738280B4D                                      
000170e0  __covrec_A568E4EF6C684DF7                                      
00017108  __covrec_FFDC4185CB0E6A5                                       
00017130  __covrec_A21601EDA80377EF                                      
00017158  __covrec_3863A532990D1FA2                                      
00017180  __covrec_AAF0E71559A9DB14                                      
000171a8  __covrec_EAFCEE9E0E0851A2                                      
000171d0  __covrec_B3784EACADBAE4C4                                      
000171f8  __covrec_8E1127F4FEB2801                                       
00017220  __covrec_170E2828DD417338                                      
00017248  __covrec_6DA6D5EA550B590E                                      
00017270  __covrec_BEC83D1E4E3BCCB7                                      
00017298  __covrec_2E25D93557C548ED                                      
000172c0  __covrec_E1DFEC5D496887                                        
000172e8  __covrec_DF0A7D180413449C                                      
00017310  __covrec_5BE9D68C55A9A1C3                                      
00017338  __covrec_7C1DB501B4559706                                      
00017360  __covrec_3E1F2634A5604155                                      
00017388  __covrec_671C2F2E71C2862A                                      
000173b0  __covrec_2A5D87E20D2B353C                                      
000173d8  __covrec_F14DF3E88694EB98                                      
00017400  __covrec_D146138B6B5808FD                                      
00017428  __covrec_4ADF2954DCACD2FE                                      
00017450  __covrec_CA98D2E764262CFA                                      
00017478  __covrec_C8C414422B19443C                                      
000174a0  __covrec_2D86B24AF6D1A540                                      
000174c8  __covrec_309238D191EA6CE9                                      
000174f0  __covrec_267D27CF810BD59C                                      
00017518  __covrec_2F1B991B5F313888                                      
00017540  __covrec_7A62F246430B8BA6                                      
00017568  __covrec_37E4F11BB631BEC7                                      
00017590  __covrec_441504675CABAFFD                                      
000175b8  __covrec_2F035CEFDF1062C1                                      
000175e0  __covrec_BAEEFF68D8681573                                      
00017608  __covrec_DCF4D42138FE57E5                                      
00017630  __covrec_D8246573F149E3C9                                      
00017658  __covrec_5865DD4AF4854E44                                      
00017680  __covrec_1D0492DEF478C1EF                                      
000176a8  __covrec_8FA2AB8D12473AEC                                      
000176d0  __covrec_D982EE0B3EA97BB5                                      
000176f8  __covrec_F2E112670F26F589                                      
00017720  __covrec_54F25D26B9599689                                      
00017748  __covrec_D50DFBBA4D6B38E2                                      
00017770  __covrec_DD12E3826143D106                                      
00017798  __covrec_E7210D4ED94CB1BC                                      
000177c0  __covrec_35C36C33649D0868                                      
000177e8  __covrec_8A272A984A0DDA3A                                      
00017810  __covrec_788DF734B05BEA61                                      
00017838  __covrec_13113FF595265FC8                                      
00017860  __covrec_427A08F62FE94068                                      
00017888  __covrec_B1C58D429151BFF9                                      
000178b0  __covrec_BD2C0EC2D1A3A54B                                      
000178d8  __covrec_A0A9F31784F78947                                      
00017900  __covrec_EE646ABD48F324B1                                      
00017928  __covrec_DF115B317F5C430                                       
00017950  __covrec_A67345E281C30C3B                                      
00017978  __covrec_66835ED7F01DF5B3                                      
000179a0  __covrec_AB21B21BEAED7DC                                       
000179c8  __covrec_154BFDCE12F02A35                                      
000179f0  __covrec_5E69795670429A01                                      
00017a18  __covrec_B9220FE1584769C0                                      
00017a40  __covrec_62421E4FC47D2457                                      
00017a68  __covrec_61A3F6A2C9CB25B9                                      
00017a90  __covrec_F44105A9DB29ADA8                                      
00017ab8  __covrec_2E97BABEA71D0B7B                                      
00017ae0  __covrec_63B4867F401D171                                       
00017b08  __covrec_9D1D521A3EAECBD9                                      
00017b30  __covrec_DD1E62EB7E85E4C9                                      
00017b58  __covrec_1D979241DB420643                                      
00017b80  __covrec_2F636E402DD62E96                                      
00017ba8  __covrec_7325B63CAE439ACE                                      
00017bd0  __covrec_4E8F37E20C7FDE90                                      
00017bf8  __covrec_6948117F7934DE3E                                      
00017c20  __covrec_F8DAF622177DDF09                                      
00017c48  __covrec_D9616245EF11A58D                                      
00017c70  __covrec_41DF74A62B4BF521                                      
00017c98  __covrec_EE67EA54C0D1336B                                      
00017cc0  __covrec_832335FE96674384                                      
00017ce8  __covrec_A95D526D8CBD870C                                      
00017d10  __covrec_C41E4E65D1A905B6                                      
00017d38  __covrec_442728EE52BD7727                                      
00017d60  __covrec_9CEF540007AA01F4                                      
00017d88  __covrec_F7736ABD36D8BBB4                                      
00017db0  __covrec_B41B699FDC71FB50                                      
00017dd8  __covrec_D0B2A5F9CAC16FAF                                      
00017e00  __covrec_F00DCE3359CDC797                                      
00017e28  __covrec_570B71B48DC89350                                      
00017e50  __covrec_C8DCFCBEAA5BD6B1                                      
00017e78  __covrec_4FA6F2483B63ECB6                                      
00017ea0  __covrec_8152689314B0A3D4                                      
00017ec8  __covrec_BC29C634089DFA43                                      
00017ef0  __covrec_B2E23574C9985080                                      
00017f18  __covrec_6D004CE42EF25966                                      
00017f40  __covrec_649123C397D2FE54                                      
00017f68  __covrec_4237689B18B0FD4E                                      
00017f90  __covrec_6E511565C0E0A19A                                      
00017fb8  __covrec_BBBE285C6C9571D4                                      
00017fe0  __covrec_D79A443C489849F6                                      
00018008  __covrec_C6D4A98261E05131                                      
00018030  __covrec_A0187D32C5721B9                                       
00018058  __covrec_EAE2D8E1C2A7AA9F                                      
00018080  __covrec_7D67AC603694ECA4                                      
000180a8  __covrec_58C05D80C9E64839                                      
000180d0  __covrec_BE9784C693462D0B                                      
000180f8  __covrec_D7F673B4AE2A2EA6                                      
00018120  __covrec_5BCC34657E2C0F5E                                      
00018148  __covrec_C2BDC035DFE271D7                                      
00018170  __covrec_27D2AD01E17EABDD                                      
00018198  __covrec_523F4CFA1065390F                                      
000181c0  __covrec_E7759AD25DADDF74                                      
000181e8  __covrec_2F1D6E7B96801956                                      
00018210  __covrec_DB509B663C50FCE1                                      
00018238  __covrec_71CA6EDD2D771C26                                      
00018260  __covrec_6AD426A02034C89F                                      
00018288  __covrec_BD118EE916DF631                                       
000182b0  __covrec_A7895DD68BBE9AE3                                      
000182d8  __covrec_AE42D8757901725A                                      
00018300  __covrec_D56220AED8A68AA7                                      
00018328  __covrec_DE4D368759EBD538                                      
00018350  __covrec_386982C615C69001                                      
00018378  __covrec_5C43AF31B22507E4                                      
000183a0  __covrec_D4B6EA881BC12157                                      
000183c8  __covrec_A9436DE8AE0FFCAF                                      
000183f0  __covrec_1386E69C7CDBD2E6                                      
00018418  __covrec_DAB0F1E4E4626DE7                                      
00018440  __covrec_BC9AD4E83CBC76C1                                      
00018468  __covrec_DEFF42FDFD7D9E87                                      
00018490  __covrec_6AEB43312356A163                                      
000184b8  __covrec_CF85BDF8DB35D707                                      
000184e0  __covrec_12C47AE2DA065B0F                                      
00018508  __covrec_DCF02DD5E24A8FFD                                      
00018530  __covrec_6C5807CDB7FABC9                                       
00018558  __covrec_C79B0A7C0C5EE8E6                                      
00018580  __covrec_4D3D958FAE8BFF55                                      
000185a8  __covrec_C5127E00E8D758A9                                      
000185d0  __covrec_9B78ADDBCDA9AFD                                       
000185f8  __covrec_754BF394103DA9B7                                      
00018620  __covrec_CC70E0F5C270EA9B                                      
00018648  __covrec_67EB78E9E215E24                                       
00018670  __covrec_3D11646E7B9E44CF                                      
00018698  __covrec_66F93101A1979A14                                      
000186c0  __covrec_3B8918FB37FDC82                                       
000186e8  __covrec_F06260284DBD02F                                       
00018710  __covrec_CCB6CF18D1F9216E                                      
00018738  __covrec_F3DEE83188FE9450                                      
00018760  __covrec_A42D28F0702551B0                                      
00018788  __covrec_2057A945F1B9B615                                      
000187b0  __covrec_8FF4C2911372692D                                      
000187d8  __covrec_DF592D6B2943D071                                      
00018800  __covrec_BCCCA3ABEFAE22F9                                      
00018828  __covrec_B39A3F3FAFAD415F                                      
00018850  __covrec_639E4391945DB050                                      
00018878  __covrec_545EA52392831E1E                                      
000188a0  __covrec_63E872B86E74949D                                      
000188c8  __covrec_4B5356B43CFDFB69                                      
000188f0  __covrec_628D0E885DB641AB                                      
00018918  __covrec_2F328F639F15B69C                                      
00018940  __covrec_D82FDAB4C34C5ABF                                      
00018968  __covrec_634C776871E37BDB                                      
00018990  __covrec_248F59F6D6A669EF                                      
000189b8  __covrec_8A58AEE03F607402                                      
000189e0  __covrec_7EAD03CF60329357                                      
00018a08  __covrec_314FD1A4E91E91D2                                      
00018a30  __covrec_827E0C7F0CBF25DA                                      
00018a58  __covrec_2AD2F3818974D495                                      
00018a80  __covrec_600DB93694AF16AE                                      
00018aa8  __covrec_B6A0871C1945FFFA                                      
00018ad0  __covrec_2E034B95217B4B85                                      
00018af8  __covrec_9058FE35C8B8C1B5                                      
00018b20  __covrec_8AE157B479B66F5D                                      
00018b48  __covrec_74B299629E722513                                      
00018b70  __covrec_C24177BC26BFE7AE                                      
00018b98  __covrec_CBEE1D12D902354C                                      
00018bc0  __covrec_D2B149CAFD234F76                                      
00018be8  __covrec_7C7528DD92F49704                                      
00018c10  __covrec_123EF6C215982B55                                      
00018c38  __covrec_A3D40676E408B075                                      
00018c60  __covrec_70348B1638ED513                                       
00018c88  __covrec_1DCA7E16D4A718CD                                      
00018cb0  __covrec_56F45E2B58F15DDD                                      
00018cd8  __covrec_1A38C341544C3879                                      
00018d00  __covrec_3B8731875368BCE4                                      
00018d28  __covrec_4557934FB240974A                                      
00018d50  __covrec_1B097628E00A8229                                      
00018d78  __covrec_13E79675FAD100E3                                      
00018da0  __covrec_63F47CBDBA8706D4                                      
00018dc8  __covrec_7F7D43C843110954                                      
00018df0  __covrec_DDF3C7ABCF52DF40                                      
00018e18  __covrec_10D498CB12E6DD3                                       
00018e40  __covrec_46882B7FF483412B                                      
00018e68  __covrec_D824C551C080ED45                                      
00018e90  __covrec_91B3C243A8EABB95                                      
00018eb8  __covrec_B9201EE3FA6C6707                                      
00018ee0  __covrec_728F5CA9E15290C7                                      
00018f08  __covrec_D19210AC555390BA                                      
00018f30  __covrec_4918AECB6A3E84BF                                      
00018f58  __covrec_AD45D5ED0392D06A                                      
00018f80  __covrec_1CE909354FF8939F                                      
00018fa8  __covrec_9E46B3DFC2D081B0                                      
00018fd0  __covrec_2F68E8EA79A83B80                                      
00018ff8  __covrec_3C1546EF38FFC38F                                      
00019020  __covrec_B1ABB647E4A826B5                                      
00019048  __covrec_9168BB0C5C35681C                                      
00019070  __covrec_2C7F66C574C54575                                      
00019098  __covrec_B8C1025FC7A8E42C                                      
000190c0  __covrec_EF35E953655323CB                                      
000190e8  __covrec_BE53DB66BE512BB2                                      
00019110  __covrec_602D8E751BE48839                                      
00019138  __covrec_AA9DC69FBE90EA4B                                      
00019160  __covrec_E7E9EDF12A75F5D4                                      
00019188  __covrec_782F9C97EE527F96                                      
000191b0  __covrec_2173C5F70763121C                                      
000191d8  __covrec_C71CF606D560D574                                      
00019200  __covrec_2C57BDB4B33A4495                                      
00019228  __covrec_A3E70E3E2DE5F78B                                      
00019250  __covrec_9B520560E2FA555B                                      
00019278  __covrec_D3552E4CB195D48F                                      
000192a0  __covrec_67B729F7EBBB3464                                      
000192c8  __covrec_9FCD216E8F0E5032                                      
000192f0  __covrec_7428E7273B05E99                                       
00019318  __covrec_CC7126193A00429                                       
00019340  __covrec_D01CCD00E065AA9E                                      
00019368  __covrec_6D1AA1BCB672C544                                      
00019390  __covrec_5D7600A7B9C73A2F                                      
000193b8  __covrec_7AE53C30D68284AD                                      
000193e0  __covrec_F44BCDE80540ACE                                       
00019408  __covrec_1D0E723C2EF029EE                                      
00019430  __covrec_72A4B1321DC422DC                                      
00019458  __covrec_A129510E27040001                                      
00019480  __covrec_E877FC675AB8A419                                      
000194a8  __covrec_F9CEF8B54F659592                                      
000194d0  __covrec_5E5F9A5D729D9506                                      
000194f8  __covrec_4B1D456400D151BE                                      
00019520  __covrec_3AFFC5D64463C47D                                      
00019548  __covrec_1B5721F4AEFA561F                                      
00019570  __covrec_46AFA5A2881ACFE8                                      
00019598  __covrec_1212C889B8DE0D1D                                      
000195c0  __covrec_C1A8499103BBBA7B                                      
000195e8  __covrec_C6FBAFF5D84ED8B8                                      
00019610  __covrec_BCA8A707069F2B7D                                      
00019638  __covrec_3ED0E8CC56BD9E1B                                      
00019660  __covrec_4730B24ED3DDAD82                                      
00019688  __covrec_7B81BFEE7C3DB0BF                                      
000196b0  __covrec_284C1F580747E073                                      
000196d8  __covrec_9F7C91ACFE60445C                                      
00019700  __covrec_C1988D22F622B9A6                                      
00019728  __covrec_D768A311FFDF56EE                                      
00019750  __covrec_6881E0F990B73481                                      
00019778  __covrec_2CCBD69A33B1A43F                                      
000197a0  __covrec_E4FBA9140A482B55                                      
000197c8  __covrec_70FD361BF64A609F                                      
000197f0  __covrec_59262AB6070DDF6E                                      
00019818  __covrec_4B2FF9C240CE6532                                      
00019840  __covrec_90156D73DFE83232                                      
00019868  __covrec_FE8C97AFE4526003                                      
00019890  __covrec_AAC3A9F90A1BC0A7                                      
000198b8  __covrec_C03DA988AE1DD5BD                                      
000198e0  __covrec_33F05AAA91D32438                                      
00019908  __covrec_3EB230B622DBB3E2                                      
00019930  __covrec_CE61DF8D70603D05                                      
00019958  __covrec_9C62E95910F41F53                                      
00019980  __covrec_204FD3E6CA87108D                                      
000199a8  __covrec_1681E425BE764A97                                      
000199d0  __covrec_1F96F46632038270                                      
000199f8  __covrec_3E111F87D4DADCD5                                      
00019a20  __covrec_3B2046A964EE4165                                      
00019a48  __covrec_5D7FED37FADFFD2                                       
00019a70  __covrec_2568050D401E8E68                                      
00019a98  __covrec_EA76B305533F5C33                                      
00019ac0  __covrec_BBA5D966D9DB8D7F                                      
00019ae8  __covrec_7F98D48783437BBA                                      
00019b10  __covrec_DDC2F5C5F05B8E9F                                      
00019b38  __covrec_2F00C1B0AC430237                                      
00019b60  __covrec_D3BF87CF440FE35A                                      
00019b88  __covrec_4E474CFEEB4D9132                                      
00019bb0  __covrec_8896EB92673653A                                       
00019bd8  __covrec_F5A085EC34DA3294                                      
00019c00  __covrec_EA0889CE86745BEB                                      
00019c28  __covrec_2F2A8CB5EDF83A98                                      
00019c50  __covrec_978E23EC5C1BBCEE                                      
00019c78  __covrec_ACD799F18E94DA52                                      
00019ca0  __covrec_B59DCA70DEB23292                                      
00019cc8  __covrec_D66C7794AB990900                                      
00019cf0  __covrec_9D0B85D63B1B98F2                                      
00019d18  __covrec_43EEEB8DE0F09FF8                                      
00019d40  __covrec_C34A9670BC0DD6D                                       
00019d68  __covrec_69E15E15F0254C8E                                      
00019d90  __covrec_7B9F36D0482CEDAA                                      
00019db8  __covrec_103AAAE744EDC923                                      
00019de0  __covrec_627A34FFDFDA3AC5                                      
00019e08  __covrec_609153DD85DF82CA                                      
00019e30  __covrec_9C28C0200233DDB6                                      
00019e58  __covrec_DE76924EB4F2FCD1                                      
00019e80  __covrec_A69C92B43F1E3766                                      
00019ea8  __covrec_90A4251D3621B51F                                      
00019ed0  __covrec_FFD9A2C13A4608C                                       
00019ef8  __covrec_91779EF8E422B94D                                      
00019f20  __covrec_9FE8CF481895121F                                      
00019f48  __covrec_61E4BE2A9A45052D                                      
00019f70  __covrec_D35EF8425F780E1D                                      
00019f98  __covrec_F6DACE3A02BB195F                                      
00019fc0  __covrec_50C109FBE08F81F3                                      
00019fe8  __covrec_EE07273CD7BA7999                                      
0001a010  __covrec_99CE82E85CDE569B                                      
0001a038  __covrec_DF8F47C6221DF313                                      
0001a060  __covrec_A9F0F41F5127CEB                                       
0001a088  __covrec_EABF2010EE5DD0DF                                      
0001a0b0  __covrec_BF82A4EA5FD7B87F                                      
0001a0d8  __covrec_72DB766D6F85D281                                      
0001a100  __covrec_980B5B6F16545696                                      
0001a128  __covrec_19D44E97A775C3E5                                      
0001a150  __covrec_EE36074BFF983BA8                                      
0001a178  __covrec_27F4CE623A8B5B33                                      
0001a1a0  __covrec_7376AD89065DCDFC                                      
0001a1c8  __covrec_F8C67827E38A707E                                      
0001a1f0  __covrec_643C2D57D112712B                                      
0001a218  __covrec_BBAA8A5E3C1084E1                                      
0001a240  __covrec_7AEC8451FEC3E6FC                                      
0001a268  __covrec_FCB5F83EF13F479E                                      
0001a290  __covrec_306DA74131990C62                                      
0001a2b8  __covrec_BCDD8200269364F5                                      
0001a2e0  __covrec_439C95238ACC5408                                      
0001a308  __covrec_7341B346569B34F                                       
0001a330  __covrec_CC4223F50ECD00CE                                      
0001a358  __covrec_FEC825881F5DF330                                      
0001a380  __covrec_333C0E753845BE1A                                      
0001a3a8  __covrec_9C009BC7D5FF752B                                      
0001a3d0  __covrec_575AB136624CDC4D                                      
0001a3f8  __covrec_A06DF5B0D3D4AB1A                                      
0001a420  __covrec_3F3683B7DE6EB0B4                                      
0001a448  __covrec_97D162466D9B3161                                      
0001a470  __covrec_6495CF8F089C515D                                      
0001a498  __covrec_36EB5799A3CC0222                                      
0001a4c0  __covrec_9406CD59AF2AADBA                                      
0001a4e8  __covrec_EA46A2CFBD4A8015                                      
0001a510  __covrec_9717C6EA5E03ED15                                      
0001a538  __covrec_312B83EDF5CBDD80                                      
0001a560  __covrec_E5BAA4C6824D8BD                                       
0001a588  __covrec_13BF532A32449873                                      
0001a5b0  __covrec_42225F70917E3D2                                       
0001a5d8  __covrec_D560D1BDEEA85D1E                                      
0001a600  __covrec_388E26BEF997C426                                      
0001a628  __covrec_D4E8DCA12E13317D                                      
0001a650  __covrec_2554E06C7C104836                                      
0001a678  __covrec_8E3EC7A70BC5778F                                      
0001a6a0  __covrec_7A5524D5B2A1507                                       
0001a6c8  __covrec_9F892DF363F3043B                                      
0001a6f0  __covrec_2DDCD5E0D9C5CB47                                      
0001a718  __covrec_F54F96C40C150854                                      
0001a740  __covrec_F30D5A9CEDC5B010                                      
0001a768  __covrec_7D21AE2875C7107D                                      
0001a790  __covrec_441654212D820C4A                                      
0001a7b8  __covrec_9B574839ABB5D29D                                      
0001a7e0  __covrec_E346B52F05A65467                                      
0001a808  __covrec_133C2C8A27891CB7                                      
0001a830  __covrec_18CBC653C2C5DFB9                                      
0001a858  __covrec_BB8A46B5E1FD426E                                      
0001a880  __covrec_323CC8F78CE9C2E3                                      
0001a8a8  __covrec_A56A0099BD6A6484                                      
0001a8d0  __covrec_1082BCABC061123E                                      
0001a8f8  __covrec_AE5F2F1232F3B5CF                                      
0001a920  __covrec_E7F89125FADB2EB1                                      
0001a948  __covrec_EFAAB8BCD7041367                                      
0001a970  __covrec_9DB4134AA83064E2                                      
0001a998  __covrec_73CD01D41870CAD8                                      
0001a9c0  __covrec_1734553C1B2E7D1E                                      
0001a9e8  __covrec_20739469A83737C8                                      
0001aa10  __covrec_ABE46DCBAA27BC82                                      
0001aa38  __covrec_70EB0CBCF8E7BCDF                                      
0001aa60  __covrec_D75DBA36EEF3F958                                      
0001aa88  __covrec_D527D3D062AE3EE7                                      
0001aab0  __covrec_8EA27A01C2F21F20                                      
0001aad8  __covrec_E99ED403F1447F35                                      
0001ab00  __covrec_6BC8FFD59C591D3F                                      
0001ab28  __covrec_4A8BE443999B55EA                                      
0001ab50  __covrec_8F974480A740784C                                      
0001ab78  __covrec_E7EFB131A1925BF6                                      
0001aba0  __covrec_EBB3A01EC02207ED                                      
0001abc8  __covrec_5354ACBC37A90665                                      
0001abf0  __covrec_87C7BEA2BB1A399                                       
0001ac18  __covrec_B047796EE74EE7FF                                      
0001ac40  __covrec_F7F06F29CD5645B2                                      
0001ac68  __covrec_76FC9DC6CB6982D7                                      
0001ac90  __covrec_B6CCE378ECEB795D                                      
0001acb8  __covrec_BF00B9D62A40E8                                        
0001ace0  __covrec_59797CF72339C6A2                                      
0001ad08  __covrec_6944888D8239073E                                      
0001ad30  __covrec_F0A66ADF393ADCF                                       
0001ad58  __covrec_12137AB927F27536                                      
0001ad80  __covrec_76BFC2F890E06982                                      
0001ada8  __covrec_3228C4E59E0DDE0E                                      
0001add0  __covrec_8F778F5EA723F79E                                      
0001adf8  __covrec_A9DE4654D28EB24E                                      
0001ae20  __covrec_418220E48D89CB02                                      
0001ae48  __covrec_581ED7AC05A91E21                                      
0001ae70  __covrec_4890FCF2334E183E                                      
0001ae98  __covrec_9691942A2BEFE973                                      
0001aec0  __covrec_DC014427C2170B59                                      
0001aee8  __covrec_81941B8C1674FACE                                      
0001af10  __covrec_1A40EC858E5F0CD6                                      
0001af38  __covrec_3F43FBC60717EB18                                      
0001af60  __covrec_3629F7AE5E3EEF2C                                      
0001af88  __covrec_542A27206C5934C0                                      
0001afb0  __covrec_6DF9E6F550390F51                                      
0001afd8  __covrec_C2080631681CD102                                      
0001b000  __covrec_6DC4EA606C4C268E                                      
0001b028  __covrec_FCE97030B320F56B                                      
0001b050  __covrec_9CF1F58CBE286653                                      
0001b078  __covrec_4D9DAFDA9A900C69                                      
0001b0a0  __covrec_6B06D24F20F26A0E                                      
0001b0c8  __covrec_73289B42D6D6636A                                      
0001b0f0  __covrec_D577D8ACA65C6EBC                                      
0001b118  __covrec_EA6DEE83B70CE45D                                      
0001b140  __covrec_CA07525C9FFD8422                                      
0001b168  __covrec_93281C0AD5F1794E                                      
0001b190  __covrec_5973C84EE4E8DC8B                                      
0001b1b8  __covrec_5209F5886F1C090A                                      
0001b1e0  __covrec_36A5D6334697A3F4                                      
0001b208  __covrec_9F6DDA3BB7B0062E                                      
0001b230  __covrec_23739CFE0671763C                                      
0001b258  __covrec_37C2E4BAE1D52499                                      
0001b280  __covrec_2F34E27E04F56700                                      
0001b2a8  __covrec_2FEA4AF6BBB024E                                       
0001b2d0  __covrec_3A49D5B61BE6BC2B                                      
0001b2f8  __covrec_DCB8EBA6C5901A62                                      
0001b320  __covrec_632F71688A908DEA                                      
0001b348  __covrec_EF2E35E91DA3E7E1                                      
0001b370  __covrec_4B5D75857CB157A3                                      
0001b398  __covrec_517D4EEC31B5A4F8                                      
0001b3c0  __covrec_9E482121AF2457EF                                      
0001b3e8  __covrec_A089426F4BA2A15E                                      
0001b410  __covrec_5A36AAA5E429F1F8                                      
0001b438  __covrec_68989C42203D013F                                      
0001b460  __covrec_D3158B1D6DDFF659                                      
0001b488  __covrec_85B3FC139DDEAB6F                                      
0001b4b0  __covrec_15D44A2E1BA6AEF6                                      
0001b4d8  __covrec_6472F7042D344975                                      
0001b500  __covrec_4C3F1868952C5417                                      
0001b528  __covrec_105FA22A5C54F824                                      
0001b550  __covrec_59E4FDC2A3817350                                      
0001b578  __covrec_D351FD64F4FBBB4E                                      
0001b5a0  __covrec_A1EB8C8A767B83C4                                      
0001b5c8  __covrec_6BF137747F29C87C                                      
0001b5f0  __covrec_34E3BEAD21EE6C05                                      
0001b618  __covrec_7089BDBF54B5472F                                      
0001b640  __covrec_1F81F28CFCF7230C                                      
0001b668  __covrec_7571C99B21A16999                                      
0001b690  __covrec_EC531612C0772DFD                                      
0001b6b8  __covrec_48EAAEDAF94F1133                                      
0001b6e0  __covrec_9535FE2DE4142575                                      
0001b708  __covrec_55CCC057DCBF6F0C                                      
0001b730  __covrec_3714A891E6665B49                                      
0001b758  __covrec_AE3F01690B7F681D                                      
0001b780  __covrec_6B884CFA12FA4D98                                      
0001b7a8  __covrec_8F54CD72C77EE516                                      
0001b7d0  __covrec_69D79B8F17236D0                                       
0001b7f8  __covrec_F6CB0FB76DB7C061                                      
0001b820  __covrec_7976D165A8E3CC71                                      
0001b848  __covrec_45BA0D23CEB75BC7                                      
0001b870  __covrec_3A04AB2A32EDA484                                      
0001b898  __covrec_20A2341177F2D26E                                      
0001b8c0  __covrec_A5167DC0E29E6FA1                                      
0001b8e8  __covrec_67AEA11C898F4735                                      
0001b910  __covrec_6F6C76F514C1FAF                                       
0001b938  __covrec_9F1DE8BE59098924                                      
0001b960  __covrec_52F9D4A755B86E01                                      
0001b988  __covrec_8BE6CDBFAA4E26ED                                      
0001b9b0  __covrec_D4E68445A3100191                                      
0001b9d8  __covrec_6D46CFF093D30154                                      
0001ba00  __covrec_36120143B17CCCAD                                      
0001ba28  __covrec_263B49CCAAFFAD10                                      
0001ba50  __covrec_140EB3340D8645F7                                      
0001ba78  __covrec_A7A57191D2AF602F                                      
0001baa0  __covrec_F45F6DEB3475DB6C                                      
0001bac8  __covrec_AEA9A7A050EB2448                                      
0001baf0  __covrec_D589302BF1DD022                                       
0001bb18  __covrec_92C9DAA9C9EEC587                                      
0001bb40  __covrec_A627695BD17235D1                                      
0001bb68  __covrec_F98706092338D1AC                                      
0001bb90  __covrec_7948025A945CC6C9                                      
0001bbb8  __covrec_117964D96EE36E41                                      
0001bbe0  __covrec_B241900237A12099                                      
0001bc08  __covrec_11EED22D9E60C93C                                      
0001bc30  __covrec_89D5BF1313435B47                                      
0001bc58  __covrec_F1D172C710754A1C                                      
0001bc80  __covrec_4D7350F4660A4EDC                                      
0001bca8  __covrec_DF4324A666654F7B                                      
0001bcd0  __covrec_691B5BB3653DD0C9                                      
0001bcf8  __covrec_35ACDE6B1DB64381                                      
0001bd20  __covrec_68382CD637712021                                      
0001bd48  __covrec_B3F3BDA44C86F28F                                      
0001bd70  __covrec_6700E07112651689                                      
0001bd98  __covrec_C891816ECD188728                                      
0001bdc0  __covrec_3B11C33593E6B355                                      
0001bde8  __covrec_84D367DABCCCAA84                                      
0001be10  __covrec_254A82438591E52C                                      
0001be38  __covrec_19D16789C19ACF5D                                      
0001be60  __covrec_6D375FA5787512DE                                      
0001be88  __covrec_B32D3544572CB963                                      
0001beb0  __covrec_72C4A82DABA78D1B                                      
0001bed8  __covrec_13F256138B3B6518                                      
0001bf00  __covrec_531872212FE03C64                                      
0001bf28  __covrec_EA965D0A9831FE33                                      
0001bf50  __covrec_5AE5A6CA23E9CA90                                      
0001bf78  __covrec_9E9AEDD0D2A076CE                                      
0001bfa0  __covrec_60BA9FDDAF9E8CED                                      
0001bfc8  __covrec_1F0422B4B1A24507                                      
0001bff0  __covrec_DA8144EFE9176E59                                      
0001c018  __covrec_8DE206A5BE60E29F                                      
0001c040  __covrec_77E1BD519443848D                                      
0001c068  __covrec_3FE6122E27B6EDD3                                      
0001c090  __covrec_F4548201BD3EAC3E                                      
0001c0b8  __covrec_C1A60CF54653909F                                      
0001c0e0  __covrec_D4D14EC238C74E                                        
0001c108  __covrec_C05879153FE555C1                                      
0001c130  __covrec_2AA148988CEF6258                                      
0001c158  __covrec_8CD71FB7DA8C4BC5                                      
0001c180  __covrec_C8DDCD2BE5BDEB29                                      
0001c1a8  __covrec_DC0782090FC2D18C                                      
0001c1d0  __covrec_6C77240A431C2418                                      
0001c1f8  __covrec_9896B35EBDF3EC0E                                      
0001c220  __covrec_37BD9692A6E007A1                                      
0001c248  __covrec_F0A079BD2B655421                                      
0001c270  __covrec_91D9BAC16815EB2C                                      
0001c298  __covrec_FD07BF04513AA52D                                      
0001c2c0  __covrec_F153F75E52337D9E                                      
0001c2e8  __covrec_B80338B73BCC2656                                      
0001c310  __covrec_AEFA24C7C56FE949                                      
0001c338  __covrec_259AA9E554F666B7                                      
0001c360  __covrec_51EB70A0B5B974EF                                      
0001c388  __covrec_7D5D6B0F6FB993F2                                      
0001c3b0  __covrec_5DF3552454A42C0F                                      
0001c3d8  __covrec_81DC2709F5752D10                                      
0001c400  __covrec_4FA49577060D487D                                      
0001c428  __covrec_7F35E53EAA3BEBFA                                      
0001c450  __covrec_99A262E347526819                                      
0001c478  __covrec_962F48C523331602                                      
0001c4a0  __covrec_1F9F60AF9D1EA516                                      
0001c4c8  __covrec_CA96F046A5AB2363                                      
0001c4f0  __covrec_1C6892E386CC26B1                                      
0001c518  __covrec_C6A03EA07DFDA48E                                      
0001c540  __covrec_871E87F03CAB2389                                      
0001c568  __covrec_CA659B843C923895                                      
0001c590  __covrec_458FE31D37BDB2DB                                      
0001c5b8  __covrec_A4ACAA00C6F0D5B7                                      
0001c5e0  __covrec_77B146EB680865E2                                      
0001c608  __covrec_A43501C215C5AE37                                      
0001c630  __covrec_FBB2491193F06C7C                                      
0001c658  __covrec_58228321CE0501E9                                      
0001c680  __covrec_6B0AFE113A1B8C50                                      
0001c6a8  __covrec_817BA9F169630E69                                      
0001c6d0  __covrec_1262F84BF6677193                                      
0001c6f8  __covrec_45A268458869A244                                      
0001c720  __covrec_31D8ED6392B8C702                                      
0001c748  __covrec_D928858D6E8F0E82                                      
0001c770  __covrec_DE7467337E6FBCEE                                      
0001c798  __covrec_F62A4E84854F00AB                                      
0001c7c0  __covrec_4C158E6D40D6F9C2                                      
0001c7e8  __covrec_610D70C8E1A335F9                                      
0001c810  __covrec_32082F342DE83C30                                      
0001c838  __covrec_EADA5C7EAF43B99B                                      
0001c860  __covrec_17DA6C1ABA552607                                      
0001c888  __covrec_D06E46ADCA79BD5A                                      
0001c8b0  __covrec_F9B8863AA8D07B2E                                      
0001c8d8  __covrec_2E7E51C4DB302D6A                                      
0001c900  __covrec_3C3CBCF2BFCDA88                                       
0001c928  __covrec_969329555EB07313                                      
0001c950  __covrec_213F63025DB77FC4                                      
0001c978  __covrec_2A4FD133DDBFF9F2                                      
0001c9a0  __covrec_E732C21944523DE8                                      
0001c9c8  __covrec_64D3C1D55B1C4BDA                                      
0001c9f0  __covrec_E377B543C679DA6B                                      
0001ca18  __covrec_33393C3A2B2BB27                                       
0001ca40  __covrec_DC055F581051F1B9                                      
0001ca68  __covrec_FCBD9855C8410B60                                      
0001ca90  __covrec_23775F7384F9CD04                                      
0001cab8  __covrec_A06A5FD1185B773C                                      
0001cae0  __covrec_913928F0AF0B95A2                                      
0001cb08  __covrec_BCD70E34A1BD2DAD                                      
0001cb30  __covrec_C52B00B52192A437                                      
0001cb58  __covrec_6FBBFBF5F17C446D                                      
0001cb80  __covrec_26C28402AC41882A                                      
0001cba8  __covrec_3D1357E16A1DAE                                        
0001cbd0  __covrec_33DF52A6FC7DE282                                      
0001cbf8  __covrec_C596E6D89868C150                                      
0001cc20  __covrec_E8F923593A2E89F0                                      
0001cc48  __covrec_C7A3F8A6526ACAAB                                      
0001cc70  __covrec_D8D8622C269DFC32                                      
0001cc98  __covrec_59866A2B960156BF                                      
0001ccc0  __covrec_E2BC49106D215FDF                                      
0001cce8  __covrec_64A8BBF057BCDB8F                                      
0001cd10  __covrec_CA879987B26BBD11                                      
0001cd38  __covrec_327E029A19A95209                                      
0001cd60  __covrec_BE1CE00D43CECB55                                      
0001cd88  __covrec_EB3063223C4FA2D4                                      
0001cdb0  __covrec_1B54995DB84F8B98                                      
0001cdd8  __covrec_2F14B8D53D6AFF17                                      
0001ce00  __covrec_39D0176CD749C99D                                      
0001ce28  __covrec_74AD7F8074A990C0                                      
0001ce50  __covrec_7943099773514106                                      
0001ce78  __covrec_18211F0904F52895                                      
0001cea0  __covrec_4CFD48137E743A9D                                      
0001cec8  __covrec_148F7DA1EDB7DD61                                      
0001cef0  __covrec_BC290E9922E7E150                                      
0001cf18  __covrec_399C2F459BF77AD7                                      
0001cf40  __covrec_E1A30E1B4F980C91                                      
0001cf68  __covrec_81DB0EAEAA6C9AC7                                      
0001cf90  __covrec_C11BDC7FABD07D0B                                      
0001cfb8  __covrec_33DD2D9FB5EAA6E5                                      
0001cfe0  __covrec_80F9C78B0D5D4786                                      
0001d008  __covrec_335B9041F2B512E0                                      
0001d030  __covrec_9DC76352B1EF6830                                      
0001d058  __covrec_6F7C608B09F01974                                      
0001d080  __covrec_C785045688B498DF                                      
0001d0a8  __covrec_7F7B083B204C772D                                      
0001d0d0  __covrec_D883D67AC30EFF9D                                      
0001d0f8  __covrec_221829C228DA6C06                                      
0001d120  __covrec_E4F77A5421C608BD                                      
0001d148  __covrec_BF5B2D3E8315BBF7                                      
0001d170  __covrec_310D3AC6E4A0233C                                      
0001d198  __covrec_EC81A163807EFF02                                      
0001d1c0  __covrec_3DCD32584C690145                                      
0001d1e8  __covrec_15AF76F35BC0448C                                      
0001d210  __covrec_C2B3C483B63A5E20                                      
0001d238  __covrec_6CEDCA87BE1D39D4                                      
0001d260  __covrec_C30EB30F0D6CA293                                      
0001d288  __covrec_6DDCD9F0C83B83BF                                      
0001d2b0  __covrec_8029175C46B439DF                                      
0001d2d8  __covrec_BB58F9EFFAB74CFA                                      
0001d300  __covrec_DCC15BAB75B71021                                      
0001d328  __covrec_28A6ED04FD6736E7                                      
0001d350  __covrec_F7C78CEF5E408043                                      
0001d378  __covrec_50A4650F69A02244                                      
0001d3a0  __covrec_BAF611EDDF85960D                                      
0001d3c8  __covrec_2F2861C62A32D9EE                                      
0001d3f0  __covrec_1D10DBEA99EF31D                                       
0001d418  __covrec_951047D4C1E2E631                                      
0001d440  __covrec_C39014A7B52AF635                                      
0001d468  __covrec_904B8AA7FE47CD65                                      
0001d490  __covrec_821AC6B04AADEFA7                                      
0001d4b8  __covrec_FB25D5ADFAE7CF99                                      
0001d4e0  __covrec_1953C8669CE2D0FE                                      
0001d508  __covrec_B110AA2D28AE7A02                                      
0001d530  __covrec_86A9842033F7AB88                                      
0001d558  __covrec_A81E63E6AD3F3223                                      
0001d580  __covrec_D7904C5A2879B01E                                      
0001d5a8  __covrec_864E9C4A9E5BFA1C                                      
0001d5d0  __covrec_1FCCD1440CD87A38                                      
0001d5f8  __covrec_E1741E1C1FEE838E                                      
0001d620  __covrec_DF92A94CD5ED2480                                      
0001d648  __covrec_E8BD5282E63DDE7F                                      
0001d670  __covrec_CBADFE2B599E93D1                                      
0001d698  __covrec_E2C22A4936FF8F7A                                      
0001d6c0  __covrec_79F44726F264D702                                      
0001d6e8  __covrec_EC24CDCC4DA4C89E                                      
0001d710  __covrec_ED51E4B0E0C4403A                                      
0001d738  __covrec_65DC4DA59D803A9A                                      
0001d760  __covrec_896321F5D1CAF43D                                      
0001d788  __covrec_4108F39F2CF6F3A6                                      
0001d7b0  __covrec_6581B810712A84A9                                      
0001d7d8  __covrec_6B8FD2A2B007D777                                      
0001d800  __covrec_4C3168C2A4D9F914                                      
0001d828  __covrec_AF1B306F38A5A107                                      
0001d850  __covrec_42D0A615B0579C1B                                      
0001d878  __covrec_86015F450193C2F5                                      
0001d8a0  __covrec_D372A19317C9419D                                      
0001d8c8  __covrec_98F0E9ED91133C1B                                      
0001d8f0  __covrec_67507B9754BDF0F                                       
0001d918  __covrec_ED2921FF39F6931F                                      
0001d940  __covrec_8A6EEF93FA7ED423                                      
0001d968  __covrec_49AAF0C622504F61                                      
0001d990  __covrec_91B6E54A23A3BC                                        
0001d9b8  __covrec_C7A3DC5FCBD229F5                                      
0001d9e0  __covrec_FF735A13828CCB25                                      
0001da08  __covrec_949631A9DD75F5F3                                      
0001da30  __covrec_368DB7F94103651D                                      
0001da58  __covrec_1E365C06B93E755C                                      
0001da80  __covrec_F59599ABF0D094C0                                      
0001daa8  __covrec_62DCA6FA857581E0                                      
0001dad0  __covrec_5F3A54AB8DAB57F9                                      
0001daf8  __covrec_C0DC172FDDEBEB90                                      
0001db20  __covrec_70FF36A831701743                                      
0001db48  __covrec_D76171FD07E86A8E                                      
0001db70  __covrec_2BD44284789F91BA                                      
0001db98  __covrec_F641D033A3B76080                                      
0001dbc0  __covrec_AB8FBEAD664912EB                                      
0001dbe8  __covrec_98FD82A883A4AF09                                      
0001dc10  __covrec_6A13BF628748E06C                                      
0001dc38  __covrec_B497945531D9BAED                                      
0001dc60  __covrec_BB62713564BC6061                                      
0001dc88  __covrec_77BF2B308B7AA166                                      
0001dcb0  __covrec_B109B710459D7E74                                      
0001dcd8  __covrec_565A1705DBDCBCF6                                      
0001dd00  __covrec_F00EE0E385919F36                                      
0001dd28  __covrec_7ACB1A272B40693                                       
0001dd50  __covrec_CA867189FE483015                                      
0001dd78  __covrec_F55BEBE648827E35                                      
0001dda0  __covrec_D8A263FCD10C4FC                                       
0001ddc8  __covrec_80F2C1F92EC56A84                                      
0001ddf0  __covrec_7297E02781E35C9B                                      
0001de18  __covrec_3B7C12D1FF505D33                                      
0001de40  __covrec_C4948B4A7BD10521                                      
0001de68  __covrec_2A9EFE7D0D5CC6FB                                      
0001de90  __covrec_61BAD85B7EE7543E                                      
0001deb8  __covrec_D9834B1298AF0659                                      
0001dee0  __covrec_E7C9892D4DB5DF92                                      
0001df08  __covrec_CB3EDB19605093E                                       
0001df30  __covrec_11A2E988171FA6FD                                      
0001df58  __covrec_3BCAF03AAEC4388A                                      
0001df80  __covrec_BFA94883BB321D30                                      
0001dfa8  __covrec_45F3D3DDF856C562                                      
0001dfd0  __covrec_F1C5EA97337A376C                                      
0001dff8  __covrec_965EAF1D1C957DB0                                      
0001e020  __covrec_32F86B6099E2B33D                                      
0001e048  __covrec_B9D785A7E077CEA3                                      
0001e070  __covrec_3620BC6A030CA267                                      
0001e098  __covrec_9949679EA50BED96                                      
0001e0c0  __covrec_9111C07A96D0EDE0                                      
0001e0e8  __covrec_64202959F9FD5028                                      
0001e110  __covrec_262CE07799357518                                      
0001e138  __covrec_23FBBAEE4FF43E4E                                      
0001e160  __covrec_734558F5A787C5BF                                      
0001e188  __covrec_9CD5949BC6A9B74                                       
0001e1b0  __covrec_7966E82F62F0217A                                      
0001e1d8  __covrec_73FE5F7C85C9C982                                      
0001e200  __covrec_DC0C72BFD637E815                                      
0001e228  __covrec_40FFB06A88473546                                      
0001e250  __covrec_4A14D2EFDDCC31FD                                      
0001e278  __covrec_2C7807E6FE8E01E8                                      
0001e2a0  __covrec_9AB52AEEB6547FD5                                      
0001e2c8  __covrec_33B2861680F2A147                                      
0001e2f0  __covrec_BD83E8803461B090                                      
0001e318  __covrec_B84298F21EA3E1FF                                      
0001e340  __covrec_E753F02886064EED                                      
0001e368  __covrec_76C6D32727707ADB                                      
0001e390  __covrec_79CB816ABFED6F45                                      
0001e3b8  __covrec_2ED6AA9C9C7A8D21                                      
0001e3e0  __covrec_94F65D8E0CB01A01                                      
0001e408  __covrec_625FE2ACC8D7AE7A                                      
0001e430  __covrec_87EE54EA8ACB8E60                                      
0001e458  __covrec_189065BD7E1180FF                                      
0001e480  __covrec_508595C2FEA8404C                                      
0001e4a8  __covrec_EF321B2448442D75                                      
0001e4d0  __covrec_813D7B8832D2F26A                                      
0001e4f8  __covrec_F87ED71B4B96DAF7                                      
0001e520  __covrec_670FAAE4949E8855                                      
0001e548  __covrec_F0C5F02746706C2E                                      
0001e570  __covrec_FF35EDE222E83E37                                      
0001e598  __covrec_DB363FCB291EB8C7                                      
0001e5c0  __covrec_4E7FA375C45FF47B                                      
0001e5e8  __covrec_B1DAA4D48A5DAC92                                      
0001e610  __covrec_D5F13B1F091E53A6                                      
0001e638  __covrec_6B75611D7E159BB4                                      
0001e660  __covrec_46A8ECB34234E9AD                                      
0001e688  __covrec_C8691A5D3D18CEB8                                      
0001e6b0  __covrec_410C20B7D67FD234                                      
0001e6d8  __covrec_F90AEA9E33CC3FD0                                      
0001e700  __covrec_83D7C9B6BE769081                                      
0001e728  __covrec_D21ABA06BC7B35F0                                      
0001e750  __covrec_BFF78BC6DCEBF1F6                                      
0001e778  __covrec_55FDA8697961D842                                      
0001e7a0  __covrec_E08C991EEEAF4A6C                                      
0001e7c8  __covrec_4D21AE937557C3AE                                      
0001e7f0  __covrec_F592AF369DF303C7                                      
0001e818  __covrec_A5C8395CDF4785B9                                      
0001e840  __covrec_E35CD4DC3FB79700                                      
0001e868  __covrec_84E62DA7D731097F                                      
0001e890  __covrec_9493695F91E5C831                                      
0001e8b8  __covrec_B61E6F782B78E33                                       
0001e8e0  __covrec_3FA7AA86D5A513E9                                      
0001e908  __covrec_91E79F6BD4573139                                      
0001e930  __covrec_1FAE6341AC33EBCF                                      
0001e958  __covrec_96C729A5B9B432AC                                      
0001e980  __covrec_2AB639C8070040F7                                      
0001e9a8  __covrec_E129A7E8FA064E26                                      
0001e9d0  __covrec_5293B1DCB1A6494F                                      
0001e9f8  __covrec_F446EFFE4ECAF20B                                      
0001ea20  __covrec_ADE97320AF11F461                                      
0001ea48  __covrec_C406590A991649ED                                      
0001ea70  __covrec_43BA5FCC8231AC14                                      
0001ea98  __covrec_D3EA813A32C897FB                                      
0001eac0  __covrec_F9F17622EAACD3F8                                      
0001eae8  __covrec_1382B4651CA09C1F                                      
0001eb10  __covrec_79BE9C17BC8DE2E7                                      
0001eb38  __covrec_8CCA9B6BB9866BCD                                      
0001eb60  __covrec_94DABB20B1E15972                                      
0001eb88  __covrec_4606C303C6B0A930                                      
0001ebb0  __covrec_354DC10389137C54                                      
0001ebd8  __covrec_51EC7BA12E1A987B                                      
0001ec00  __covrec_963270261C68F670                                      
0001ec28  __covrec_90B6A7A0F52B09BF                                      
0001ec50  __covrec_225AAA53B253CAA4                                      
0001ec78  __covrec_90CD520EB5E56147                                      
0001eca0  __covrec_D85EB321E56D0315                                      
0001ecc8  __covrec_396760987B684589                                      
0001ecf0  __covrec_451C27572A870E                                        
0001ed18  __covrec_959EBC5BF621F668                                      
0001ed40  __covrec_779E9B22FDEB9E7                                       
0001ed68  __covrec_213A5CF286A089C2                                      
0001ed90  __covrec_505B585CD84F58D2                                      
0001edb8  __covrec_8F4E9C4650FFC024                                      
0001ede0  __covrec_5D57DE214FF6020D                                      
0001ee08  __covrec_33C5E3388616C38D                                      
0001ee30  __covrec_BBAC06060934AC71                                      
0001ee58  __covrec_F63917391CDF1060                                      
0001ee80  __covrec_A2DE1CAB7FBBC480                                      
0001eea8  __covrec_A693A204ED30E6F3                                      
0001eed0  __covrec_AA5790695A0CA6C4                                      
0001eef8  __covrec_B1817F3EABBA20D4                                      
0001ef20  __covrec_34276274BD918054                                      
0001ef48  __covrec_E82466F4F4F1A97D                                      
0001ef70  __covrec_54E47B3468B6720B                                      
0001ef98  __covrec_BFFD62CFC6E30A9F                                      
0001efc0  __covrec_59570786E07CFFA4                                      
0001efe8  __covrec_62CEED415117C3E6                                      
0001f010  __covrec_889DF2E2FA47FC97                                      
0001f038  __covrec_185A888EA5B72FA2                                      
0001f060  __covrec_44F5FA991665F746                                      
0001f088  __covrec_8A3BB11C8B6B95D4                                      
0001f0b0  __covrec_909B1ED38439278D                                      
0001f0d8  __covrec_CF94589D9D1DEC52                                      
0001f100  __covrec_B3BDDAF88E0234FE                                      
0001f128  __covrec_326E4419DFD0399D                                      
0001f150  __covrec_59A6F2E1536536C9                                      
0001f178  __covrec_3F21CE194EBC8005                                      
0001f1a0  __covrec_49DEF62CEC07D0E4                                      
0001f1c8  __covrec_50FB6F17B07B6FEA                                      
0001f1f0  __covrec_F5BD1513B88B160C                                      
0001f218  __covrec_F33FA5E5946D41DF                                      
0001f240  __covrec_8B1F6F08D6C4DC4C                                      
0001f268  __covrec_FF5AA72EA0724903                                      
0001f290  __covrec_57BFCFACEDAA9D40                                      
0001f2b8  __covrec_12F07EB31508730B                                      
0001f2e0  __covrec_9DD6818BB3CAB7FD                                      
0001f308  __covrec_6E368A2F9C3B83EA                                      
0001f330  __covrec_4A25939B6368C494                                      
0001f358  __covrec_E3A868EB46B23ACB                                      
0001f380  __covrec_6B294C21DBE69430                                      
0001f3a8  __covrec_BE1F12FE822613BE                                      
0001f3d0  __covrec_A285E6AEC15F4C28                                      
0001f3f8  __covrec_233EAFEC84FC4943                                      
0001f420  __covrec_EFA7D62E9CC21E11                                      
0001f448  __covrec_6A035E7CF6031E36                                      
0001f470  __covrec_49CA14FFA437D70A                                      
0001f498  __covrec_A5958C45AE90FDEB                                      
0001f4c0  __covrec_927D300803BA961F                                      
0001f4e8  __covrec_3AAFDF39F6DF737A                                      
0001f510  __covrec_BF7F3229C73CD9C2                                      
0001f538  __covrec_45B9B9B41DF3C36E                                      
0001f560  __covrec_C55F02A032F43D70                                      
0001f588  __covrec_C0CD645B5D5102C8                                      
0001f5b0  __covrec_7D417B48FB287AFA                                      
0001f5d8  __covrec_7F44F1B81D7192A6                                      
0001f600  __covrec_5FE7858F1DFD2F93                                      
0001f628  __covrec_43D543A19EFC9AAF                                      
0001f650  __covrec_C80297F8D5A5EE6E                                      
0001f678  __covrec_40688D840F89C590                                      
0001f6a0  __covrec_315DFC0F397B3EB4                                      
0001f6c8  __covrec_BD55CEDDD4C7465C                                      
0001f6f0  __covrec_2C0A9F21EA7A4B13                                      
0001f718  __covrec_E3DFBD2A832F6CF2                                      
0001f740  __covrec_FE89C50404FB1505                                      
0001f768  __covrec_F13BD03F24CD41C4                                      
0001f790  __covrec_48F9CF9F2F6FDC84                                      
0001f7b8  __covrec_61FAD4F91794C2C8                                      
0001f7e0  __covrec_9191F4FBCFAAD31C                                      
0001f808  __covrec_60FC22479A8DD59B                                      
0001f830  __covrec_7685458E80E8A2D2                                      
0001f858  __covrec_DFAC83472808A612                                      
0001f880  __covrec_DB9F4938889B0F96                                      
0001f8a8  __covrec_63F023B93B49A407                                      
0001f8d0  __covrec_BA0577C7F8482932                                      
0001f8f8  __covrec_C53BBB9339A354B5                                      
0001f920  __covrec_E9BB2D6563F916C9                                      
0001f948  __covrec_BC9C1716B39EEEEE                                      
0001f970  __covrec_6501CE59E048559A                                      
0001f998  __covrec_B40D1EC13EA64554                                      
0001f9c0  __covrec_94E076E5B633FDB9                                      
0001f9e8  __covrec_30BE3871F5A654C5                                      
0001fa10  __covrec_7CFB78B4481CE78F                                      
0001fa38  __covrec_3C891685B0936AE5                                      
0001fa60  __covrec_45F9536CBD5F4089                                      
0001fa88  __covrec_37AD47A61F8591EF                                      
0001fab0  __covrec_110E957A5C5DFE90                                      
0001fad8  __covrec_D53BD1FED6E223A3                                      
0001fb00  __covrec_31B5D93C09AED496                                      
0001fb28  __covrec_84422CE8BBD08E66                                      
0001fb50  __covrec_BE432654406B87EA                                      
0001fb78  __covrec_A76EC91794EF03FA                                      
0001fba0  __covrec_E28AA4D8AA37BB7C                                      
0001fbc8  __covrec_B4CF45702ED1F62E                                      
0001fbf0  __covrec_D8306239A80A3050                                      
0001fc18  __covrec_B03B60B3541D27DC                                      
0001fc40  __covrec_15444C6CFF7C0EAD                                      
0001fc68  __covrec_E284B546EF47EFE4                                      
0001fc90  __covrec_C297950E14A9FC9B                                      
0001fcb8  __covrec_6084466C6C308174                                      
0001fce0  __covrec_50D6BDD8ED2A2D0E                                      
0001fd08  __covrec_72B41E804029B4B6                                      
0001fd30  __covrec_A03813BEDF5E14F4                                      
0001fd58  __covrec_60C32BF523D530C4                                      
0001fd80  __covrec_5A0F3B205628282                                       
0001fda8  __covrec_14C81AC7A8B92809                                      
0001fdd0  __covrec_E9A3A1E60182F09D                                      
0001fdf8  __covrec_E55F64C97BABC326                                      
0001fe20  __covrec_EFC421F19CC0695F                                      
0001fe48  __covrec_EEFFBF196666E0B1                                      
0001fe70  __covrec_6BC6B446894E835                                       
0001fe98  __covrec_33BFACD71876B04F                                      
0001fec0  __covrec_21AB6433F70D1048                                      
0001fee8  __covrec_693B8D2DB02FA012                                      
0001ff10  __covrec_4FEE33E90C98CEB1                                      
0001ff38  __covrec_F578DF2B62F3EC2A                                      
0001ff60  __covrec_4F17865C7AB604FF                                      
0001ff88  __covrec_D94CC96ABB0C6DB                                       
0001ffb0  __covrec_F7951C80133BC982                                      
0001ffd8  __covrec_D941ADEFFEFD7E35                                      
00020000  __covrec_EEA2B8DB7CDF45BA                                      
00020028  __covrec_6BBE3234BAF3DE48                                      
00020050  __covrec_44A6C9DACBEF005A                                      
00020078  __covrec_568F33693272DF7C                                      
000200a0  __covrec_E1918CAA399C52ED                                      
000200c8  __covrec_BAA4B870B60BD316                                      
000200f0  __covrec_9281FF1453311680                                      
00020118  __covrec_DE94F63CBCD6A402                                      
00020140  __covrec_460E53E72E689979                                      
00020168  __covrec_648637F4AFC7F6E6                                      
00020190  __covrec_5B2ECDBCAE47B840                                      
000201b8  __covrec_1356D0C6CD52A496                                      
000201e0  __covrec_C8098930F9FF09AF                                      
00020208  __covrec_78F02359C9C9068D                                      
00020230  __covrec_D9AE959CE96C297F                                      
00020258  __covrec_35EB41610CD22792                                      
00020280  __covrec_26AF2A21E7B92AED                                      
000202a8  __covrec_8F2B63EAE12836CC                                      
000202d0  __covrec_17DD54B0ABEF684D                                      
000202f8  __covrec_CDEE2F023C3227C                                       
00020320  __covrec_13C8933AE5979064                                      
00020348  __covrec_3F76917C95C7FF9B                                      
00020370  __covrec_916F668956097392                                      
00020398  __covrec_A6788A00710A51DF                                      
000203c0  __covrec_33C48B30EA4FFCAA                                      
000203e8  __covrec_F727B396E853F4C6                                      
00020410  __covrec_A9BE2569F0EF3EBB                                      
00020438  __covrec_44166E64A5BBD008                                      
00020460  __covrec_E4E9721F492B3BF3                                      
00020488  __covrec_D5127951400A41C4                                      
000204b0  __covrec_E5461CF947A5E872                                      
000204d8  __covrec_2776F3BF367741EE                                      
00020500  __covrec_88B24ACA7C5A8763                                      
00020528  __covrec_1018521E5B299FA7                                      
00020550  __covrec_F459D04CD914C549                                      
00020578  __covrec_8586C0F37F331B9F                                      
000205a0  __covrec_47FED9C5043DD057                                      
000205c8  __covrec_30364DD18FD5241A                                      
000205f0  __covrec_8613999178529592                                      
00020618  __covrec_DD3BD095BB9882CF                                      
00020640  __covrec_6C0596D111247138                                      
00020668  __covrec_7E272848AC708089                                      
00020690  __covrec_1088BC9CCEB5B98E                                      
000206b8  __covrec_9C8E6B302F51A393                                      
000206e0  __covrec_9414153C688715A1                                      
00020708  __covrec_44266025E7CC8380                                      
00020730  __covrec_CD84FE23D8F1FFF3                                      
00020758  __covrec_222D99FB63574F6A                                      
00020780  __covrec_732C0C89F6E04565                                      
000207a8  __covrec_80D7B048A9ABFABD                                      
000207d0  __covrec_DD49A6AE2A489512                                      
000207f8  __covrec_8DD6855AC9D8D313                                      
00020820  __covrec_69605FD898A8D78B                                      
00020848  __covrec_3F56FE9AC0E3F7D                                       
00020870  __covrec_DA089776324B511E                                      
00020898  __covrec_7804D09EC0E20B29                                      
000208c0  __covrec_CB6139DA0A22A536                                      
000208e8  __covrec_5766E1301EB476CA                                      
00020910  __covrec_D44D474EB5192D81                                      
00020938  __covrec_B4D4E72F236CC252                                      
00020960  __covrec_95587E91B4CB0C7E                                      
00020988  __covrec_33F38BFD4C2AE141                                      
000209b0  __covrec_1786B2B30AD9D4E4                                      
000209d8  __covrec_6FD77BF06119F64A                                      
00020a00  __covrec_9E5E51CCC01B6BAA                                      
00020a28  __covrec_E2D2A254D7084D54                                      
00020a50  __covrec_1E612458715CE6B6                                      
00020a78  __covrec_2D575503EF9D9729                                      
00020aa0  __covrec_6D2A2A8D4D990BB6                                      
00020ac8  __covrec_E22416991EAE9A13                                      
00020af0  __covrec_93A14ACB27AEFF78                                      
00020b18  __covrec_FEA09730A65AF008                                      
00020b40  __covrec_EDD65A3EF2661A40                                      
00020b68  __covrec_BC8CBF8BB39926D7                                      
00020b90  __covrec_7BCF5860B55A2A0E                                      
00020bb8  __covrec_3DEFA4C5BAE3486                                       
00020be0  __covrec_47826CAE054D3CA                                       
00020c08  __covrec_1C5F6808BD5C76DA                                      
00020c30  __covrec_AF610BED1978BE                                        
00020c58  __covrec_60FCAEF1CA6A4D04                                      
00020c80  __covrec_65484A8675D7B8E2                                      
00020ca8  __covrec_E395DF451BEF8FA                                       
00020cd0  __covrec_858A43DC59E181                                        
00020cf8  __covrec_B083043E68B37EC                                       
00020d20  __covrec_454F188C2EEBB909                                      
00020d48  __covrec_927D1FAC8F867C5C                                      
00020d70  __covrec_40D13EEB64F7F106                                      
00020d98  __covrec_8BE1A7154264C8D1                                      
00020dc0  __covrec_EC4B7BCAD4CE4562                                      
00020de8  __covrec_D82F77AC1E47A870                                      
00020e10  __covrec_1E8998490C12D603                                      
00020e38  __covrec_44A77492BB8282C5                                      
00020e60  __covrec_952365B15D689F7F                                      
00020e88  __covrec_8D56EB6F97155EE7                                      
00020eb0  __covrec_C7343722D36256E3                                      
00020ed8  __covrec_E310EBFC87A74FEA                                      
00020f00  __covrec_1FA57E91BCF2AE70                                      
00020f28  __covrec_D442BC42C430DA18                                      
00020f50  __covrec_3102CDD49AE9C38                                       
00020f78  __covrec_E2B3CBE0494787A3                                      
00020fa0  __covrec_52F3142522D0E6B1                                      
00020fc8  __covrec_11F0727ADEC938A6                                      
00020ff0  __covrec_633F92D66F25D55E                                      
00021018  __covrec_C4E95923FBC11FA5                                      
00021040  __covrec_4800F635D0087F45                                      
00021068  __covrec_8219E03C76788114                                      
00021090  __covrec_3CB766AA73B34ED5                                      
000210b8  __covrec_E4CD4A21ECE3A959                                      
000210e0  __covrec_712AAF0949CB6D0E                                      
00021108  __covrec_CF35DF077AD86753                                      
00021130  __covrec_92988617408E3EAD                                      
00021158  __covrec_716C958D7F01D131                                      
00021180  __covrec_695ABF3E482DCF58                                      
000211a8  __covrec_F59242E88E296C60                                      
000211d0  __covrec_6CF383D0157CD7EF                                      
000211f8  __covrec_4DA1137EF85025D0                                      
00021220  __covrec_619F943D65CFFC68                                      
00021248  __covrec_61BC1D98FABD78E9                                      
00021270  __covrec_E151FBF90CD92B7A                                      
00021298  __covrec_12B4AD1F18DFDCB2                                      
000212c0  __covrec_AEB9F1523DDE543D                                      
000212e8  __covrec_F46A5C6127C4AB57                                      
00021310  __covrec_955B34D236117C9B                                      
00021338  __covrec_E4CFEC018AC3C48E                                      
00021360  __covrec_EF5DBDB39CA4E3C8                                      
00021388  __covrec_BFCEC3B71D97F59C                                      
000213b0  __covrec_5C859D573AC9D4D7                                      
000213d8  __covrec_A8B3D3F49CCAAD0B                                      
00021400  __covrec_607B2E586A4F788A                                      
00021428  __covrec_ED5132579AB74B7                                       
00021450  __covrec_BFE9ECE487F76743                                      
00021478  __covrec_69671E9A37D6DACC                                      
000214a0  __covrec_A5151049BBC4D380                                      
000214c8  __covrec_AD81EA784E549756                                      
000214f0  __covrec_DC91B4C1852099B7                                      
00021518  __covrec_7AD7E5C95ACBDBA3                                      
00021540  __covrec_76005DD8045CA6C7                                      
00021568  __covrec_1CFBA41CF3433B5E                                      
00021590  __covrec_5C03FF969F72D36E                                      
000215b8  __covrec_178F40DDE21BE7BB                                      
000215e0  __covrec_ED6172EA6D608FBF                                      
00021608  __covrec_2FF8A0A4A81450B8                                      
00021630  __covrec_7B033E8B1F72CB44                                      
00021658  __covrec_F0ED8DAE27871494                                      
00021680  __covrec_4AFFF520A0884F45                                      
000216a8  __covrec_179C5D415DAF3852                                      
000216d0  __covrec_5AFABFB4C420118B                                      
000216f8  __covrec_17B7510BA3C6D63D                                      
00021720  __covrec_2EB2AAA08BD8A9AA                                      
00021748  __covrec_F6A6161E52150C55                                      
00021770  __covrec_9654EC1A6E78C2DF                                      
00021798  __covrec_C861FA9ED78C1628                                      
000217c0  __covrec_75176EAB268A1401                                      
000217e8  __covrec_A9825B320B467145                                      
00021810  __covrec_9E5AEB738AB0DD80                                      
00021838  __covrec_6DFDDD0A637A7940                                      
00021860  __covrec_85E7F86F55C854E3                                      
00021888  __covrec_EE78D4BAE64628AC                                      
000218b0  __covrec_9DBD6AFEA000CEA1                                      
000218d8  __covrec_40F10F639AF2829B                                      
00021900  __covrec_4A681B93737ECCF0                                      
00021928  __covrec_60AEA3C1EEED3162                                      
00021950  __covrec_FB5D1BC27A8DD03D                                      
00021978  __covrec_2D899877F4B8D6DD                                      
000219a0  __covrec_7BDB55ADE659A11B                                      
000219c8  __covrec_AF68AEC0FC01CF52                                      
000219f0  __covrec_774A4E1A5C324926                                      
00021a18  __covrec_6BFF0E102C80DD93                                      
00021a40  __covrec_8F3B26EFA075A4                                        
00021a68  __covrec_1899F4DE343A420C                                      
00021a90  __covrec_84B9F075B08D151B                                      
00021ab8  __covrec_C067E3264A9AF5A6                                      
00021ae0  __covrec_B000D6E44E241DBC                                      
00021b08  __covrec_F57EDEDFDA6CF386                                      
00021b30  __covrec_2491A5449AC6AFDD                                      
00021b58  __covrec_44F0F78A058A2973                                      
00021b80  __covrec_B456FB4C18AE8CCE                                      
00021ba8  __covrec_F488698DD641F6C0                                      
00021bd0  __covrec_BA6B6DEC22B363AC                                      
00021bf8  __covrec_4B953D0407777558                                      
00021c20  __covrec_63E2A7BBA895A1D4                                      
00021c48  __covrec_F300BE205DE6885F                                      
00021c70  __covrec_1B73EE0B8F30313A                                      
00021c98  __covrec_B81E7D3BF22B07C4                                      
00021cc0  __covrec_F7FD019E68E15B66                                      
00021ce8  __covrec_61AF77C1B571217B                                      
00021d10  __covrec_197AEEDD17EAD6F9                                      
00021d38  __covrec_B3B73BF2E5C426E8                                      
00021d60  __covrec_2E2A70827BDC5258                                      
00021d88  __covrec_DA2E46AAD0F0A00A                                      
00021db0  __covrec_A31215F33F623087                                      
00021dd8  __covrec_BB9FD0DCF74ADD48                                      
00021e00  __covrec_FEFBA9885AD7A047                                      
00021e28  __covrec_20CFD6294D6E9168                                      
00021e50  __covrec_EC591A5F6A9F3EE7                                      
00021e78  __covrec_F67717D560A0A71B                                      
00021ea0  __covrec_648AFCE4869CDF64                                      
00021ec8  __covrec_EFA2EA16983795EB                                      
00021ef0  __covrec_78CB2DBB3CEEA65C                                      
00021f18  __covrec_AB3591660FD6F3C1                                      
00021f40  __covrec_33FAC2E730B9A5C1                                      
00021f68  __covrec_7A6864C975AFD43A                                      
00021f90  __covrec_4A612143462861AC                                      
00021fb8  __covrec_E00D1F457315AEA2                                      
00021fe0  __covrec_3426700C4A5B61A5                                      
00022008  __covrec_1B9FA90D44553E00                                      
00022030  __covrec_E6B9158EA4138828                                      
00022058  __covrec_A298B97D82E8FB8B                                      
00022080  __covrec_34F3F185327C3D1D                                      
000220a8  __covrec_12A1A5B674045A46                                      
000220d0  __covrec_189A1B52522DC678                                      
000220f8  __covrec_994F7C80C1B83BAB                                      
00022120  __covrec_C9DA5EF50CA9860B                                      
00022148  __covrec_42A65F4B8B147915                                      
00022170  __covrec_CA4A6D2F6A83BC6E                                      
00022198  __covrec_50FA18F370A338A4                                      
000221c0  __covrec_5B42112AB7951316                                      
000221e8  __covrec_8530663F06A7FC3                                       
00022210  __covrec_55B05CE772A3FED7                                      
00022238  __covrec_126C0B7E8981C155                                      
00022260  __covrec_2693B0CD78D42A91                                      
00022288  __covrec_BA2F91D4EBAE62E8                                      
000222b0  __covrec_41BDB0FA2FADE23B                                      
000222d8  __covrec_3BBF5D8207347E18                                      
00022300  __covrec_5CFC237C48AB80F                                       
00022328  __covrec_1FA512FA46C7E5B5                                      
00022350  __covrec_64A16295B425602E                                      
00022378  __covrec_19E0C80F4592B02E                                      
000223a0  __covrec_2ADFD61D9132B19C                                      
000223c8  __covrec_651D9F8875B473A5                                      
000223f0  __covrec_D39D20B2386CDF64                                      
00022418  __covrec_498DA4185837243E                                      
00022440  __covrec_CFDEA33775812B6E                                      
00022468  __covrec_175A0B476BB46165                                      
00022490  __covrec_53C524AD23B0D9FE                                      
000224b8  __covrec_F1BB9DCF66B2E665                                      
000224e0  __covrec_F1BD8A9A9F532796                                      
00022508  __covrec_B0351D4BFFA315DB                                      
00022530  __covrec_64FB7FF534509268                                      
00022558  __covrec_DC8529AD0C253A64                                      
00022580  __covrec_98070E85DA1EB4CD                                      
000225a8  __covrec_B3C28FB5187347C9                                      
000225d0  __covrec_BA26DFD71B6BBD0E                                      
000225f8  __covrec_53DB31706971EE79                                      
00022620  __covrec_3BB27BCF60BEF0F2                                      
00022648  __covrec_BC7984CCFA3D8ED9                                      
00022670  __covrec_47313B8D5A2523E8                                      
00022698  __covrec_F279CD3163C64FDB                                      
000226c0  __covrec_CB6E39593DB7822B                                      
000226e8  __covrec_CDE6AE02159A531A                                      
00022710  __covrec_9F64EAE13880F66A                                      
00022738  __covrec_7D3E02CA245C9D0B                                      
00022760  __covrec_5A99CDCA1EEC47F9                                      
00022788  __covrec_E017057177F657A5                                      
000227b0  __covrec_3F26A6A3007D7449                                      
000227d8  __covrec_B45700A2291A279D                                      
00022800  __covrec_B393474183F42879                                      
00022828  __covrec_DBA8FC0364B7E8C8                                      
00022850  __covrec_DC8120142E5AA3C2                                      
00022878  __covrec_7B1A2728A73A8141                                      
000228a0  __covrec_858BC9291BE47BE8                                      
000228c8  __covrec_B40C661E23CE6296                                      
000228f0  __covrec_CBA58BB327214EF5                                      
00022918  __covrec_2BA3C4FA99217675                                      
00022940  __covrec_60055A9A031B2694                                      
00022968  __covrec_4D79A40180628AD                                       
00022990  __covrec_451A8F452A669A5A                                      
000229b8  __covrec_9ED4609E9896A515                                      
000229e0  __covrec_4D035693F9044D18                                      
00022a08  __covrec_A310F39BF9257641                                      
00022a30  __covrec_A47BD5D32D974676                                      
00022a58  __covrec_92E200D9276E9513                                      
00022a80  __covrec_BCE20404362A091B                                      
00022aa8  __covrec_5B1E4581D31EA871                                      
00022ad0  __covrec_2B137060926F592C                                      
00022af8  __covrec_ECACBE2C1337F54A                                      
00022b20  __covrec_28F2E6C2558B4CC                                       
00022b48  __covrec_98A844D02FACEB98                                      
00022b70  __covrec_12B3DDEADD64CE07                                      
00022b98  __covrec_6D32D3E85DE9C709                                      
00022bc0  __covrec_F02A4C0B48BA4DE8                                      
00022be8  __covrec_3A9EF8C4AEB7A391                                      
00022c10  __covrec_F30FE177296AD808                                      
00022c38  __covrec_13D0EC6B4327646C                                      
00022c60  __covrec_4F68F387F619A687                                      
00022c88  __covrec_64D90DC2B583C019                                      
00022cb0  __covrec_386A8AEE875D9101                                      
00022cd8  __covrec_ED955C2CA172481D                                      
00022d00  __covrec_77B258A86F68171D                                      
00022d28  __covrec_43AC3D7F67A67D6F                                      
00022d50  __covrec_D928E5E9AC1238                                        
00022d78  __covrec_570AD1247B2904BD                                      
00022da0  __covrec_D8BEE47ABDFE5E7A                                      
00022dc8  __covrec_6C82696AE356F1CC                                      
00022df0  __covrec_5187A315F04A8B4                                       
00022e18  __covrec_E3E85BD240BE519C                                      
00022e40  __covrec_B1D5EB33F212AA24                                      
00022e68  __covrec_E0F98EA752C98C67                                      
00022e90  __covrec_65541E11A03E5939                                      
00022eb8  __covrec_D59F4D8821FF319F                                      
00022ee0  __covrec_4BBA6BFED90A8AD0                                      
00022f08  __covrec_B503FEC0B0931720                                      
00022f30  __covrec_73EB19583D849831                                      
00022f58  __covrec_A1C60934E124A9F                                       
00022f80  __covrec_BE451BAF7B0A3A1E                                      
00022fa8  __covrec_D2192901ABE12A0D                                      
00022fd0  __covrec_1888A59DF0B3B3C7                                      
00022ff8  __covrec_E8A081836A2215D4                                      
00023020  __covrec_F3796B19B12E33D8                                      
00023048  __covrec_9A634937847BD843                                      
00023070  __covrec_F4697B9D34D9C2FD                                      
00023098  __covrec_74633BD7864AA0E0                                      
000230c0  __covrec_6617EDC3AD91A1F7                                      
000230e8  __covrec_DD374FAD1A733A1C                                      
00023110  __covrec_592B405F146B6E3D                                      
00023138  __covrec_B5EB55BCCE818051                                      
00023160  __covrec_FC2903866F474719                                      
00023188  __covrec_A3C88C414D9627E4                                      
000231b0  __covrec_4C35C2C54052BA7C                                      
000231d8  __covrec_7DCC84C9A1247D3F                                      
00023200  __covrec_59111EB6BBD93FE9                                      
00023228  __covrec_EF8C0FB0282EEC3C                                      
00023250  __covrec_2E4F647758B995BF                                      
00023278  __covrec_3EB3C6A896EFEB92                                      
000232a0  __covrec_D50C12DF2EE267A4                                      
000232c8  __covrec_4E3E9B5F0E16C643                                      
000232f0  __covrec_36FFEBA7D7BB268B                                      
00023318  __covrec_599F92E5DDAD34D8                                      
00023340  __covrec_DD6ABC3BC9B13F5                                       
00023368  __covrec_E41939E24BB7AF2D                                      
00023390  __covrec_2998FB8F7F7F6C58                                      
000233b8  __covrec_2DF95169CB140A84                                      
000233e0  __covrec_D416D024D1D73101                                      
00023408  __covrec_45226A81D2E59BAD                                      
00023430  __covrec_5507A5B35C076DCF                                      
00023458  __covrec_D75766304E1D8D92                                      
00023480  __covrec_CA42B03D4DC60F46                                      
000234a8  __covrec_4E20CDD12186456                                       
000234d0  __covrec_32FB3AFAD9190246                                      
000234f8  __covrec_951DF02D6CBC155E                                      
00023520  __covrec_1EF602A244722D5F                                      
00023548  __covrec_B380BD9D0C7E9144                                      
00023570  __covrec_86814B2BF1E495FB                                      
00023598  __covrec_2621E40C16A0319E                                      
000235c0  __covrec_C93CC0F9EE084AFB                                      
000235e8  __covrec_8B1B42DC82413935                                      
00023610  __covrec_896C3ECE75394852                                      
00023638  __covrec_DCF2E1E915646DD1                                      
00023660  __covrec_F2055A48D4124787                                      
00023688  __covrec_C20942F4F65D7C08                                      
000236b0  __covrec_3F26311F3EE3CC22                                      
000236d8  __covrec_DE2CACF93F987CFA                                      
00023700  __covrec_9361484BBF0A0B3B                                      
00023728  __covrec_A822A0000FFB77A5                                      
00023750  __covrec_3316783B75333BD3                                      
00023778  __covrec_D972293A653FFC79                                      
000237a0  __covrec_6F4EE833F4463577                                      
000237c8  __covrec_AAD0141E54DBDF36                                      
000237f0  __covrec_3D1639479BA69D42                                      
00023818  __covrec_703AE850952D9B9E                                      
00023840  __covrec_30AC008DADB1DB45                                      
00023868  __covrec_B86E6ADAE5793B86                                      
00023890  __covrec_3E285C7D0816B8E9                                      
000238b8  __covrec_9D93BACCE8022D7B                                      
000238e0  __covrec_322F048AB3402E4C                                      
00023908  __covrec_9544E34820FFB143                                      
00023930  __covrec_90A2D6AD97D3FA2D                                      
00023958  __covrec_5777877A852C0A6F                                      
00023980  __covrec_711F88A52431842B                                      
000239a8  __covrec_DC4ABEDB7CB18580                                      
000239d0  __covrec_8117D7C2AFE9E6B9                                      
000239f8  __covrec_A223BB639C99CE0B                                      
00023a20  __covrec_E40F38B16CB82A01                                      
00023a48  __covrec_7D5823DFEC630389                                      
00023a70  __covrec_790FBDD382E2AE56                                      
00023a98  __covrec_7943045BADE8A3BE                                      
00023ac0  __covrec_80643D14F53D5DEF                                      
00023ae8  __covrec_6F64DA0211F6F367                                      
00023b10  __covrec_A4243F0D5D65D9ED                                      
00023b38  __covrec_4486883AFABF520F                                      
00023b60  __covrec_584AD94460704E2B                                      
00023b88  __covrec_6B6ECF7946D2B1B6                                      
00023bb0  __covrec_A5C6B58DA49FE9E7                                      
00023bd8  __covrec_3A07722B09050B3E                                      
00023c00  __covrec_68806EC1542D24B5                                      
00023c28  __covrec_64C8B3185D471D39                                      
00023c50  __covrec_933AA01CC1C5EA73                                      
00023c78  __covrec_74ADB140D437494                                       
00023ca0  __covrec_C61E34D2B7DB3AB9                                      
00023cc8  __covrec_297910DCFA06D552                                      
00023cf0  __covrec_C08699B0FA7FE42E                                      
00023d18  __covrec_C1A5F85C5714C707                                      
00023d40  __covrec_5DFE26364CB18BC0                                      
00023d68  __covrec_268AB599EB4212A5                                      
00023d90  __covrec_E5C29692E62043B3                                      
00023db8  __covrec_597DBB490AD57B85                                      
00023de0  __covrec_D8D91C298404D725                                      
00023e08  __covrec_E68F02DCEDB7E853                                      
00023e30  __covrec_C117BC77E1AE5B2C                                      
00023e58  __covrec_E4F2F0A5878654E2                                      
00023e80  __covrec_5C49B71EC833E353                                      
00023ea8  __covrec_9B8E52DC13F8EB3                                       
00023ed0  __covrec_56CA30E0ED77E0AC                                      
00023ef8  __covrec_E3392E68D8092AFD                                      
00023f20  __covrec_FA8C4457FF885F84                                      
00023f48  __covrec_AAD8AC40C3B8018                                       
00023f70  __covrec_9F9A5660F60265EA                                      
00023f98  __covrec_16B04AF7110E629D                                      
00023fc0  __covrec_C88742A00309C248                                      
00023fe8  __covrec_F315EEF1D342B2B8                                      
00024010  __covrec_717D6364E2B8D631                                      
00024038  __covrec_6C644FB18AE96F4A                                      
00024060  __covrec_605B38A404E96241                                      
00024088  __covrec_9199C026249538B0                                      
000240b0  __covrec_EB967233F7157EA6                                      
000240d8  __covrec_3D91C6E3D3C0211F                                      
00024100  __covrec_84F1999EBCAA3AAF                                      
00024128  __covrec_5106A5DFF8AB05EC                                      
00024150  __covrec_12397F85FA5A181A                                      
00024178  __covrec_89D9887558693A8B                                      
000241a0  __covrec_2631DCA870C8D261                                      
000241c8  __covrec_B22149122969ECF1                                      
000241f0  __covrec_2D8FB7EF2983DECD                                      
00024218  __covrec_137D365011955103                                      
00024240  __covrec_5D167D489E8731A2                                      
00024268  __covrec_328110E67C43D2B2                                      
00024290  __covrec_F83801700042C111                                      
000242b8  __covrec_62198F82D0EEAA22                                      
000242e0  __covrec_E468D55EFDE77DC3                                      
00024308  __covrec_465ED001FEE7029C                                      
00024330  __covrec_D106E602CF559D67                                      
00024358  __covrec_3660DD218069EE99                                      
00024380  __covrec_892C75A8C8091D3C                                      
000243a8  __covrec_717D51A19C2A9E2                                       
000243d0  __covrec_8E3E3C9A339C6DEC                                      
000243f8  __covrec_E6A9BE55B8D634E7                                      
00024420  __covrec_18EA9905F2D92A6F                                      
00024448  __covrec_CF1D5F4C4E170F71                                      
00024470  __covrec_C91222E8F6C9D38E                                      
00024498  __covrec_7232234FBE787353                                      
000244c0  __covrec_166DBF9076E6345C                                      
000244e8  __covrec_9226815665E48C36                                      
00024510  __covrec_1D3EAE1D696CB562                                      
00024538  __covrec_333BBC0A535F1DE9                                      
00024560  __covrec_B0CB2062A8831B2D                                      
00024588  __covrec_F09752E0CB6AE9B0                                      
000245b0  __covrec_90D560C6CF4A9229                                      
000245d8  __covrec_1401D7B67233A7F0                                      
00024600  __covrec_EBFFC241DCF42C6F                                      
00024628  __covrec_BD332A04D1EF2802                                      
00024650  __covrec_48317E263B3DC31D                                      
00024678  __covrec_D5FCE8C8060A7EF5                                      
000246a0  __covrec_E8B7E3B389FF534D                                      
000246c8  __covrec_5D997DCE6B8E4790                                      
000246f0  __covrec_67D3DB144EBA80F8                                      
00024718  __covrec_7FEBF2C2A75DD9FE                                      
00024740  __covrec_AA029CA7A6189D79                                      
00024768  __covrec_B8E161108EA66733                                      
00024790  __covrec_1FA9A20B0054EC96                                      
000247b8  __covrec_8FC3C495D6C97B26                                      
000247e0  __covrec_CCB746471E98931                                       
00024808  __covrec_8F93694E6F68751B                                      
00024830  __covrec_640B25623F4A9BBD                                      
00024858  __covrec_D52A934147D69CB7                                      
00024880  __covrec_6CF97F246FFDE31                                       
000248a8  __covrec_2AE0D977427AB785                                      
000248d0  __covrec_BA25B6E0D9E88E92                                      
000248f8  __covrec_D34ACF1A6D54FBC2                                      
00024920  __covrec_7F67FF98045241CA                                      
00024948  __covrec_11896653D92924BC                                      
00024970  __covrec_79F658208F2C30E                                       
00024998  __covrec_AFD08019AD5FBC4F                                      
000249c0  __covrec_AA019CC050F89851                                      
000249e8  __covrec_6F53DC3E617D846                                       
00024a10  __covrec_FCABA0F5ECEDCC50                                      
00024a38  __covrec_9C6938ABE4187AF2                                      
00024a60  __covrec_A292FDF368EAADBD                                      
00024a88  __covrec_C38179C70F15EBB6                                      
00024ab0  __covrec_1D8C74B2B54D8A9F                                      
00024ad8  __covrec_99D4B0D580C3027B                                      
00024b00  __covrec_600127B1C79F7943                                      
00024b28  __covrec_149E87FD6446C1FC                                      
00024b50  __covrec_39EEF341EC66D95B                                      
00024b78  __covrec_2EB659351EC73617                                      
00024ba0  __covrec_C2119B9785C3A10                                       
00024bc8  __covrec_23F7577DC4D82569                                      
00024bf0  __covrec_593C9AF47F3FDE2                                       
00024c18  __covrec_26F42A5A5BCDA10A                                      
00024c40  __covrec_45404D1F6F2BEFCB                                      
00024c68  __covrec_E341DC783B32CB13                                      
00024c90  __covrec_C168FF5FB57A84A5                                      
00024cb8  __covrec_C56ECB8A7D7DB4BC                                      
00024ce0  __covrec_27BF384D329EC88A                                      
00024d08  __covrec_67FD912FA8836D07                                      
00024d30  __covrec_3558F785F605D88F                                      
00024d58  __covrec_1B9584C28FC0AFC2                                      
00024d80  __covrec_BE9D84C99636729                                       
00024da8  __covrec_CF63A0E991DB00B8                                      
00024dd0  __covrec_6FBD421F6B4D497A                                      
00024df8  __covrec_2E4B0434598BD93                                       
00024e20  __covrec_DFF4FFAC2CDFA80B                                      
00024e48  __covrec_BC04788554EFCF00                                      
00024e70  __covrec_FB1C3EBF78E81EB4                                      
00024e98  __covrec_63CB8F149EE69A9B                                      
00024ec0  __covrec_53932CEBC899DEE8                                      
00024ee8  __covrec_7A1E5955D98B3365                                      
00024f10  __covrec_FBB328D41253AA63                                      
00024f38  __covrec_CCC6605FF76A91AA                                      
00024f60  __covrec_A639E7B6AA758902                                      
00024f88  __covrec_7484FA5328090C09                                      
00024fb0  __covrec_E5A782A6075FA69D                                      
00024fd8  __covrec_D13CD6508241F616                                      
00025000  __covrec_F0CE01E0D7ADECCD                                      
00025028  __covrec_9D7D9F2A3390F84A                                      
00025050  __covrec_A687C44D6F37972F                                      
00025078  __covrec_FA1A0CD252443CB9                                      
000250a0  __covrec_EA4CA2CD49150809                                      
000250c8  __covrec_C206B0185B8151D8                                      
000250f0  __covrec_2D879BBC981BFF03                                      
00025118  __covrec_50B415B8C394C00                                       
00025140  __covrec_91F3676C63BCF634                                      
00025168  __covrec_87CD4E00745F9F73                                      
00025190  __covrec_CD5B61048FB28BF6                                      
000251b8  __covrec_7AD1CB521B3DAFF3                                      
000251e0  __covrec_483FC22444BFA447                                      
00025208  __covrec_20F18CFE460A5282                                      
00025230  __covrec_B0C96A09A89F954B                                      
00025258  __covrec_9A519D51D30C4CF0                                      
00025280  __covrec_451CD9D66D6E5CF5                                      
000252a8  __covrec_DA3D6B82745A5886                                      
000252d0  __covrec_DCAE1D4F86680A6F                                      
000252f8  __covrec_B8D1A0FDCA208254                                      
00025320  __covrec_FA4E0605556B1FF8                                      
00025348  __covrec_910CBCBB828F55C9                                      
00025370  __covrec_FDC3E2FAEE0FE220                                      
00025398  __covrec_4584769AD081610C                                      
000253c0  __covrec_86E252CE056F25B7                                      
000253e8  __covrec_1BEEECB176BC9C86                                      
00025410  __covrec_4D50702C08A92B30                                      
00025438  __covrec_F5441364105C4831                                      
00025460  __covrec_DC54482443DF736C                                      
00025488  __covrec_F09FD1D9AFC1248F                                      
000254b0  __covrec_51FD324BB2EA1EAD                                      
000254d8  __covrec_4F9E886F0EF6E88                                       
00025500  __covrec_8598A37534AAD4EC                                      
00025528  __covrec_6894D1D8A6BE29D3                                      
00025550  __covrec_5D62FB58C058D1F0                                      
00025578  __covrec_6EE1FA9E8007035D                                      
000255a0  __covrec_4089DBE71E9CE11F                                      
000255c8  __covrec_F84476004A9419B5                                      
000255f0  __covrec_64D3AEA7DDAB5BC                                       
00025618  __covrec_E2C13D8CCB183096                                      
00025640  __covrec_F8622FA966D873E9                                      
00025668  __covrec_F4D6254BED3EB795                                      
00025690  __covrec_C0B4B5A0B3860D88                                      
000256b8  __covrec_CF5F1121EDD446E6                                      
000256e0  __covrec_9E601AC3F09F7726                                      
00025708  __covrec_2A04286C6F2B44A9                                      
00025730  __covrec_19E0C80C93FB9B9F                                      
00025758  __covrec_7DBDF2FBACAB5A71                                      
00025780  __covrec_68D58AC7A25A34D                                       
000257a8  __covrec_BF92C4D8EBAC5FDC                                      
000257d0  __covrec_F1F09D90BCEAFB4B                                      
000257f8  __covrec_DED0F8C98CB47FBA                                      
00025820  __covrec_D5C30172EA9E1071                                      
00025848  __covrec_92F0DE80E0B56981                                      
00025870  __covrec_11C4590D8150192A                                      
00025898  __covrec_1B8BAC043C9D5C93                                      
000258c0  __covrec_2EC93EBAD61B8A03                                      
000258e8  __covrec_51F2C7E1709396FD                                      
00025910  __covrec_66ED5F2BB6E03BEE                                      
00025938  __covrec_66AFAA273DD467EC                                      
00025960  __covrec_3C32DF1242EC602B                                      
00025988  __covrec_6C62E58E0AE56214                                      
000259b0  __covrec_2B3C2C957A277883                                      
000259d8  __covrec_22556AAF4832D8BF                                      
00025a00  __covrec_AAC0F00B2B04638E                                      
00025a28  __covrec_7BF1D83AB8F4CFBF                                      
00025a50  __covrec_2F89957B95D6972F                                      
00025a78  __covrec_2FD7E519CDA967C                                       
00025aa0  __covrec_BDBC2EC1D743310D                                      
00025ac8  __covrec_D404D1ACFA455982                                      
00025af0  __covrec_88FBF1FF9FE587F0                                      
00025b18  __covrec_A75BA7EC9EC97143                                      
00025b40  __covrec_4316F4BCB8B1A039                                      
00025b68  __covrec_690F210C4C3AEF6D                                      
00025b90  __covrec_EF761CE23D988177                                      
00025bb8  __covrec_6A28879D60B43C55                                      
10000000  interruptVectors                                               
10000121  TFT_Init                                                       
100065bf  __aeabi_ldiv0                                                  
100065c1  main                                                           
100075bb  _nop                                                           
100075bd  __TI_printfi_nofloat                                           
10007e01  TFT_SetAddressWindow                                           
1000820d  TFT_DrawChar                                                   
100085c5  TFT_ReadID                                                     
100088a9  strcmp                                                         
10008b7d  TFT_FillRect                                                   
10008e59  TFT_FillScreen                                                 
100090b1  TFT_ReadRegister                                               
100092d1  TFT_WriteData16                                                
100094cd  SYSCFG_DL_initPower                                            
1000961b  SYSCFG_DL_GPIO_init                                            
10009745  aligned_alloc                                                  
10009745  memalign                                                       
10009851  fputs                                                          
1000994d  free                                                           
10009a29  setvbuf                                                        
10009b01  SYSCFG_DL_SPI_1_init                                           
10009bcb  SYSCFG_DL_SYSCTL_init                                          
10009c7d  __udivmoddi4                                                   
10009d2d  memcpy                                                         
10009dc9  fputc                                                          
10009e51  __TI_decompress_lzss                                           
10009ec5  memset                                                         
10009f39  __TI_closefile                                                 
1000a015  fseeko                                                         
1000a07d  getdevice                                                      
1000a0e5  HOSTrename                                                     
1000a149  __TI_wrt_ok                                                    
1000a1a9  close                                                          
1000a209  printf                                                         
1000a269  HOSTlseek                                                      
1000a2c1  HOSTopen                                                       
1000a319  HOSTread                                                       
1000a36d  HOSTwrite                                                      
1000a3c1  __TI_doflush                                                   
1000a411  DL_SPI_init                                                    
1000a459  HOSTunlink                                                     
1000a49d  atoi                                                           
1000a4dd  HOSTclose                                                      
1000a519  sprintf                                                        
1000a551  __TI_auto_init_nobinit_nopinit                                 
1000a589  __TI_cleanup                                                   
1000a5bd  __TI_writemsg                                                  
1000a5e7  C$$IO$$                                                        
1000a5f1  __TI_readmsg                                                   
1000a621  exit                                                           
1000a651  SYSCFG_DL_init                                                 
1000a67d  finddevice                                                     
1000a6a9  lseek                                                          
1000a6d5  unlink                                                         
1000a701  write                                                          
1000a77d  DL_SPI_setClockConfig                                          
1000a7a5  _c_int00_noargs                                                
1000a7c9  memccpy                                                        
1000a7eb  Reset_Handler                                                  
1000a825  ADC0_DCOMP_IRQHandler                                          
1000a825  ADC0_SEQ0_IRQHandler                                           
1000a825  ADC0_SEQ1_IRQHandler                                           
1000a825  ADC0_SEQ2_IRQHandler                                           
1000a825  ADC0_SEQ3_IRQHandler                                           
1000a825  ADC1_DCOMP_IRQHandler                                          
1000a825  ADC1_SEQ0_IRQHandler                                           
1000a825  ADC1_SEQ1_IRQHandler                                           
1000a825  ADC1_SEQ2_IRQHandler                                           
1000a825  ADC1_SEQ3_IRQHandler                                           
1000a825  AESADVHP_IRQHandler                                            
1000a825  CANFD0_IRQHandler                                              
1000a825  CANFD1_IRQHandler                                              
1000a825  COMP0_IRQHandler                                               
1000a825  COMP1_IRQHandler                                               
1000a825  DEBUGSS_IRQHandler                                             
1000a825  DMA0_IRQHandler                                                
1000a825  DMA1_IRQHandler                                                
1000a825  Default_Handler                                                
1000a825  FLASHCTL_IRQHandler                                            
1000a825  GPIOA_IRQHandler                                               
1000a825  GPIOB_IRQHandler                                               
1000a825  GPIOC_IRQHandler                                               
1000a825  HardFault_Handler                                              
1000a825  I2S0_IRQHandler                                                
1000a825  I2S1_IRQHandler                                                
1000a825  LFSS_IRQHandler                                                
1000a825  NMI_Handler                                                    
1000a825  PKA_IRQHandler                                                 
1000a825  PendSV_Handler                                                 
1000a825  QSPI_IRQHandler                                                
1000a825  SHAW_IRQHandler                                                
1000a825  SVC_Handler                                                    
1000a825  SYSCTL_IRQHandler                                              
1000a825  SysTick_Handler                                                
1000a825  TIMA0_0_IRQHandler                                             
1000a825  TIMA0_1_IRQHandler                                             
1000a825  TIMG12_0_IRQHandler                                            
1000a825  TIMG4_0_IRQHandler                                             
1000a825  TIMG4_1_IRQHandler                                             
1000a825  TIMG4_2_IRQHandler                                             
1000a825  TIMG4_3_IRQHandler                                             
1000a825  TIMG8_0_IRQHandler                                             
1000a825  TIMG8_1_IRQHandler                                             
1000a825  TRNG_IRQHandler                                                
1000a825  UC0_IRQHandler                                                 
1000a825  UC10_IRQHandler                                                
1000a825  UC1_IRQHandler                                                 
1000a825  UC2_IRQHandler                                                 
1000a825  UC3_IRQHandler                                                 
1000a825  UC4_IRQHandler                                                 
1000a825  UC5_IRQHandler                                                 
1000a825  UC6_IRQHandler                                                 
1000a825  UC7_IRQHandler                                                 
1000a825  UC8_IRQHandler                                                 
1000a825  UC9_IRQHandler                                                 
1000a825  WWDT0_IRQHandler                                               
1000a857  DL_Common_delayCycles                                          
1000a86d  __aeabi_uldivmod                                               
1000a881  __TI_zero_init_nomemset                                        
1000a8a3  wcslen                                                         
1000a8dd  __TI_decompress_none                                           
1000a8ed  __aeabi_memset                                                 
1000a8ed  __aeabi_memset4                                                
1000a8ed  __aeabi_memset8                                                
1000a901  __aeabi_errno_addr                                             
1000a909  __aeabi_memclr                                                 
1000a909  __aeabi_memclr4                                                
1000a909  __aeabi_memclr8                                                
1000a911  malloc                                                         
1000a919  abort                                                          
1000a91e  C$$EXIT                                                        
1000a91f  HOSTexit                                                       
1000a925  __aeabi_memcpy                                                 
1000a925  __aeabi_memcpy4                                                
1000a925  __aeabi_memcpy8                                                
1000a931  _system_pre_init                                               
1000a935  fseek                                                          
1000a939  remove                                                         
1000ab20  __aeabi_ctype_table_                                           
1000ab20  __aeabi_ctype_table_C                                          
1000ad20  __TI_static_base__                                             
1000ad88  __TI_Handler_Table_Base                                        
1000ad94  __TI_Handler_Table_Limit                                       
1000ada8  __TI_CINIT_Base                                                
1000adc0  __TI_CINIT_Limit                                               
1000adc0  __TI_CINIT_Warm                                                
30000000  __start___llvm_prf_bits                                        
30000000  __stop___llvm_prf_bits                                         
30000000  _sys_memory                                                    
30000800  __start___llvm_prf_cnts                                        
300008f8  __profc_Default_Handler                                        
30000938  __profc_Reset_Handler                                          
30000940  __profc_SYSCFG_DL_GPIO_init                                    
30000948  __profc_SYSCFG_DL_SPI_1_init                                   
30000950  __profc_SYSCFG_DL_SYSCTL_init                                  
30000958  __profc_SYSCFG_DL_init                                         
30000960  __profc_SYSCFG_DL_initPower                                    
30000aa0  __stop___llvm_prf_cnts                                         
30000aa0  _ftable                                                        
30000b90  _device                                                        
30000c08  _stream                                                        
30000c58  __TI_cleanup_ptr                                               
30000c5c  __TI_dtors_ptr                                                 
30000c60  __TI_ft_end                                                    
30000c64  __aeabi_errno                                                  
30000c68  _lock                                                          
30000c6c  _unlock                                                        
30000c74  _CIOBUF_                                                       
30000c74  __CIOBUF_                                                      
30000d94  __TI_tmpnams                                                   
30000e34  parmbuf                                                        
3003fef8  __stack                                                        
3003fff8  __STACK_END                                                    
ffffffff  __TI_pprof_out_hndl                                            
ffffffff  __TI_prof_data_size                                            
ffffffff  __TI_prof_data_start                                           
ffffffff  __binit__                                                      
ffffffff  binit                                                          
UNDEFED   __mpu_init                                                     
UNDEFED   _system_post_cinit                                             

[4017 symbols]
