******************************************************************************
            TI ARM Clang Linker PC v4.0.3                      
******************************************************************************
>> Linked Tue Oct 14 11:03:23 2025

OUTPUT FILE NAME:   <gpio_toggle_output_LP_MSPM33C321A_nortos_ticlang.out>
ENTRY POINT SYMBOL: "_c_int00_noargs"  address: 100004bd


MEMORY CONFIGURATION

         name            origin    length      used     unused   attr    fill
----------------------  --------  ---------  --------  --------  ----  --------
  FLASH                 10000000   000fffff  00000570  000ffa8f  R  X
  SRAM                  30000000   0003ffff  00000198  0003fe67  RW X
  DATA                  80000000   00007fff  00000000  00007fff  R   
  BCR_CONFIG            80101800   000003ff  00000000  000003ff  R   
  BSL_CONFIG            80101c00   000003ff  00000000  000003ff  R   


SEGMENT ALLOCATION MAP

run origin  load origin   length   init length attrs members
----------  ----------- ---------- ----------- ----- -------
10000000    10000000    00000570   00000570    r-x
  10000000    10000000    00000120   00000120    r-- .intvecs
  10000120    10000120    00000430   00000430    r-x .text
  10000550    10000550    00000020   00000020    r-- .cinit
30000000    30000000    00000098   00000000    rw-
  30000000    30000000    00000098   00000000    rw- __llvm_prf_cnts
3003fef8    3003fef8    00000100   00000000    rw-
  3003fef8    3003fef8    00000100   00000000    rw- .stack


SECTION ALLOCATION MAP

 output                                  attributes/
section   page    origin      length       input sections
--------  ----  ----------  ----------   ----------------
.intvecs   0    10000000    00000120     
                  10000000    00000114     startup_mspm33c321x_ticlang.o (.intvecs)
                  10000114    0000000c     --HOLE-- [fill = 0]

.text      0    10000120    00000430     
                  10000120    000000c0     ti_msp_dl_config.o (.text.SYSCFG_DL_initPower)
                  100001e0    0000009c     libc.a : memcpy_t2.S.obj (.text:memcpy)
                  1000027c    0000007c     blink.o (.text.main)
                  100002f8    0000007a     ti_msp_dl_config.o (.text.SYSCFG_DL_GPIO_init)
                  10000372    00000076     ti_msp_dl_config.o (.text.SYSCFG_DL_SYSCTL_init)
                  100003e8    00000074     libc.a : copy_decompress_lzss.c.obj (.text:decompress:lzss)
                  1000045c    00000038            : autoinit.c.obj (.text:__TI_auto_init_nobinit_nopinit)
                  10000494    00000028     ti_msp_dl_config.o (.text.SYSCFG_DL_init)
                  100004bc    00000024     libc.a : boot_cortex_m.c.obj (.text:_c_int00_noargs)
                  100004e0    0000001c     startup_mspm33c321x_ticlang.o (.text.Reset_Handler)
                  100004fc    0000001a     startup_mspm33c321x_ticlang.o (.text.Default_Handler)
                  10000516    00000014     driverlib.a : dl_common.o (.text.DL_Common_delayCycles)
                  1000052a    0000000e     libc.a : copy_decompress_none.c.obj (.text:decompress:none)
                  10000538    00000006            : exit.c.obj (.text:abort)
                  1000053e    00000004     libsysbm.a : hostexit.c.obj (.text.HOSTexit)
                  10000542    00000002     --HOLE-- [fill = 0]
                  10000544    00000004     libclang_rt.builtins.a : aeabi_memcpy.S.obj (.text.__aeabi_memcpy)
                  10000548    00000004     libc.a : pre_init.c.obj (.text._system_pre_init)
                  1000054c    00000004     --HOLE-- [fill = 0]

.cinit     0    10000550    00000020     
                  10000550    00000009     (.cinit.__llvm_prf_cnts.load) [load image, compression = lzss]
                  10000559    00000003     --HOLE-- [fill = 0]
                  1000055c    00000008     (__TI_handler_table)
                  10000564    00000008     (__TI_cinit_table)
                  1000056c    00000004     --HOLE-- [fill = 0]

.init_array 
*          0    10000000    00000000     UNINITIALIZED

.binit     0    10000000    00000000     

.stack     0    3003fef8    00000100     UNINITIALIZED
                  3003fef8    00000004     libc.a : boot_cortex_m.c.obj (.stack)
                  3003fefc    000000fc     --HOLE--

__llvm_prf_cnts 
*          0    30000000    00000098     UNINITIALIZED
                  30000000    00000010     startup_mspm33c321x_ticlang.o (__llvm_prf_cnts.__profc_Default_Handler)
                  30000010    00000010     blink.o (__llvm_prf_cnts.__profc_main)
                  30000020    00000008     startup_mspm33c321x_ticlang.o (__llvm_prf_cnts.__profc_Reset_Handler)
                  30000028    00000008     ti_msp_dl_config.o (__llvm_prf_cnts.__profc_SYSCFG_DL_GPIO_init)
                  30000030    00000008     ti_msp_dl_config.o (__llvm_prf_cnts.__profc_SYSCFG_DL_SYSCTL_init)
                  30000038    00000008     ti_msp_dl_config.o (__llvm_prf_cnts.__profc_SYSCFG_DL_init)
                  30000040    00000008     ti_msp_dl_config.o (__llvm_prf_cnts.__profc_SYSCFG_DL_initPower)
                  30000048    00000008     blink.o (__llvm_prf_cnts.__profc_blink.c_DL_GPIO_clearPins)
                  30000050    00000008     blink.o (__llvm_prf_cnts.__profc_blink.c_DL_GPIO_setPins)
                  30000058    00000008     ti_msp_dl_config.o (__llvm_prf_cnts.__profc_ti_msp_dl_config.c_DL_Common_updateReg)
                  30000060    00000008     ti_msp_dl_config.o (__llvm_prf_cnts.__profc_ti_msp_dl_config.c_DL_GPIO_clearPins)
                  30000068    00000008     ti_msp_dl_config.o (__llvm_prf_cnts.__profc_ti_msp_dl_config.c_DL_GPIO_enableOutput)
                  30000070    00000008     ti_msp_dl_config.o (__llvm_prf_cnts.__profc_ti_msp_dl_config.c_DL_GPIO_enablePower)
                  30000078    00000008     ti_msp_dl_config.o (__llvm_prf_cnts.__profc_ti_msp_dl_config.c_DL_GPIO_initDigitalOutput)
                  30000080    00000008     ti_msp_dl_config.o (__llvm_prf_cnts.__profc_ti_msp_dl_config.c_DL_GPIO_reset)
                  30000088    00000008     ti_msp_dl_config.o (__llvm_prf_cnts.__profc_ti_msp_dl_config.c_DL_SYSCTL_setBORThreshold)
                  30000090    00000008     ti_msp_dl_config.o (__llvm_prf_cnts.__profc_ti_msp_dl_config.c_DL_SYSCTL_setSYSOSCFreq)

__llvm_prf_bits 
*          0    30000000    00000000     UNINITIALIZED

MODULE SUMMARY

       Module                          code   ro data   rw data
       ------                          ----   -------   -------
    .\
       ti_msp_dl_config.o              472    0         96     
       startup_mspm33c321x_ticlang.o   54     276       24     
       blink.o                         124    0         32     
    +--+-------------------------------+------+---------+---------+
       Total:                          650    276       152    
                                                               
    C:/ti/mspm33_sdk_1_00_00_00_internal/source/ti/driverlib/lib/ticlang/m33/mspm33c321x/driverlib.a
       dl_common.o                     20     0         0      
    +--+-------------------------------+------+---------+---------+
       Total:                          20     0         0      
                                                               
    C:\ti\ccs2030\ccs\tools\compiler\ti-cgt-armllvm_4.0.3.LTS\lib\armv8m.main-ti-none-eabi/c/libc.a
       memcpy_t2.S.obj                 156    0         0      
       copy_decompress_lzss.c.obj      116    0         0      
       autoinit.c.obj                  56     0         0      
       boot_cortex_m.c.obj             36     0         0      
       copy_decompress_none.c.obj      14     0         0      
       exit.c.obj                      6      0         0      
       pre_init.c.obj                  4      0         0      
    +--+-------------------------------+------+---------+---------+
       Total:                          388    0         0      
                                                               
    C:\ti\ccs2030\ccs\tools\compiler\ti-cgt-armllvm_4.0.3.LTS\lib\armv8m.main-ti-none-eabi/c/libsysbm.a
       hostexit.c.obj                  4      0         0      
    +--+-------------------------------+------+---------+---------+
       Total:                          4      0         0      
                                                               
    C:\ti\ccs2030\ccs\tools\compiler\ti-cgt-armllvm_4.0.3.LTS\lib\armv8m.main-ti-none-eabi/libclang_rt.builtins.a
       aeabi_memcpy.S.obj              4      0         0      
    +--+-------------------------------+------+---------+---------+
       Total:                          4      0         0      
                                                               
       Stack:                          0      0         256    
       Linker Generated:               0      25        0      
    +--+-------------------------------+------+---------+---------+
       Grand Total:                    1066   301       408    


LINKER GENERATED COPY TABLES

__TI_cinit_table @ 10000564 records: 1, size/record: 8, table size: 8
	__llvm_prf_cnts: load addr=10000550, load size=00000009 bytes, run addr=30000000, run size=00000098 bytes, compression=lzss


LINKER GENERATED HANDLER TABLE

__TI_handler_table @ 1000055c records: 2, size/record: 4, table size: 8
	index: 0, handler: __TI_decompress_lzss
	index: 1, handler: __TI_decompress_none


GLOBAL SYMBOLS: SORTED ALPHABETICALLY BY Name 

address   name                                                
-------   ----                                                
100004fd  ADC0_DCOMP_IRQHandler                               
100004fd  ADC0_SEQ0_IRQHandler                                
100004fd  ADC0_SEQ1_IRQHandler                                
100004fd  ADC0_SEQ2_IRQHandler                                
100004fd  ADC0_SEQ3_IRQHandler                                
100004fd  ADC1_DCOMP_IRQHandler                               
100004fd  ADC1_SEQ0_IRQHandler                                
100004fd  ADC1_SEQ1_IRQHandler                                
100004fd  ADC1_SEQ2_IRQHandler                                
100004fd  ADC1_SEQ3_IRQHandler                                
100004fd  AESADVHP_IRQHandler                                 
1000053e  C$$EXIT                                             
100004fd  CANFD0_IRQHandler                                   
100004fd  CANFD1_IRQHandler                                   
100004fd  COMP0_IRQHandler                                    
100004fd  COMP1_IRQHandler                                    
100004fd  DEBUGSS_IRQHandler                                  
10000517  DL_Common_delayCycles                               
100004fd  DMA0_IRQHandler                                     
100004fd  DMA1_IRQHandler                                     
100004fd  Default_Handler                                     
100004fd  FLASHCTL_IRQHandler                                 
100004fd  GPIOA_IRQHandler                                    
100004fd  GPIOB_IRQHandler                                    
100004fd  GPIOC_IRQHandler                                    
1000053f  HOSTexit                                            
100004fd  HardFault_Handler                                   
100004fd  I2S0_IRQHandler                                     
100004fd  I2S1_IRQHandler                                     
100004fd  LFSS_IRQHandler                                     
100004fd  NMI_Handler                                         
100004fd  PKA_IRQHandler                                      
100004fd  PendSV_Handler                                      
100004fd  QSPI_IRQHandler                                     
100004e1  Reset_Handler                                       
100004fd  SHAW_IRQHandler                                     
100004fd  SVC_Handler                                         
100002f9  SYSCFG_DL_GPIO_init                                 
10000373  SYSCFG_DL_SYSCTL_init                               
10000495  SYSCFG_DL_init                                      
10000121  SYSCFG_DL_initPower                                 
100004fd  SYSCTL_IRQHandler                                   
100004fd  SysTick_Handler                                     
100004fd  TIMA0_0_IRQHandler                                  
100004fd  TIMA0_1_IRQHandler                                  
100004fd  TIMG12_0_IRQHandler                                 
100004fd  TIMG4_0_IRQHandler                                  
100004fd  TIMG4_1_IRQHandler                                  
100004fd  TIMG4_2_IRQHandler                                  
100004fd  TIMG4_3_IRQHandler                                  
100004fd  TIMG8_0_IRQHandler                                  
100004fd  TIMG8_1_IRQHandler                                  
100004fd  TRNG_IRQHandler                                     
100004fd  UC0_IRQHandler                                      
100004fd  UC10_IRQHandler                                     
100004fd  UC1_IRQHandler                                      
100004fd  UC2_IRQHandler                                      
100004fd  UC3_IRQHandler                                      
100004fd  UC4_IRQHandler                                      
100004fd  UC5_IRQHandler                                      
100004fd  UC6_IRQHandler                                      
100004fd  UC7_IRQHandler                                      
100004fd  UC8_IRQHandler                                      
100004fd  UC9_IRQHandler                                      
100004fd  WWDT0_IRQHandler                                    
3003fff8  __STACK_END                                         
00000100  __STACK_SIZE                                        
00000000  __TI_ATRegion0_region_sz                            
00000000  __TI_ATRegion0_src_addr                             
00000000  __TI_ATRegion0_trg_addr                             
00000000  __TI_ATRegion1_region_sz                            
00000000  __TI_ATRegion1_src_addr                             
00000000  __TI_ATRegion1_trg_addr                             
00000000  __TI_ATRegion2_region_sz                            
00000000  __TI_ATRegion2_src_addr                             
00000000  __TI_ATRegion2_trg_addr                             
10000564  __TI_CINIT_Base                                     
1000056c  __TI_CINIT_Limit                                    
1000056c  __TI_CINIT_Warm                                     
1000055c  __TI_Handler_Table_Base                             
10000564  __TI_Handler_Table_Limit                            
1000045d  __TI_auto_init_nobinit_nopinit                      
100003e9  __TI_decompress_lzss                                
1000052b  __TI_decompress_none                                
ffffffff  __TI_pprof_out_hndl                                 
ffffffff  __TI_prof_data_size                                 
ffffffff  __TI_prof_data_start                                
10000550  __TI_static_base__                                  
10000545  __aeabi_memcpy                                      
10000545  __aeabi_memcpy4                                     
10000545  __aeabi_memcpy8                                     
ffffffff  __binit__                                           
00004b58  __covrec_101D7AD5CD1F21E7                           
000083e8  __covrec_1038EB58730FD48B                           
0001d410  __covrec_1067EFD43AC4737C                           
00016368  __covrec_106C0A8F47E4EBF5                           
000005d0  __covrec_106FBD1B4BD32CAC                           
00012a10  __covrec_107802700ECD7C02                           
0001d5f0  __covrec_107B128032F6DB3F                           
000207c8  __covrec_10824BD04F6231E0                           
000028d0  __covrec_109FB62289BD602B                           
00006908  __covrec_10A8EDBD7725E4C4                           
000192e8  __covrec_10ACAC719BF92A02                           
00006818  __covrec_10BC67A46C6BA4E1                           
0000be30  __covrec_10C156195D5FF38D                           
0000f120  __covrec_10C5D299B45023A7                           
000191a8  __covrec_10D7C14A5E1269A                            
00013168  __covrec_10D83D798DF85215                           
00021f10  __covrec_10DD02304F236F5B                           
0000f648  __covrec_10FE96CA7F74C8D3                           
0000db68  __covrec_110470EA4E630670                           
0000c380  __covrec_1110D355F864FCE7                           
0001ec98  __covrec_1129F9D0907743CC                           
000107c8  __covrec_114DF3CD24AB0DD6                           
00023770  __covrec_11548A0C371099D9                           
0000e798  __covrec_11781F62243E51DE                           
00020200  __covrec_1179DC1F40DF19BB                           
0001fdf0  __covrec_117A6AE779833FFF                           
00004c48  __covrec_117BD7CDED6D0222                           
0001f828  __covrec_119935E492C58911                           
00008d98  __covrec_11B7661F647265EF                           
00010f70  __covrec_11CCE926D1DAC2F9                           
0000ff30  __covrec_11DF4A44D85F4DF6                           
00017240  __covrec_11E4D0BB9C3E8C30                           
0000f5a8  __covrec_11EC53A6105E36FA                           
000242d8  __covrec_11F13472B68456                             
0000dd70  __covrec_120CDBEDF9A0A8FB                           
0000e928  __covrec_12229EF93006C0C6                           
0000cd58  __covrec_123EB8C578FD193B                           
0000f918  __covrec_123F45FD61E08121                           
00017998  __covrec_1267B4521C0A50E3                           
00005a80  __covrec_1270D38127654F8B                           
00000828  __covrec_1279EB38C65A9C81                           
00009090  __covrec_129D40AB2FC1D69A                           
00005c38  __covrec_129F94317DA7F30                            
0001ae68  __covrec_12A84A218C9DEA06                           
000249e0  __covrec_12B18424C859DF9D                           
0001ee78  __covrec_12B33D9FCAB5C7F6                           
0001f170  __covrec_12BA5CE176C32DDC                           
0000f030  __covrec_12C0351F1D4A27D9                           
00006110  __covrec_12D287B1D1EA8674                           
00008ca8  __covrec_12D78B30B5B7617A                           
00002678  __covrec_12E34682498B0B72                           
0000d668  __covrec_12FB7772134BB406                           
00012c90  __covrec_1313DC5687DCCBE4                           
0001a7b0  __covrec_13150132607A5180                           
00019748  __covrec_1317F30DAB07CEFD                           
00008118  __covrec_1317FD1781CC6A2C                           
00011e70  __covrec_131A8C62578FD3BF                           
0001f0d0  __covrec_132818003A70A7AF                           
0001ab48  __covrec_133B487217BB2E5A                           
00015238  __covrec_133E6E5754396960                           
0000dbe0  __covrec_1341E8EC7B05D348                           
00024148  __covrec_134F21299CF91075                           
0000b930  __covrec_1356A4438101A4BA                           
000234c8  __covrec_13672E230F457DC9                           
00024238  __covrec_13941B1E936B73E2                           
0000d438  __covrec_13A722056043017C                           
0000ec98  __covrec_13B2AC272D44B342                           
00008be0  __covrec_13B3010E9D4F59A0                           
000011b0  __covrec_13C06AA66973640C                           
00001c00  __covrec_13D2FC1D8D22F2CC                           
00019158  __covrec_1409994ABADCA9DB                           
00016638  __covrec_140C87832FFAF923                           
0001b048  __covrec_14465F9D45D58042                           
00012398  __covrec_148D9A2319AC213B                           
000196d0  __covrec_149ACD14E0572626                           
00009d10  __covrec_14A6DC76ABD3128C                           
00005df0  __covrec_14AA3B7ABB91D212                           
00006430  __covrec_14AD27DAB44290B3                           
00002d08  __covrec_14BDA604853DFA10                           
00021308  __covrec_14C7D3D01E57A504                           
0001a5a8  __covrec_14C92017E2A5AC67                           
000179c0  __covrec_14D1DCA4E67C18C5                           
000115d8  __covrec_14D3A38ADC7E8368                           
0000b700  __covrec_14DB6DEE3873BAB3                           
00020840  __covrec_14FA4B69117446C1                           
00020890  __covrec_14FF88AAFCD7D57D                           
00022cd0  __covrec_150B89D347BC7E6E                           
00001110  __covrec_151F220D67DF3059                           
00019478  __covrec_1528E95DCB01A67C                           
000132d0  __covrec_153C71C9353F6537                           
00022f28  __covrec_1540C2C144B9922B                           
00016ed0  __covrec_15599278F6628FD9                           
00001228  __covrec_155ADAEE4A3C67F4                           
00006570  __covrec_15622BEB7C318D21                           
00020048  __covrec_15699B8DF7CF109F                           
00023e00  __covrec_157321A8C10AC04E                           
0001bca0  __covrec_15A6988EB176291B                           
0000a8c8  __covrec_15AE6051F35A213B                           
0001e9a0  __covrec_15B0477F91E5A15B                           
000249b8  __covrec_15D8AD984765CE7C                           
00001278  __covrec_15DC9CBFDAF32061                           
00005198  __covrec_15E4CDCB5EB4F3D4                           
00018ac8  __covrec_15E9C88B8913D74B                           
0001a6e8  __covrec_15EBD46F714DA966                           
0001e248  __covrec_1607E55D10EC504D                           
0001dc80  __covrec_161C5CCBB18E3472                           
0001c3a8  __covrec_162CFD0A1B796938                           
0001bc28  __covrec_163C92947DFA7B45                           
0000d5c8  __covrec_163DF186A631F368                           
0001daf0  __covrec_1658A1CFEC8A9371                           
000227a8  __covrec_16674943AE982D61                           
00012a38  __covrec_166C82B5B146B5D7                           
000014d0  __covrec_166F1AF22F7E2C0C                           
000055a8  __covrec_16798DAE29A6728C                           
0000be80  __covrec_167C8B35F4ADBEFA                           
00017330  __covrec_168493D43873B111                           
0001a058  __covrec_16A0659A24000E67                           
00010b10  __covrec_16A2F9143DB29852                           
00021ec0  __covrec_16BDE21014ED2C1                            
0001a1c0  __covrec_16D434825183503F                           
0001ba98  __covrec_16D70E5A69A3760A                           
0001c600  __covrec_16EB4AA73251958E                           
00014130  __covrec_16F02D052FF565BE                           
00017308  __covrec_1707DC81A21DBC1C                           
0001dfc8  __covrec_171317B20F4BC1DB                           
00013398  __covrec_172B59B25D72358A                           
00017790  __covrec_17302E52AA89C0CD                           
0001fa30  __covrec_17309D8202C86DB3                           
0001d578  __covrec_1740AFC189A8EDA2                           
00013690  __covrec_174915AB4E2EDF5C                           
00016f20  __covrec_174F15FCCDC74864                           
00000cb0  __covrec_1755ACCADDE2ADE2                           
00024a30  __covrec_1759666B8765F80D                           
00008140  __covrec_177C43FE745EB825                           
000033c0  __covrec_177E454A53552891                           
0001dca8  __covrec_1796D1C61F0D17A8                           
00002fb0  __covrec_17C6694668EA5AC3                           
000102f0  __covrec_17C744CC31D4D421                           
0001d500  __covrec_17DAEC6AFA72F54C                           
00013aa0  __covrec_17E07C5FF5F82422                           
0001a9e0  __covrec_17E08951EDF009B4                           
00002b78  __covrec_17E6A0EBA1760BB8                           
0001bef8  __covrec_17F1308C877F8432                           
0000d3c0  __covrec_17F8E9CABBEF06E7                           
0000e9f0  __covrec_17F963AB32CA4FE2                           
00013438  __covrec_17F9955224B25587                           
00004cc0  __covrec_1820A44D584DEF75                           
00005c10  __covrec_1824871B460CA334                           
00002e20  __covrec_182B8B029510F629                           
00019b30  __covrec_182EBC3292D8B057                           
00003f00  __covrec_1872965C19E53D15                           
00019568  __covrec_1881D5B34314DF64                           
0001b278  __covrec_18A4EB207556A42C                           
00022438  __covrec_18ABC13FAC28025C                           
00022de8  __covrec_18AC38AE70A94599                           
00017858  __covrec_18ACAD82B94D6601                           
000177b8  __covrec_18ACCAC5D58EF3D4                           
00004450  __covrec_18B090C97B6E0500                           
0001a5d0  __covrec_18C79462758238BA                           
0001f620  __covrec_18C7DFC85F74DF88                           
000000f8  __covrec_18CB9EF68833044u                           
00019c20  __covrec_18DDFB0FE08ED969                           
00002c90  __covrec_19005C1DF6B253C1                           
00010048  __covrec_190629809904F076                           
0001b4a8  __covrec_1908F0908D2CBF18                           
00019e78  __covrec_191831FA0CEE1893                           
00016ae8  __covrec_192A7CE8DD30AE20                           
0000b250  __covrec_192B699B2B42C444                           
00019b80  __covrec_1930B2CB90352D46                           
00000698  __covrec_1954B3AEC47397EF                           
00010138  __covrec_19A1896E038C7DD5                           
0001f238  __covrec_19B8727C1D4ABDAE                           
0000ea40  __covrec_19BCAF8D097C46DD                           
00021740  __covrec_19E75B9307F97AB0                           
00021d80  __covrec_19F06ABB5A28AA72                           
0001c948  __covrec_19FA784ADD838849                           
00003b18  __covrec_1A00969098F4224A                           
000238b0  __covrec_1A0F7EC2AC44F654                           
0001b318  __covrec_1A22B483B14D442                            
000050a8  __covrec_1A31150D8176ABFA                           
00013b18  __covrec_1A3FA77D293B3485                           
00023f90  __covrec_1A4544BED21CEB2C                           
000026c8  __covrec_1A63E06A5352E3CC                           
00008b40  __covrec_1A646CA9748EDB0C                           
0001c498  __covrec_1A6E887ACACAFF76                           
00008938  __covrec_1A7F2303B42046F8                           
0000cf60  __covrec_1ADA6098EFAC29C8                           
00014ec8  __covrec_1AE60D0DA8D77CF0                           
00002f38  __covrec_1AF36DF059A3AD37                           
0001b818  __covrec_1AF6215EE93D46D6                           
00021948  __covrec_1AFE6ECE1BD6F5C2                           
0001abe8  __covrec_1AFE76699DCE6D3D                           
0001a558  __covrec_1B0D2750B34B1703                           
00003348  __covrec_1B195569B99A4E21                           
000049f0  __covrec_1B6039F89FCDB1DE                           
00004f40  __covrec_1B62C2F7F2CFC0D6                           
0000e6a8  __covrec_1B69184597CDB5                             
00016318  __covrec_1B9CA30A65B78731                           
00011790  __covrec_1BB36A6A6DA4D17A                           
000134b0  __covrec_1BC9AF92F5A17ABA                           
0001d640  __covrec_1BD34071CFA619DA                           
000068e0  __covrec_1BE3021FE05BF3BD                           
00024a80  __covrec_1BEE14838B08B7EA                           
0000da28  __covrec_1BEE15CBA2D54933                           
00005b48  __covrec_1BFC824417740B44                           
0001e748  __covrec_1BFF9732B2DAF38C                           
00004540  __covrec_1C54EF15B9D8B63D                           
0000e428  __covrec_1C6519B00F9C4D5A                           
00001a98  __covrec_1C6DF580FDBD96AA                           
00005378  __covrec_1C74D0C9D64F6DD1                           
00019a68  __covrec_1CA1AE9514CE36B4                           
00024008  __covrec_1CABCD001BB8A2D4                           
00013f28  __covrec_1CC14C8A376E03E3                           
00003fa0  __covrec_1CC64667D520CF78                           
00020638  __covrec_1CD6F65EDB220D52                           
00019f40  __covrec_1CE8FD9CC832CE68                           
0000e770  __covrec_1CEA2E328AA70A5B                           
00000c10  __covrec_1CF4646B205A9FF0                           
00022410  __covrec_1D03C489628EC74D                           
0001b368  __covrec_1D1393F256C668B4                           
000031e0  __covrec_1D4017870F54F401                           
0000f440  __covrec_1D47A9FE18580AF8                           
00016e58  __covrec_1D5453C0FE32606E                           
0000ce48  __covrec_1D58190537E3CFC3                           
00001fe8  __covrec_1D68D76C51C8264                            
00020a20  __covrec_1D69454E4585F9FA                           
00018d48  __covrec_1D8009E1123EFE18                           
0000b890  __covrec_1D9749F129EAD7ED                           
00017010  __covrec_1DA2DF1D9481285F                           
0000ba20  __covrec_1DB8EFF5C1EC663C                           
0001fad0  __covrec_1DBD55CB071CE798                           
00009928  __covrec_1DC54CDADD288D5C                           
0000a738  __covrec_1DCBF9D97AAE5C9C                           
00011e98  __covrec_1DFF9AD33F426A1E                           
00008820  __covrec_1E125F2EDD4F5B10                           
0000cd80  __covrec_1E2E4201513B70B2                           
00008fc8  __covrec_1E52F16D7720D4E7                           
000074e8  __covrec_1E5603FECA1E1A8E                           
0001f648  __covrec_1E5D0BA266A05409                           
0000e8d8  __covrec_1E71116FA83D460E                           
00020408  __covrec_1E967D82AE57104C                           
0001fd28  __covrec_1EB10222D35B87B9                           
00021fd8  __covrec_1EC243A73359BD5F                           
00023180  __covrec_1ED2390858C3EB64                           
00020ac0  __covrec_1EE4D15989A2B4E4                           
00011380  __covrec_1EF06040FF9A6CE1                           
0001daa0  __covrec_1EF1FB822FC56A69                           
00007ad8  __covrec_1EF97DE3B5D220E4                           
000063b8  __covrec_1F22DD1C959C91ED                           
0000eae0  __covrec_1F322E02CCAFCD19                           
0001a7d8  __covrec_1F323AB5CF4D4A72                           
00015490  __covrec_1F4169E57C49DBAC                           
000222a8  __covrec_1F54DD07CE6E3CC3                           
000183e8  __covrec_1F81DC0331A088EE                           
0000e9a0  __covrec_1F8F92C492321EC2                           
0001c0b0  __covrec_1F9CF73C50D6AB19                           
0000f148  __covrec_1FB714EAEB0C2680                           
0001f738  __covrec_1FC1559D82C02D42                           
0000ad28  __covrec_1FF148111818E899                           
000112e0  __covrec_200F03983A93B724                           
00022b90  __covrec_201277E0AA6EE9F3                           
00003960  __covrec_201817040F60CC63                           
00007ce0  __covrec_2018D0000D49AFFA                           
00007f60  __covrec_201BD6063BBF692E                           
00020318  __covrec_2046BE57FB3E054C                           
00018f50  __covrec_20502D4EF27C8C51                           
000076a0  __covrec_20639EFE5768C3A2                           
00018de8  __covrec_208E88AD446ED6FF                           
0000de60  __covrec_20938AE362B3035                            
000009e0  __covrec_2095F8ED47FA2B8E                           
00008898  __covrec_20A8AEAB0FB7E85F                           
0001c880  __covrec_20C5FBED395A9EDE                           
00010ed0  __covrec_20D1F53B41F4F4F                            
00003c08  __covrec_20D45F1C1B0DCBF4                           
00006e08  __covrec_20D8102C0F82A672                           
0000c4c0  __covrec_20DFD31670A46363                           
0001c448  __covrec_20F4440F1638C2A5                           
00010700  __covrec_20FA208D99FB8250                           
0001e090  __covrec_212223448B5B81B9                           
0000d398  __covrec_214B7FF2F70B9A96                           
0000e3b0  __covrec_215F044CC7672678                           
00020098  __covrec_216718CA83AD3AF2                           
0001f710  __covrec_2175477B7920D59E                           
00019018  __covrec_217DB9DBC67C1EFE                           
0000eec8  __covrec_2185F92B9C3E5BAF                           
000118a8  __covrec_218A031C18D395B                            
0000d2d0  __covrec_219190D4F77683FE                           
0001bfe8  __covrec_219DAFA81AFAA2FB                           
0000b1d8  __covrec_21A906EE96F4D83                            
00005120  __covrec_21B93DD5F55307D7                           
00020250  __covrec_21D48F08684C7774                           
0000cba0  __covrec_21D597CC8605C935                           
0000ab20  __covrec_21E4DD6FCD2569FE                           
00002588  __covrec_21F8331B37F355A3                           
00001200  __covrec_220EB616F014858A                           
000248a0  __covrec_222CA9EC1B745CD9                           
00019f90  __covrec_2239F1A9CC961427                           
00008a00  __covrec_224D6AD422EC06A9                           
00018028  __covrec_2286D5FF0FC802ED                           
0001e9c8  __covrec_228B4DCEDE67C9E2                           
00017ab0  __covrec_22AA610D5E826481                           
000131b8  __covrec_22D092EAE16D02EF                           
00022fa0  __covrec_22E2236BC99304F9                           
00000378  __covrec_22E3EDC592CCE64A                           
00018d20  __covrec_22F1260B2ECCC08F                           
0001cd80  __covrec_22F2AD01BBE54AC3                           
00006408  __covrec_23071AE42576F880                           
00004c70  __covrec_230C8126DDCE4055                           
000191d0  __covrec_230E01EBA14683DA                           
00001fc0  __covrec_23305BD9D99395D7                           
0000bca0  __covrec_2336F440E54F8423                           
00001d90  __covrec_233A7BFC175F361D                           
0000e680  __covrec_2346BFE42F6F6558                           
00014298  __covrec_2356CFAA058BDA63                           
0000ad50  __covrec_239882757F2C71CD                           
0000a698  __covrec_2399BFF2B2C79A27                           
00015d50  __covrec_23A2723218FB953F                           
0000a1c0  __covrec_23A46A9976AAC318                           
000120c8  __covrec_23B908501499F1C3                           
00022c80  __covrec_23BA94AFA28E8B44                           
000182a8  __covrec_23BDC91C28D00DEB                           
0000ad00  __covrec_23DFCA457C136F68                           
000130c8  __covrec_2429638F3104CEC6                           
00011e20  __covrec_242B3053019705CC                           
0000c970  __covrec_2436C0B58D2C054A                           
00014108  __covrec_245CEEBD24015B1F                           
0001e658  __covrec_245EBA72A5A0F5EB                           
00001e30  __covrec_2472237B4D7BA73B                           
00008708  __covrec_248CE10267CDF42E                           
0000cb50  __covrec_2499694F1FAFF322                           
0000af58  __covrec_24A738CF15DF1A1E                           
00014b08  __covrec_24C869B71C1745EC                           
0001d9b0  __covrec_24CD7D1265135F07                           
0001d820  __covrec_24D4168F36768F8A                           
00013280  __covrec_24D80F5FFDB3B16                            
00016598  __covrec_24DBDAA504A8EB                             
0001a120  __covrec_24DC5A464E150DEB                           
000044f0  __covrec_251446D4DB5BA0F                            
00007308  __covrec_251AC1BAAF70978                            
000243f0  __covrec_2548E4241C41D4AC                           
00001020  __covrec_25589AEB54999A95                           
000165e8  __covrec_25644B6D8D9339A2                           
0000bae8  __covrec_2572A5DE118464FB                           
00011830  __covrec_25831A646804D08                            
00009ae0  __covrec_2588EBE00D582DBD                           
000184b0  __covrec_2597CFE535DF7925                           
00014fe0  __covrec_259FE72B02F982E3                           
0000dc30  __covrec_25A4B5D15264BBAB                           
00016278  __covrec_25B72A3D7BD5840F                           
00023590  __covrec_25D863D26F29F221                           
000173d0  __covrec_25E129209C6D6E08                           
00012e20  __covrec_260485F951D8CFA2                           
0000b548  __covrec_2637454506591008                           
0000dd48  __covrec_2650CA825C881156                           
000146a8  __covrec_2662EFE42B16DEE1                           
0000ffa8  __covrec_268EF44671D87F36                           
00009f18  __covrec_268FED8287120A5F                           
00003ca8  __covrec_26A033CE85860DD8                           
00022f00  __covrec_26BDD9085FF96DA5                           
000030f0  __covrec_26C8977D61E9CA27                           
00022370  __covrec_26F7BD59BDABA46                            
00009b08  __covrec_2702C1420258A632                           
00008a78  __covrec_27678FA5BC56B6BD                           
00024558  __covrec_276B3C7F132E7949                           
0000f0d0  __covrec_2779926C79411405                           
00023a40  __covrec_278B19F5D60C3947                           
000010c0  __covrec_278D20B54B3B5916                           
0000ab98  __covrec_2796CEB562E840FB                           
00010778  __covrec_27B8CECD2051FC44                           
00017e98  __covrec_27F653CEA4118248                           
0000fcb0  __covrec_27FF9B63651F6939                           
0000fd00  __covrec_280AB4734E0EADD4                           
00015620  __covrec_280C086A8D3E033A                           
0000fa30  __covrec_284A9671018EDCF0                           
00009568  __covrec_286998E54EC7CE49                           
0000cfd8  __covrec_28780F12580BD926                           
000061b0  __covrec_28A1F0E2E79273D5                           
0000d488  __covrec_28C3515B27F2A28D                           
0001e1f8  __covrec_28CAF5403BA112D7                           
0000c560  __covrec_28F32414B479DBD3                           
000008f0  __covrec_291BFE9C88E5AC02                           
0000c880  __covrec_29258D52205E89C7                           
000004b8  __covrec_292C7EA4CC5F897D                           
00006a48  __covrec_294162901DC95F3D                           
00007c68  __covrec_294C567624BF176F                           
0000c268  __covrec_2967732FFBAA2755                           
00000b20  __covrec_296806BE07101057                           
00003640  __covrec_29794F29E9B7EDB7                           
000098b0  __covrec_297B80CEAB36675B                           
0001e3d8  __covrec_299EDB45E19271B                            
00019090  __covrec_29CB61A807DB331C                           
0000d988  __covrec_29DA12F55100078D                           
00004dd8  __covrec_29F7FDEE528B646                            
00023ae0  __covrec_29FD4C6F37BB673F                           
0001dbb8  __covrec_2A1CAF1263274BD9                           
0000e888  __covrec_2A3036EF70882451                           
0000ef40  __covrec_2A33AEB69F56FB48                           
00007588  __covrec_2A44FCBDF20489DA                           
00009270  __covrec_2A45F8922E45D8AE                           
00013fa0  __covrec_2A5F24567CA81B28                           
00023298  __covrec_2A658EA1206C62D6                           
00011d08  __covrec_2A70D24F190F6A5                            
00016cc8  __covrec_2A736453A4775CC3                           
00002df8  __covrec_2A7FB660AD53947F                           
00005558  __covrec_2A8A9BB12950205                            
00013c30  __covrec_2A8B557658325237                           
000242b0  __covrec_2A91C3E5F45518F9                           
00006160  __covrec_2AA255741AD002EC                           
00003690  __covrec_2AA3A65C5BBFE5AE                           
00007628  __covrec_2AD7D25310F1B76E                           
00012c40  __covrec_2ADD8BD0BF6DAA7F                           
00007f88  __covrec_2AEC527EE24ED251                           
0001f580  __covrec_2AFC953AB3BFA4B3                           
00017718  __covrec_2B07AC81363554B8                           
000077b8  __covrec_2B0B4F27C457F058                           
0001ebd0  __covrec_2B3D97B203BD5320                           
00009680  __covrec_2B502882FFA47B28                           
00018820  __covrec_2B5FFCF4F8CB86BC                           
000199f0  __covrec_2B68E5DDE2E9662B                           
0000f490  __covrec_2B9AC5C2B37A3405                           
00015468  __covrec_2B9D588B68FFC9FD                           
00013028  __covrec_2B9ED78528214928                           
000002d8  __covrec_2BAF348C00DA3A1C                           
00005968  __covrec_2BB2097F3005F291                           
000045b8  __covrec_2BC20A3657257F58                           
00000580  __covrec_2BC73A067C042768                           
0001b750  __covrec_2BE6C0B46C211135                           
00000be8  __covrec_2BE95002FF4967F8                           
000112b8  __covrec_2BFF562126C37FA8                           
000234f0  __covrec_2C177686F2932C2C                           
00019040  __covrec_2C5B3AD84DE89A09                           
0000d0f0  __covrec_2CB4FBDD458B5DD4                           
00006cc8  __covrec_2CB9BAC8D406BE26                           
0000f4b8  __covrec_2CCC94B071C61EE9                           
00007768  __covrec_2CE271A28D69F08D                           
000194a0  __covrec_2D0041D38F4C7BA8                           
00013cd0  __covrec_2D13BBFC3A449323                           
0000c038  __covrec_2D19885EF7471B2                            
00021718  __covrec_2D1E6856B3061151                           
00023f68  __covrec_2D2B2BAF1BAC8BDA                           
00010868  __covrec_2D38881098A5E25F                           
0001c218  __covrec_2D3B4279E82844EA                           
0000f760  __covrec_2D426BF12E84885D                           
000236f8  __covrec_2D4D821B616E6924                           
00004130  __covrec_2D5C314E3B4A5A86                           
00014450  __covrec_2D61228427B0BF14                           
000079c0  __covrec_2D6D2A9BF384BBF8                           
000238d8  __covrec_2D723378264E6A7                            
0001fee0  __covrec_2D7A7904D991C2E0                           
0000ea18  __covrec_2D86310FB40618D7                           
00021d58  __covrec_2D8A3E6347FF950C                           
0001cb00  __covrec_2D99555663CB507E                           
0001d028  __covrec_2DA3C7F5F3A1833F                           
00005ff8  __covrec_2DA718EB5D26722E                           
0000fb98  __covrec_2DB82F50F5794C5                            
000150f8  __covrec_2DD25A1E0605CEF0                           
000201b0  __covrec_2DDC7AACECA4585A                           
000220c8  __covrec_2DECA8561F707322                           
0001aa30  __covrec_2DF772145F02FC49                           
00003848  __covrec_2E397360657A7C47                           
00019888  __covrec_2E3C982E9C9C353                            
00016610  __covrec_2E459FB28F5F2122                           
000103b8  __covrec_2E6DD8667D2D7FF9                           
0001d870  __covrec_2E6EC07223ED40B7                           
00018690  __covrec_2E714EFCCE61715E                           
00004e50  __covrec_2E7537F3B4A4E91E                           
00005be8  __covrec_2E805BA354DDE5F1                           
00022dc0  __covrec_2EB222C72903A525                           
00005e18  __covrec_2EBD17F4D4A93A57                           
0000a4b8  __covrec_2EE66B721E401316                           
00022d70  __covrec_2F22268672A76EE3                           
000150d0  __covrec_2F298529E754A752                           
00010db8  __covrec_2F3D45E1FE7BC132                           
0000ee78  __covrec_2F88CF071FF75850                           
0000bfc0  __covrec_2F8D50373C13A999                           
00007b78  __covrec_2F8E6571432A21BE                           
00006700  __covrec_2FB088ADD68FCE76                           
00009810  __covrec_2FE88CFBC82411B3                           
00010250  __covrec_2FF0C44A136F8E86                           
000109f8  __covrec_2FF3E63A4BF6DB3                            
00009a40  __covrec_30294E057B7E3A3E                           
00014c20  __covrec_302F2AC2878AEE63                           
000232e8  __covrec_303E360AA0461E56                           
00010728  __covrec_303EAEA524B4D6F4                           
0001e7e8  __covrec_3060B93F85E68B18                           
0000aaf8  __covrec_306A2D95C2665BD4                           
00003028  __covrec_3071A6017CC5DE3B                           
00023900  __covrec_307BB5214E98EBCB                           
00021b78  __covrec_30A6073BD61E816A                           
00011ad8  __covrec_30AE2001FCB36A5D                           
0000dc08  __covrec_30B29D488904184C                           
00020520  __covrec_30B5CF75E7DDB3BE                           
0001a440  __covrec_30B7C7B021FF32BD                           
0000e310  __covrec_30C1C0142DDC3065                           
00023748  __covrec_30C72D90FAAB52FA                           
00010408  __covrec_30C9E50E62B697AF                           
00023cc0  __covrec_30E2ED287923C2A1                           
00017ee8  __covrec_30ED4319F76DB893                           
00022960  __covrec_30F8FDE14BEBA5C3                           
0001c2b8  __covrec_30FBE63F83B9D1D                            
00021600  __covrec_30FFBF09B05F3927                           
0001dcd0  __covrec_30FFD4E1DBF1C36F                           
0000c628  __covrec_310FBA926274A0B                            
000016d8  __covrec_3123069D01F4599                            
00007420  __covrec_3127FC05412087DB                           
00019ab8  __covrec_3129FF84AE3F76E2                           
0001faf8  __covrec_31384D9C1FCD85B5                           
000073f8  __covrec_3141127DFCB0E5C1                           
00011cb8  __covrec_3141F1B3A1E2AE47                           
000031b8  __covrec_3146A293F50F4078                           
00017588  __covrec_3163B63F3B49E158                           
00021150  __covrec_31723A59EE01CB6F                           
00012050  __covrec_31AD16A8EFB4319B                           
00012bf0  __covrec_31B0598EDF1F8AA0                           
00013780  __covrec_31B1F8CB4704B234                           
000123e8  __covrec_31B2CAED7F56A7D9                           
00004220  __covrec_31D56F96844B21BC                           
00023950  __covrec_31DC30DDC7036A3C                           
00020110  __covrec_31DC7ECBF26839AC                           
00003000  __covrec_31E810F428902870                           
00019798  __covrec_31F7B8F147936BE1                           
00016930  __covrec_31FD0D502C5066BA                           
00010480  __covrec_320DCC9EF3DE330A                           
00024a58  __covrec_3218CEAEDF4FBA00                           
0001f0f8  __covrec_321A183A8097BE95                           
0000ff08  __covrec_321BE6A6A3F0D5F2                           
00017100  __covrec_322133A61A45AB4E                           
00004d38  __covrec_32463D3BCC41BC42                           
0001ea68  __covrec_324DA2EC0B259559                           
0000efe0  __covrec_32583FCAB5D1403E                           
0001ce70  __covrec_325BB6249AC215ED                           
0000dc58  __covrec_325D2F5D99314C74                           
000163b8  __covrec_328AFB179A26404D                           
0001fda0  __covrec_328C937DCC0945C6                           
000163e0  __covrec_329ACE27EDB24189                           
00006a70  __covrec_32CE7735299A3E01                           
0000b4d0  __covrec_32DA69C8C0A759E6                           
00002628  __covrec_32E747FEB1BC894E                           
00014d88  __covrec_32E8DB488C68B78D                           
00014838  __covrec_32F0D770382D1DA9                           
00007128  __covrec_32FD25CAFA2FA3F                            
00005c88  __covrec_32FDE92D5F4FDAB3                           
00004ab8  __covrec_32FFC15AFCD6C07A                           
000171c8  __covrec_33066D15E3040297                           
00019068  __covrec_331725AF5DF50438                           
000201d8  __covrec_331B394963683510                           
0000c8f8  __covrec_3320931F9ED3D27B                           
0000c830  __covrec_3323E7FE3A211B8                            
00013730  __covrec_3325AABB0D89DD6E                           
00014860  __covrec_333383517C1FF008                           
0001b570  __covrec_33495A652304E49                            
00013f50  __covrec_33562C81DF7B10BF                           
00005aa8  __covrec_335A8A3F65B33883                           
00003780  __covrec_33816425693FD95E                           
00003488  __covrec_3385B58968629AB3                           
000062c8  __covrec_3388964050D04A99                           
00013c58  __covrec_338D56CED01B062B                           
0000c358  __covrec_339C0E79F05F94CE                           
0000f580  __covrec_33D3AA2E62E20E88                           
00001b38  __covrec_33D81E8523FD2D54                           
0000c718  __covrec_33DDC4726F6DEE9A                           
00019c70  __covrec_341863ACF88CD371                           
0000e720  __covrec_341A31158D840B4                            
00019d10  __covrec_3435C80BC3722BAD                           
00021498  __covrec_343940E2870E9B0E                           
0000cbc8  __covrec_343E5E1292DB7B1E                           
0001f2b0  __covrec_3440A467A910C969                           
0001ed60  __covrec_3443F015958810F5                           
00008b90  __covrec_3451BE90EFC3DE9B                           
00024878  __covrec_346C6355D054AFA7                           
00020ed0  __covrec_347833257255D714                           
0000f3c8  __covrec_347C5946F375C19A                           
00016bb0  __covrec_347D20A347D54D3B                           
000125c0  __covrec_347F5236CD6A8821u                          
0001f6e8  __covrec_34960821BB303171                           
0000c330  __covrec_349E460FEA63C8CD                           
0001bae8  __covrec_34AF19AADA685B0E                           
00008500  __covrec_34C142EC699EC720                           
00009c98  __covrec_34D0110B4BC4B15D                           
000153f0  __covrec_34D87877B62187C0                           
00002650  __covrec_34DFA110B6CB4C34                           
0000c0b0  __covrec_3503171B9CE8B4A4                           
00009158  __covrec_352ABEA6E975600C                           
00019ea0  __covrec_352F9E2440E9C139                           
00022e88  __covrec_35368D2270EB9D54                           
00006c78  __covrec_3567F53A81292919                           
000047e8  __covrec_3574F575841D40BF                           
00014f68  __covrec_358682B259B0A962                           
0001f440  __covrec_35A409F0E6C93C4C                           
00009f40  __covrec_35C10EA5484983A4                           
000043d8  __covrec_35CB88DD9E12F9FE                           
0000a580  __covrec_35F5C0327EFD50F7                           
00004978  __covrec_360BB3E8DEFA7DDF                           
0000d2f8  __covrec_362D01790CBA8EFC                           
00015288  __covrec_36371372719FAE20                           
00011448  __covrec_3653258C81805C5                            
0000a5a8  __covrec_365C4CD56520F7C5                           
00012948  __covrec_365DCC393F100621                           
00016228  __covrec_3660EF20DA7A07C2                           
00018550  __covrec_366594CABF5FBBE1                           
00013460  __covrec_36AB183A395E4CAF                           
00016c28  __covrec_36C64B2F466F1472                           
00014220  __covrec_36CAFF9A6A4269C6                           
00015968  __covrec_36CEC9582B8D65CF                           
0000c588  __covrec_36DE61C794C3056D                           
0000bed0  __covrec_36EEE970BFED3D2B                           
00005b20  __covrec_371EB7211197BE84                           
00003e60  __covrec_374AFB2EDDD8AD5E                           
0000c128  __covrec_374B40431E205167                           
00003d48  __covrec_374EF303A561461A                           
00006d40  __covrec_3753C4328AF6B939                           
00008a50  __covrec_377310A20F116092                           
00014798  __covrec_37752C52AA74DBFE                           
00000968  __covrec_37805BC28183985E                           
00007948  __covrec_378C1BDED5EB95E1                           
0001eb08  __covrec_37961B0C63A935F4                           
000057b0  __covrec_3798CDC2881D9A1B                           
00008fa0  __covrec_37A1402F0EA571E0                           
00015da0  __covrec_37BBD65DD58D473                            
0001e428  __covrec_37E4676AA453B73A                           
00009ab8  __covrec_38171919BD9EA530                           
00011ee8  __covrec_382B3DA03E10E0C7                           
000176f0  __covrec_3838EAEF37C9B024                           
00005260  __covrec_384022D77EA5D9C3                           
000005a8  __covrec_38403A0F6F35D837                           
00008410  __covrec_385AAA4BA32B2471                           
0001bb10  __covrec_3886213F5ECF5BC5                           
0001f9e0  __covrec_38889281C354E797                           
000075d8  __covrec_38995153250C7179                           
00012d58  __covrec_38A0CEE2744B092C                           
0000ba70  __covrec_38B03CFE94535454                           
00011470  __covrec_38CC7946FA93B6D9                           
0000dff0  __covrec_38EAB6F0E107946F                           
00011588  __covrec_38EFC8F3EFCE9709                           
00003cd0  __covrec_38FBB9D977F49AED                           
00008168  __covrec_390597126B89F69A                           
00013618  __covrec_392FECAD18A74184                           
00003140  __covrec_39442E89959A4CC5                           
00010fe8  __covrec_396D1CA2D3AE48B9                           
0001c7e0  __covrec_3971B1944E0C574C                           
00004ec8  __covrec_397A9158C8CCCDBE                           
000208b8  __covrec_397D89BAB9602260                           
000235e0  __covrec_39B0DFCD7DF2AB37                           
00017bc8  __covrec_39BD400369155FF7                           
000136b8  __covrec_39C130C9E557E548                           
00008348  __covrec_39C302ABEC3DBE81                           
00011998  __covrec_39F23DDB23057AEB                           
0000a468  __covrec_39F417CAAFDBE167                           
00007600  __covrec_39FE66B094FDD29E                           
0001e950  __covrec_39FF74C6619FBAEE                           
000162a0  __covrec_3A1D4C8225602426                           
000131e0  __covrec_3A26CCF0B62A8E89                           
00015828  __covrec_3A36369733F8D5B6                           
00014bd0  __covrec_3A479AE32438F206                           
00009cc0  __covrec_3A5A2683C5ED654                            
00010d40  __covrec_3A89560A09F90F6F                           
00020818  __covrec_3AA23B4CA70BF4D8                           
0000c790  __covrec_3AA6352672FFD909                           
00018af0  __covrec_3AAA2A3C5CE52BA3                           
00023ce8  __covrec_3AAA503472040552                           
00020a48  __covrec_3AC1DBF81307EA6C                           
0000edb0  __covrec_3AD3BEBBF7BC593A                           
0000fdc8  __covrec_3AF138D6801E8D4E                           
00000878  __covrec_3AF6ECF1FA8694DC                           
00018a28  __covrec_3AF95226F44434B7                           
0001e540  __covrec_3AFB7D729C4BABB0                           
0001b840  __covrec_3B097A2085B9CD1E                           
0001b868  __covrec_3B1FE69DF6A41D79                           
00021538  __covrec_3B24D5353F7BB6D1                           
00006ac0  __covrec_3B2AC0867AC33244                           
000147c0  __covrec_3B3A4AD98C182DE4                           
00021a88  __covrec_3B4669D912F6CCFB                           
000087d0  __covrec_3B52A62B5B696508                           
000039b0  __covrec_3B60D08E6532112E                           
00022ac8  __covrec_3B8712F8CC28A7DB                           
0001cab0  __covrec_3B8B8236C02173C2                           
00015698  __covrec_3B9AD5E448524FFF                           
000006e8  __covrec_3BA9635216645C03                           
00015d78  __covrec_3BB04CDDF195DCC8                           
00002448  __covrec_3BB586228DBE95EE                           
000160e8  __covrec_3BEB96B4128A074A                           
000237e8  __covrec_3BEEED776316E3D8                           
00021010  __covrec_3BF2B88451504C58                           
0001efe0  __covrec_3C024D0166B213F1                           
0000bd90  __covrec_3C278B2EC4801F42                           
00014360  __covrec_3C422C657214FCF6                           
00013320  __covrec_3C4C09DA7A2DAAD2                           
00001930  __covrec_3C81DDC52428CAE9                           
0001c650  __covrec_3C99A72BDFB45697                           
00008f00  __covrec_3CB52B04804594EB                           
00015850  __covrec_3CC05BCBB89EC8C0                           
00022898  __covrec_3CCD0FBCDE385140                           
00020548  __covrec_3CD7868FF6D37CF3                           
00000490  __covrec_3CD98B169DFC1381                           
00018a50  __covrec_3CFE3402D2666528                           
0001ff08  __covrec_3D01C64E096BB6C9                           
0001b688  __covrec_3D0817C7DF21F89F                           
000050d0  __covrec_3D094E70C24EC8FB                           
00014928  __covrec_3D0A3FF0C21D6472                           
000087a8  __covrec_3D154E75A9AB5ABA                           
000188e8  __covrec_3D25EC3DE4E423F3                           
00002e70  __covrec_3D3BA94C9B59433F                           
0000f9b8  __covrec_3D3F43DBA8C21623                           
00002c18  __covrec_3D49059DA242988                            
00018118  __covrec_3D5160002BBF26F9                           
00010890  __covrec_3D7FC52C2CB52C85                           
0000fda0  __covrec_3D8C418D848B7F99                           
000225c8  __covrec_3DBD25D85CE95350                           
0000e590  __covrec_3DC2345F50AE3C61                           
00013b90  __covrec_3DC72BA4C9ECB1F9                           
0001e590  __covrec_3DCF74A11C3A8FF3                           
0001e978  __covrec_3DDAFC730FA6812                            
00023608  __covrec_3DE34E8EF07EF7FD                           
00005e68  __covrec_3DF6DFDD358F435C                           
00008780  __covrec_3E0110DF0F0EC583                           
00006e80  __covrec_3E13E99A092E7E6D                           
0001b1d8  __covrec_3E1568D9541C8352                           
000233b0  __covrec_3E1A6E5850148636                           
0000fee0  __covrec_3E229243C6DA21DE                           
0001edb0  __covrec_3E27CE08F0E438A7                           
000081b8  __covrec_3E31EB6592D517FC                           
00015030  __covrec_3E5598E6C0B42553                           
00005440  __covrec_3E57519724A2D42B                           
000088e8  __covrec_3E7DF015DBC53AF9                           
0001f0a8  __covrec_3E9B067C2AF7B980                           
00023018  __covrec_3E9B0EF1AFDE6C23                           
00014c98  __covrec_3EA0432BC3C9FA6C                           
00022938  __covrec_3EEF78312BD96C34                           
00022618  __covrec_3F10DB2D12771804                           
00010070  __covrec_3F2E42F9D5543EE2                           
000072b8  __covrec_3F388789CB10C043                           
00016b10  __covrec_3F3F06B0DE5DFDFD                           
00022258  __covrec_3F515E8DEDCFDB3C                           
00022230  __covrec_3F5C1E56D1753C63                           
0000fc38  __covrec_3F610DF2673E5B69                           
0001a378  __covrec_3F67DCC65271B3FF                           
00012078  __covrec_3F76C64CAB73FA3F                           
00021510  __covrec_3F79BDA4008A8933                           
0000afd0  __covrec_3F7A4A41FFC9BE16                           
00005c60  __covrec_3FAF1812B7100266                           
000078f8  __covrec_3FD00206CB732DBD                           
00012bc8  __covrec_3FD1311A037EBF95                           
00005da0  __covrec_3FF19FD56A64467                            
00006b10  __covrec_4011F1AD3B6D1AF9                           
000206d8  __covrec_4013210C481D0A23                           
0000e6d0  __covrec_4050672B6417F25                            
00012280  __covrec_405ABECFF4706CA7                           
00023798  __covrec_405D48D0FC02CE4                            
00018000  __covrec_406378224CE7840F                           
00016d90  __covrec_40835A27C3B3C9BC                           
00000fd0  __covrec_408CC9783B033088                           
0000c6c8  __covrec_4091CD943CCF8C5B                           
0000f5f8  __covrec_4097419DD0362710                           
00004c20  __covrec_40BE4EBA087C0A14                           
000007b0  __covrec_40C18490949891D7                           
0001bc00  __covrec_40C2045D2339AE27                           
0001aa80  __covrec_40C30177E58A8F00                           
00017cb8  __covrec_40C3C35157F185E9                           
00009c20  __covrec_40D0B7BA41150093                           
000203e0  __covrec_40D646295DAC752                            
00006458  __covrec_40EF6DA59BF1358B                           
000161b0  __covrec_4125B57286A5529                            
00024120  __covrec_41297A6DA905A84F                           
0000c7b8  __covrec_412AD9C75C1B51AC                           
000056c0  __covrec_4134B07B45A07085                           
000024e8  __covrec_413A39E5A8D43E11                           
0000c308  __covrec_4177E95219D51969                           
00017e48  __covrec_41838BAC8E2D2787                           
00016480  __covrec_41AEBAB8BD1FD2DB                           
00009d60  __covrec_41C69CD925CD8A1B                           
00021b28  __covrec_41D355DEE93F316                            
00011e48  __covrec_4278A4CC7EA2B48F                           
0000f788  __covrec_428FD68580FEEB5E                           
00009db0  __covrec_4290A1CA61C3EE4                            
0000aa08  __covrec_42AC900BB7486493                           
000220f0  __covrec_42B1FA5D2A28E44C                           
000076c8  __covrec_42BBF155C16B0EB6                           
00022000  __covrec_42C38FC99BBB9DEE                           
0000a440  __covrec_42D15EBB013A3D5D                           
00008d48  __covrec_42FC287338A248BD                           
0001ebf8  __covrec_430272C77074C92                            
0000f2b0  __covrec_43072437AA45AA5                            
0001f698  __covrec_430FD1DD48650ACE                           
00002a60  __covrec_432817A303D92BD1                           
00015c10  __covrec_433BCD6A7AE9A476                           
00014ce8  __covrec_4351608A646C6B0                            
00018140  __covrec_436280033B12932A                           
00017510  __covrec_4372B022B5546D6B                           
000000d0  __covrec_43754CAB66210EADu                          
00012998  __covrec_4378EEF47529ACB7                           
000097c0  __covrec_438D9DAD9736276C                           
000113d0  __covrec_438E6DA8340BF71D                           
0000c1a0  __covrec_4392D9038D1D9659                           
0000e068  __covrec_43B3809B98845D45                           
00002d58  __covrec_43BC90899029C9D5                           
0001d348  __covrec_43CA149CDA99F19C                           
000193b0  __covrec_43D8C40C41906745                           
00002b50  __covrec_43F31289FEF2F462                           
0000cf88  __covrec_441CA2F0B18AF4C9                           
00024850  __covrec_4436F28390350551                           
000129c0  __covrec_4442015EC0C5EEBB                           
00017c18  __covrec_4474B8D0BC074C04                           
00014c70  __covrec_449CAC6A58F3AD72                           
000090e0  __covrec_44AC10EC143B811C                           
00021920  __covrec_44B12D8825409BC2                           
00016d68  __covrec_44C5379EEB9C4                              
00009bd0  __covrec_44D488810E3E579E                           
00002a88  __covrec_45172430EF97AEC9                           
000069f8  __covrec_4526568532B8DD5F                           
00009068  __covrec_4526B0CBB3C28C05                           
00005fd0  __covrec_45285314C707F78A                           
0001e158  __covrec_45436CBF3A4CA093                           
00012500  __covrec_454FB1DFD974CCE6                           
0000ae40  __covrec_456DE4155BAF9DA9                           
00020598  __covrec_45806013A668158C                           
00013ca8  __covrec_45D841902927495C                           
0001f1c0  __covrec_45E0153103EFF78C                           
0000bfe8  __covrec_45E6723FAF3867BE                           
0000b278  __covrec_45EB13B81907E913                           
0000d348  __covrec_45FD1A177C1DF800                           
00013938  __covrec_4600AE4381D2A14B                           
00009720  __covrec_461B97B92772FB6A                           
00003d70  __covrec_461F414D383104CA                           
00024738  __covrec_4636F542C7B57A00                           
00019d38  __covrec_46453BBBC5316FD3                           
00014e50  __covrec_4665283335DF6F97                           
000215d8  __covrec_4698FA8E637FED05                           
00012858  __covrec_46BEBFAC6345CB29                           
00002510  __covrec_46CFF20A3272DC93                           
00003938  __covrec_46D098413E9410EF                           
00009ce8  __covrec_46D8FF4847FD7D1E                           
0000d258  __covrec_46E46989C24F1DA6                           
00011970  __covrec_46EC7C9FF469415B                           
00018460  __covrec_46EDCBBEAFD38B16                           
0001ff30  __covrec_46EDE5804B593543                           
00000260  __covrec_46F88230977B49FC                           
00011dd0  __covrec_47076422E3EBB4B7                           
0001e108  __covrec_4718A562B567B04C                           
00011510  __covrec_47239A68BB7AFCFF                           
00022b68  __covrec_4726466DEFBBB981                           
0000cb78  __covrec_47371E6A14F37019                           
0001aeb8  __covrec_473C66096BA722FD                           
000109a8  __covrec_473CBFDE1859342C                           
0000bef8  __covrec_474318727FA02B9C                           
0001ba70  __covrec_4749F46D3908955F                           
0001ff80  __covrec_475CA32B2C2CE266                           
00016fe8  __covrec_476992FF089351FB                           
00001c28  __covrec_4779C2DBB640E6C3                           
00009040  __covrec_478C0FAA7E4CFCB3                           
00000d78  __covrec_4793BCA81EFDADFE                           
0001d398  __covrec_479B15013490219A                           
0001b160  __covrec_47BE7FD010B31ACF                           
00000f58  __covrec_47EF24B68DF5509B                           
00009a90  __covrec_47F2DE9FDADD83E                            
00000da0  __covrec_47F579BABCD4CF22                           
000174c0  __covrec_47FB578411340773                           
00011df8  __covrec_481BA3D35A4756EB                           
000090b8  __covrec_4837DF2A71535D44                           
00019b08  __covrec_483E582084ED31BD                           
0000e3d8  __covrec_48436A6AA0909D8A                           
0001fe40  __covrec_485836BA7ADA70E7                           
0001aaa8  __covrec_4891A72BFF7F5031                           
00017060  __covrec_48B35313DF575FFA                           
00022208  __covrec_48BFA1C093CFE041                           
0001fc60  __covrec_48CBB17F0CCCA98C                           
00017560  __covrec_48DB928E5EA29731                           
00001818  __covrec_48F6325AC83F0DE1                           
00000bc0  __covrec_48F70C8DE5D5AAA2                           
00001980  __covrec_48FD354D1367032                            
0001cee8  __covrec_4920BE8E09645FFF                           
000095e0  __covrec_496D2B7053B35B64                           
0001f5f8  __covrec_497DA2F3E5D93472                           
00016138  __covrec_49838A933E918F6A                           
00009220  __covrec_49AC53C749EDA5C1                           
0001e0b8  __covrec_49B99623CFA970C2                           
00005850  __covrec_49DFD33FEF0D504C                           
0000b980  __covrec_49F0ACD0342415F3                           
0000ab48  __covrec_49FB078994ECC0B2                           
00008ed8  __covrec_4A1D07B2F4DAF5AE                           
000048d8  __covrec_4A2D448C730C8DE1                           
000122a8  __covrec_4A2FA4057479893B                           
000226b8  __covrec_4A70D883AED610D6                           
00000ad0  __covrec_4A71F76137D1C9B1                           
000035f0  __covrec_4A738DD4CAE97BEA                           
00013140  __covrec_4A7ED0D2F2AEA5EE                           
00004400  __covrec_4A96CE9EDA511E95                           
00006fe8  __covrec_4A982DACBE37D45E                           
00010f20  __covrec_4AC01A0EFD1DFC6D                           
0000b4a8  __covrec_4AD3267B9EAE526                            
000111f0  __covrec_4AE30FB410F4CFFA                           
00001db8  __covrec_4AE55592A9ADA3A2                           
00002ec0  __covrec_4AE7340B8DCDF6AE                           
000033e8  __covrec_4AEB4754DF08838B                           
0001d758  __covrec_4AF143174640E56D                           
00012488  __covrec_4B104A81B3C2F86A                           
00021998  __covrec_4B154ED39D9AF395                           
00015b98  __covrec_4B1752517A897C5                            
000091d0  __covrec_4B3474E56418C3FE                           
0000ac10  __covrec_4B390B7866CD3A4D                           
00000e90  __covrec_4B395E5F3DE29F7F                           
00018c30  __covrec_4B5ADC67ED6C8790                           
00003b40  __covrec_4B6569F9909312D2                           
0000a620  __covrec_4B659EDEC7EC6270                           
00007268  __covrec_4B7C2EF6E8ABC076                           
00008000  __covrec_4B7DC3C267BBC035                           
0000d3e8  __covrec_4BB652AA23511ADF                           
00014a40  __covrec_4BCFC91C4159B7BB                           
0001f5d0  __covrec_4C2163C5B5E62E0A                           
00010fc0  __covrec_4C29EC2D90811FE1                           
00012e98  __covrec_4C80DA44FB3A96A9                           
000025d8  __covrec_4CA916E060BFDC73                           
00007ba0  __covrec_4CAAEE63EAB944FE                           
0000d938  __covrec_4CB2AA2492BB0FC4                           
00009338  __covrec_4CB2D0D2FE3EEF3E                           
00011420  __covrec_4CB49906D4D8BD4F                           
0000c218  __covrec_4CC275C8A00CCEEB                           
000226e0  __covrec_4CF1F17A7E634135                           
000110d8  __covrec_4CF68FD5C04600C8                           
000045e0  __covrec_4D13C2E09E5F4CE2                           
00019db0  __covrec_4D32569C34B2D696                           
00002268  __covrec_4D5976BDD80DE62F                           
000111c8  __covrec_4DA04D9995FAB0B4                           
0000d9d8  __covrec_4DA4D50ABF717294                           
00024288  __covrec_4DAE465C3086FC76                           
0001f2d8  __covrec_4DC7EBBFBBF2C80C                           
0000e568  __covrec_4DE0902CEF077A51                           
000173a8  __covrec_4DE3D6A3E8BDB070                           
00012190  __covrec_4E11EEECEF74531C                           
00006728  __covrec_4E1905FC878707E7                           
00012688  __covrec_4E1A7F59973ACCB2u                          
00020e30  __covrec_4E1DBE19647923AA                           
00020ae8  __covrec_4E427332E8382E46                           
000069a8  __covrec_4E80D2942CAA33D2                           
0000e810  __covrec_4E936A1E4937C02E                           
000114e8  __covrec_4EA73EDE03EA7AC9                           
0001e4f0  __covrec_4EB0839C474D2F33                           
000138e8  __covrec_4EC6A12FB13E3388                           
0001d370  __covrec_4EFB28BC93277616                           
00019608  __covrec_4EFD1DA62AB1D0E3                           
00023068  __covrec_4F1EDF961F9F9089                           
00015f30  __covrec_4F2301F1873D147E                           
00003f50  __covrec_4F3554549BE7A990                           
0000cd08  __covrec_4F54308AE2348CFD                           
00004f18  __covrec_4F5AA496BB7072A4                           
0000f7b0  __covrec_4F5E6B4C74A005AB                           
0000bd40  __covrec_4F645A26125D1C8B                           
0001bea8  __covrec_4F658069E82642B3                           
0000a6e8  __covrec_4F6D7B641F46AE0A                           
0000efb8  __covrec_4F7091684DF0AC93                           
000162c8  __covrec_4F98EC9A5D6C22FC                           
0000d460  __covrec_4FB88B74DC9672C1                           
000223c0  __covrec_4FC04B3E518F0361                           
0000b228  __covrec_4FC7B427B3B2CEC2                           
0000ff80  __covrec_4FD8E8BD00701EF4                           
0000ed60  __covrec_4FDA9328639F3B51                           
00015fd0  __covrec_4FE47ABC0D76B93E                           
0001a710  __covrec_4FF6C882AEFBE71                            
00006778  __covrec_4FF6CA47F8AECE41                           
000197e8  __covrec_500923B66EDC1559                           
00009978  __covrec_50394FD87BBA1630                           
00015df0  __covrec_50443E9660573DAD                           
000216a0  __covrec_50652C5F2DE678E3                           
00011560  __covrec_506705E9BCFFD96C                           
00007bf0  __covrec_50692BC34D97A3D9                           
000048b0  __covrec_507F2F110A945A2D                           
00000e40  __covrec_50B1FF7694E13956                           
00018fa0  __covrec_50E1A630398A4DB2                           
00007880  __covrec_50F327C6B027E7ED                           
00020d90  __covrec_50F46F04ABA816B1                           
00004018  __covrec_50F70A712A1FC762                           
00014bf8  __covrec_511C8E60BD52A8FB                           
0001ab70  __covrec_512002C148919CFE                           
000034d8  __covrec_5156A8D013F60117                           
00014d10  __covrec_51714BA3B36DEA32                           
00014568  __covrec_51932377A8B429F2                           
0001f918  __covrec_51997A82F632E9B6                           
00019e50  __covrec_51A09EDC84208728                           
000032a8  __covrec_51B781D3AE80E419                           
00013708  __covrec_51BBACEB942ABDE0                           
00011b28  __covrec_51C02D29A061CFB8                           
0001cce0  __covrec_51C74FFAA225D32A                           
00005a08  __covrec_51D7EECF6A60435C                           
00014338  __covrec_51DD21FD505FE478                           
0000daa0  __covrec_51ED15640AE1E781                           
00011678  __covrec_520CF33A215ABA3A                           
0000dfa0  __covrec_520D3B7F0D75701B                           
0000c3f8  __covrec_520E7B167105424E                           
00008618  __covrec_522771E5DAC7E127                           
000052b0  __covrec_524958ADC9233CAD                           
00002c68  __covrec_5250899153F007A3                           
00019338  __covrec_525C3DF9C95B7EC                            
000124d8  __covrec_5281E5C04AE2CD59                           
00016200  __covrec_5284D5E45F2661CB                           
00002538  __covrec_528E8FB409EC553A                           
0001ecc0  __covrec_528F08850A5A6AA                            
0000d6e0  __covrec_529AC6DF93B13B03                           
0001c6f0  __covrec_52B97E8CA708B350                           
000127a0  __covrec_52DA6B89AFD9BEEFu                          
0000d9b0  __covrec_52DF949C3D283718                           
0000a990  __covrec_5307BFECDBF2BBE8                           
0000de38  __covrec_53242395682CDA28                           
00004090  __covrec_5324740A855A9B1E                           
000194c8  __covrec_53274C6784AC6740                           
00015c60  __covrec_5333A61D2C451B71                           
00018348  __covrec_5341AC3ACCD56D5A                           
0000c498  __covrec_535CD84CE08FE5C5                           
000135a0  __covrec_536847D883D87D6E                           
00019400  __covrec_538F62B599A02D85                           
000099a0  __covrec_53930602A67EE197                           
00007560  __covrec_539B0AC17412CFC0                           
0000f1c0  __covrec_539BCE9D24B3C01B                           
0001eea0  __covrec_53A77370C248305E                           
0000e400  __covrec_53BBB39562EA47FA                           
00012230  __covrec_53E28DA262170E83                           
000093d8  __covrec_53E68BD5D7682646                           
00003668  __covrec_53EB71387BB08DD0                           
0000c858  __covrec_53EE9BDE37683AB4                           
00021ba0  __covrec_5406CB2E1C44728                            
0000f3f0  __covrec_54096D3D1841465B                           
0001ece8  __covrec_5425D9490B6AD1D3                           
0001b3b8  __covrec_5431C2A10E3AF27F                           
00004838  __covrec_546D735B2FFCDEFC                           
000041d0  __covrec_547CF771662AC329                           
00012ad8  __covrec_547CF9FBFA8DAB2                            
0001b480  __covrec_548397170303D112                           
00008ac8  __covrec_548A0E72AB0F802F                           
00003d20  __covrec_54B9DD99D691ABF6                           
0000cab0  __covrec_54BAA0C2F5E450FA                           
00012b78  __covrec_54BFE4BB339D82FA                           
00022848  __covrec_54DEC94B3D73D88D                           
0000f288  __covrec_551237C83EEB791D                           
0001d280  __covrec_55266747A4570DA1                           
0000f6c0  __covrec_553D47BC2A287267                           
0001b250  __covrec_5540FB3D09913541                           
0001b0c0  __covrec_5543982661761F02                           
00002ab0  __covrec_5543CAFE45A2B8D7                           
000103e0  __covrec_554AF6DE18854551                           
00003dc0  __covrec_55545DEEBE8BE779                           
00008028  __covrec_555B0B68F98647AD                           
00005710  __covrec_556A541226515D5B                           
000017c8  __covrec_55746A7A2E6B0A15                           
0000ddc0  __covrec_557F0E0AA20FA293                           
0001e720  __covrec_55810F3EB635025A                           
0001b8b8  __covrec_55C345FCDBE2932D                           
00009e00  __covrec_55C4A40800574A23                           
0001c010  __covrec_55C646F71E54567                            
00002600  __covrec_55ECCAA6B8C55F13                           
0000a800  __covrec_5613CE184C254D2A                           
000026a0  __covrec_561F506EA5BF699B                           
00002da8  __covrec_5627D5CF9A6BFCC2                           
00006610  __covrec_562C75A9FC1A12E2                           
0001ec70  __covrec_563C36D078652BFB                           
0001ee00  __covrec_564B00DAE5D93552                           
000057d8  __covrec_5666988480AD55F4                           
000028a8  __covrec_566C41992BA95594                           
00001908  __covrec_567154F81A7B0DC7                           
0001ee50  __covrec_5683CC655E710871                           
000032d0  __covrec_568F16C8FCAE0C3F                           
0001ffa8  __covrec_5693A03265561EA1                           
0001e860  __covrec_5698EC3DDF5C0D44                           
00019860  __covrec_56994D288387D9E1                           
0000fc60  __covrec_5699D94DD493658E                           
0001c088  __covrec_56B780A4FDEE900D                           
00007cb8  __covrec_56BE841AAF3931FE                           
000077e0  __covrec_56BF8361CA594FF1                           
000008c8  __covrec_56FA554F388C9232                           
000081e0  __covrec_571D94D568232624                           
000192c0  __covrec_572E084EA8EAC4C5                           
00008988  __covrec_5736DB34CBAF8EEB                           
00015648  __covrec_5749A9E4CCC687D1                           
00002240  __covrec_574A1AB4FC226011                           
000106b0  __covrec_57548AABD9C2B31                            
0001dd98  __covrec_575DC9889DF6949E                           
00017538  __covrec_5767CF3A670B399C                           
00020a70  __covrec_5775237149682687                           
000200e8  __covrec_5792CDB37B0EB554                           
0000ed88  __covrec_57A1D460024293C9                           
0001a5f8  __covrec_57A66E83E0547B4C                           
00012718  __covrec_57CDA72D04A5E694u                          
00017808  __covrec_57DC8F9B3C4337A2                           
0000e2e8  __covrec_57ED4BD7DCE5205F                           
0000df78  __covrec_57F4669B34129D61                           
000158a0  __covrec_58173AEB70F92F68                           
0001f260  __covrec_581FA69547FF1789                           
000154e0  __covrec_583D9624CEFEF063                           
0001f788  __covrec_58550788DEC90388                           
0001e388  __covrec_586FB34E967A1C01                           
00000350  __covrec_58763ADD0E1C2181                           
00008190  __covrec_5878F933F4CCC637                           
00023388  __covrec_589F986B7592F53B                           
000055f8  __covrec_58B165E894510304                           
00011858  __covrec_58C1726F79092C49                           
00018a00  __covrec_5942973784CEEA25                           
00011bc8  __covrec_5953CC495B7BFA2A                           
0000fad0  __covrec_5953D18C04591B18                           
00015760  __covrec_5959C51EAFB0B0AB                           
0001dc30  __covrec_59674A5A4E18485A                           
000002b0  __covrec_59790CE4E2ADC66D                           
00021ab0  __covrec_597B766BDF97E9A4                           
00003a00  __covrec_597C29EB07934324                           
00000a58  __covrec_599502B5B0EE5CFA                           
00007ab0  __covrec_59ABEF43FFBD3E28                           
000042c0  __covrec_59B2EB4A99A1CF85                           
00005a30  __covrec_59C8294039AD0690                           
0000b138  __covrec_59CA964E9D3F27EE                           
0000d1b8  __covrec_59D1F16991A42361                           
0001b7a0  __covrec_59E40C65BB4D18F7                           
0000f698  __covrec_59E6D7F6A0AC269E                           
00018be0  __covrec_59EA745BFA1ABDC0                           
00023ef0  __covrec_59F98C605AC61246                           
00006a98  __covrec_59F9C2B43996D1F5                           
00015008  __covrec_59FF2B4C942CC8BA                           
0000e838  __covrec_5A28869C52158DDF                           
0000d4b0  __covrec_5A2CC4A90EDFD2FB                           
00019360  __covrec_5A2DEE3595B11481                           
000228c0  __covrec_5A37A076E8C9BBDA                           
000144c8  __covrec_5A3EEBA233C7FD36                           
0001f350  __covrec_5A717D53595AA9DE                           
0000f8f0  __covrec_5A8082A56FA3FD2                            
000237c0  __covrec_5AA4C50A3572C884                           
000155f8  __covrec_5AA5C0ECFAA2F10                            
00002830  __covrec_5ACC983070967510                           
0001ce48  __covrec_5AD07ACFA2247082                           
00021fb0  __covrec_5AD6145C62BED28F                           
000020b0  __covrec_5AED040B4487EF20                           
0000cce0  __covrec_5AFCAF44E34BB1DA                           
00001610  __covrec_5B1734EDA5E266DA                           
0000f170  __covrec_5B21C1A7A1ACB7EF                           
00022ed8  __covrec_5B2EF3F713A9AD4C                           
000241c0  __covrec_5B3116183A6F0466                           
0000af08  __covrec_5B440AD5CE1FF207                           
00016e08  __covrec_5B4547B2E6288EA9                           
00016750  __covrec_5B5EF01BC99E5A86                           
00009540  __covrec_5B67C2F312B3440C                           
0001a418  __covrec_5B7AB3B015354B82                           
00016f70  __covrec_5B93A986E69D6689                           
000014f8  __covrec_5B9F539FE30823E3                           
0000b778  __covrec_5BA13EDCA92EE784                           
000011d8  __covrec_5BB2DDEC27A4FE8F                           
0001c268  __covrec_5BD32E00C445D602                           
0001e338  __covrec_5BE8C1F5F9F49C79                           
00009478  __covrec_5BF09BA8B0F0C6C6                           
00002998  __covrec_5BF6EB17462867A2                           
0000ae18  __covrec_5BF9C41A6B496BD5                           
000159e0  __covrec_5C20B4D769B6D32F                           
00013ac8  __covrec_5C2CCE1E95C8ED88                           
0000a2b0  __covrec_5C3180C4CCE799AB                           
000135f0  __covrec_5C3E23360D9CC29D                           
00009e50  __covrec_5C4CA646B7675724                           
00007e70  __covrec_5C5C63072D7051F1                           
0000e1f8  __covrec_5C8C5EDF38CBA048                           
0001e838  __covrec_5CA635E71B7D840A                           
00007060  __covrec_5CCE0DAF2FF9A4BD                           
00017358  __covrec_5CDB53EB55DAC376                           
0001e630  __covrec_5CEF60968AFEBE0C                           
000194f0  __covrec_5CFAB2D619F63C5                            
0001d4b0  __covrec_5D2E7F106E151629                           
000086e0  __covrec_5D325AC923420321                           
00000918  __covrec_5D479D30DFE31B40                           
000046d0  __covrec_5D5976B873566812                           
0000ffd0  __covrec_5D7741C831202454                           
0001f288  __covrec_5D7FBF201AF53977                           
0001fe90  __covrec_5DB286C142F2FC00                           
00016c50  __covrec_5DCBC94E2F239EF0                           
0001ad28  __covrec_5DCE58CE14EFB2DE                           
00012f60  __covrec_5DF05A020DDAC415                           
000204a8  __covrec_5DF83C55D6E82DD6                           
00004a40  __covrec_5DFB9444F09D3C7                            
0001deb0  __covrec_5E08C98A59626A7F                           
000155d0  __covrec_5E1546171B50C0C5                           
00006200  __covrec_5E19B701DC81E242                           
00006cf0  __covrec_5E3383EE5F29A521                           
00002ba0  __covrec_5E5C946D0AC24404                           
00001bd8  __covrec_5E667D62CAD8A254                           
00006548  __covrec_5E85F502574BB276                           
00000738  __covrec_5EA01366798D8EFE                           
00023630  __covrec_5EA71F0DEB9B9AE1                           
000037d0  __covrec_5EAC415090AE0B04                           
0000bf70  __covrec_5EC86F398AB3CA6F                           
00005f30  __covrec_5ED4EF00443A7DAB                           
000144f0  __covrec_5EEB11B587254FC6                           
00014158  __covrec_5EF187E37416A4F9                           
00014a18  __covrec_5F2C4E1FA0B9AA98                           
00007240  __covrec_5F39538DC454B643                           
00014630  __covrec_5F54C48325B5A57F                           
00000e68  __covrec_5F61DF1AA2CB7790                           
0000c240  __covrec_5F64CA33BB839DBB                           
0000df00  __covrec_5F7EF9062611428D                           
0000fe40  __covrec_5F7FA3C49E54DA77                           
00021da8  __covrec_5F86F943AF231A95                           
00013230  __covrec_5F8A9EEA556599FE                           
000164a8  __covrec_5F8EB310E228C202                           
000095b8  __covrec_5F901A037720B408                           
00023fb8  __covrec_5F9688E4D5455A4F                           
000110b0  __covrec_5FA8AD4D733E2A9                            
00023d38  __covrec_5FAB5DB66DF3F6B1                           
00000120  __covrec_5FCAE43825AF3D07                           
00021e70  __covrec_5FF2A874BA51D671                           
0001ab20  __covrec_5FFD77205848B964                           
000166d8  __covrec_600121E2FBDF7D4E                           
0000f508  __covrec_600C323FA3771342                           
0001f990  __covrec_600D5DFBC7E8E0D1                           
00020ca0  __covrec_601D8438B0B370FE                           
00016e30  __covrec_601FDE1BE8C6AAE0                           
0000aeb8  __covrec_602A53F8769E198D                           
0000ed38  __covrec_60377C07FA1A383A                           
00012d30  __covrec_6041B4936B66AE76                           
0001bb38  __covrec_60422E52F6D7CCB4                           
00015580  __covrec_60463F3D453FCBCE                           
00004388  __covrec_604B5A7A5E6479E                            
00002498  __covrec_608422705140C1D2                           
0001a828  __covrec_608554DE1C9501C7                           
00022be0  __covrec_608E1EBDE4771F04                           
000230e0  __covrec_609D0681607B0888                           
00008c30  __covrec_60A594F6F18A39A9                           
0001cd30  __covrec_60B6B884D1017516                           
0001c420  __covrec_60B82B20ADF3A6C9                           
000225a0  __covrec_60BB75E91683A620                           
0001b070  __covrec_60C4F50F13ECC26                            
0001a3c8  __covrec_60CD53922E0964B6                           
0001b930  __covrec_60CE23351F0BB0C5                           
0001c3f8  __covrec_60E01FB0FEA6B10F                           
00024aa8  __covrec_60E17CA99ACCDE1D                           
00018208  __covrec_6100AF97F9A9E9F7                           
00005e90  __covrec_610335B3FAAB05D8                           
0001bfc0  __covrec_61126BC06481CB11                           
00017fb0  __covrec_611766D475D70993                           
0000d000  __covrec_612B4EA79531F718                           
00019270  __covrec_61449AE38B530A4                            
00014608  __covrec_614A14DB5C7FA19C                           
0001bdb8  __covrec_614E3FACC915D745                           
0001d460  __covrec_616CE32FFC7272F1                           
000231a8  __covrec_617E8FCBAE7597D0                           
000182d0  __covrec_61840838A007A7EE                           
00011268  __covrec_618A88735E1FD211                           
00015260  __covrec_619272C7739451E2                           
00017420  __covrec_619C2FAE5D265277                           
00009130  __covrec_61A6C052F194855B                           
0000a968  __covrec_61A877EC0BBB6D7F                           
0000aa58  __covrec_61BA743105179B9F                           
00018398  __covrec_61C676D4F7B32687                           
00003758  __covrec_61DF3B37739BE8A6                           
00020390  __covrec_61DF9CC8984FB629                           
00016728  __covrec_61EA836F28914C82                           
0000ab70  __covrec_62001DCB53B20522                           
0001ff58  __covrec_6204ED5D4EDC7D02                           
000074c0  __covrec_62109F73A5C73E90                           
00010bb0  __covrec_6222031EF1F0A122                           
00004b80  __covrec_6227AFE56FFF4D45                           
00017600  __covrec_622C64949E26680D                           
00023dd8  __covrec_6230355C4154A2EB                           
000205e8  __covrec_623CC9784B4121C1                           
00019ec8  __covrec_6280E7CD83141F1B                           
00013370  __covrec_6286C85827C38416                           
00009590  __covrec_629A9358A163118B                           
00006638  __covrec_629B12EC4A1F7134                           
00015670  __covrec_62A98C93F42CDCD3                           
00015170  __covrec_62C0A1F549FDA73                            
00007858  __covrec_62D0EE8E23769238                           
00009ea0  __covrec_62E44F1B32C562CD                           
00006278  __covrec_62E85A39B8187662                           
00010e30  __covrec_62EBE4627AED5F3D                           
00005008  __covrec_6305186D5603F2B3                           
00022168  __covrec_6313EF3067172709                           
000213f8  __covrec_6314EB5485BC7F25                           
00009838  __covrec_63216C2DB060ACA7                           
00020688  __covrec_633024824CBAEE71                           
0001b6b0  __covrec_6335E4F87C82DFDD                           
00006070  __covrec_633C91EE35199F1E                           
00023720  __covrec_6352F0854902E882                           
0001b9a8  __covrec_6357598EEBCB078A                           
00007da8  __covrec_636834419B050CB0                           
000086b8  __covrec_636E8D8CEF6253BF                           
0001eb80  __covrec_6382BE4728128A7B                           
0001a760  __covrec_638756E0999BF942                           
00004798  __covrec_638A3AC729575531                           
0000b598  __covrec_6399B86B8B5945BE                           
0001eb58  __covrec_639B738A714F9727                           
0000f3a0  __covrec_639C819DF7D8F499                           
000093b0  __covrec_63C4AEFF9F080181                           
000189b0  __covrec_63D016BC5F283A2B                           
0000bf48  __covrec_63D73E7826C35CB3                           
00024b48  __covrec_63D8F0E07CCD453E                           
000054e0  __covrec_63D9FD7E5A2A55A6                           
0001da00  __covrec_63DD24C70A829FA0                           
000082d0  __covrec_63E90FF2AB73F056                           
000199c8  __covrec_642A5D35D62CCC35                           
00006228  __covrec_642E5B10B188A3D6                           
0000d190  __covrec_6431399E81DB1F36                           
0001aaf8  __covrec_643F4F8E75138635                           
00020ea8  __covrec_6442263EB4C4ECE0                           
00004ef0  __covrec_644E138B7E858FF8                           
00019a18  __covrec_644EE4DEA57C92BA                           
000173f8  __covrec_6450FD0A03211B5F                           
00007088  __covrec_6454A920071C6A0B                           
00008910  __covrec_6456909145D8F599                           
000014a8  __covrec_6467B20BD9BFB1E6                           
00015a58  __covrec_6471B342D16BEEB2                           
000070d8  __covrec_647981CD8C894CA1                           
000128f8  __covrec_64798FC843A57EC4                           
0000d0a0  __covrec_6493DB06BF22A45E                           
00012778  __covrec_6497BFE2A00B8653u                          
000169d0  __covrec_6498EABD08FE2134                           
0000af80  __covrec_649F40C9A85B3A8C                           
00022a00  __covrec_64AAD3E48D70B9                             
00011010  __covrec_64B28E94CA62B999                           
0001c470  __covrec_64C631C3419D8497                           
00015af8  __covrec_64CC73B6A273C4C6                           
000082a8  __covrec_64D20BAB3E015BA9                           
0000c2e0  __covrec_64D85B80E5F77A40                           
0001fb20  __covrec_65091D5E19CE7236                           
00015800  __covrec_650B600441780F70                           
00019540  __covrec_650D813178C6FBA0                           
000066b0  __covrec_65194143DF55B5                             
00020458  __covrec_65452D93FF7AE6CE                           
0001c060  __covrec_656B3D9D6026034                            
0001d1e0  __covrec_656CD7E4E614AD16                           
000089b0  __covrec_6575FFA245A1E175                           
00015d28  __covrec_657DCEB9CBC9A15                            
00009900  __covrec_65909571E28BCE1                            
0000adf0  __covrec_65930080C4AED8BC                           
00003320  __covrec_65A7EEBDB806F9A3                           
000067f0  __covrec_65A80ACEC266624C                           
00003f78  __covrec_65AB55174D80D2AF                           
00009ec8  __covrec_65B70DF1000966EB                           
00015b70  __covrec_65CF7FB8BFC9DCA0                           
000183c0  __covrec_65FB37FD3ECB0783                           
0001f6c0  __covrec_66203DD865386CF4                           
00003118  __covrec_6658C2E0B666F08E                           
00006250  __covrec_6677360D49B494F9                           
000023f8  __covrec_667D4E53F86D5C75                           
00004f90  __covrec_668003C8E6357776                           
0001cad8  __covrec_66884EF09B90C267                           
00007808  __covrec_66C7D1F198349945                           
0000b2f0  __covrec_66DB19B2A7EBF391                           
00018b40  __covrec_66E9970543670AE8                           
00017d08  __covrec_66FCC1F75E2E4197                           
0001ccb8  __covrec_670FD0ADF37D7A4F                           
0001e770  __covrec_671D097439EB28D6                           
00022320  __covrec_6732255AC3A1FA23                           
00018ed8  __covrec_67345CC240590D89                           
00014ba8  __covrec_674309A670714414                           
00018ca8  __covrec_6769A1B6579C1917                           
00024828  __covrec_676F8970FE61FFB9                           
00012f38  __covrec_6772213A314354D1                           
00008258  __covrec_67808FAEF32C458                            
00004770  __covrec_67AC37F9F25470D5                           
000228e8  __covrec_67B70B543A763C65                           
00014400  __covrec_67DA54DDFC65307F                           
0000bc50  __covrec_67DB0895E616FC9C                           
0001d140  __covrec_67EBF9464B1739FF                           
00023bd0  __covrec_67F0E0E2F00783DA                           
0001a918  __covrec_67F252814530E1AE                           
0000e978  __covrec_67FA65A34EB8AE6D                           
000236a8  __covrec_68010FB294048503                           
00006750  __covrec_68082437DBE18FE2                           
00024328  __covrec_6822925391E24728                           
00023108  __covrec_6858C8E5B39CEB34                           
00009888  __covrec_686469A801C23CB8                           
000231d0  __covrec_6884C285E245124A                           
00012fb0  __covrec_688EB108228CD2D5                           
00011308  __covrec_68BBE23B4D3C0753                           
00003bb8  __covrec_68CE617F7930620E                           
00013af0  __covrec_68D7D6BD174BD691                           
000152d8  __covrec_68D88CCC12AD2A3F                           
00012140  __covrec_68DF83EC3014848D                           
00011740  __covrec_6911B6175FAF2F55                           
00005058  __covrec_692FE685B1AC1CE8                           
00009518  __covrec_6937A188498916FE                           
00024530  __covrec_693DE5C38757BCA9                           
00004630  __covrec_69532FF3D21A91FD                           
00009428  __covrec_695334294E76D45D                           
000233d8  __covrec_695B846627E823D1                           
00019cc0  __covrec_6964C0ABD1B3D33E                           
00017768  __covrec_69790632A0BC140D                           
00017128  __covrec_697D5C899E463194                           
00009310  __covrec_697FFC441CDB2D08                           
00013b40  __covrec_6984BC0E4025AAAD                           
00009ba8  __covrec_6992243A72A5DE55                           
0000a378  __covrec_6994B50692AA6259                           
00005d28  __covrec_69A49B199DFF337E                           
00008de8  __covrec_69A73A0E51BF03EC                           
00020a98  __covrec_69C2D9C3FFABDF1E                           
0001b2f0  __covrec_69C8694219275654                           
00021c40  __covrec_69DE16BA85A71611                           
00021a10  __covrec_69DE4DF1890DADB7                           
0001e298  __covrec_69F779B385F91D45                           
00005580  __covrec_6A0642C5970D4FB7                           
00013e60  __covrec_6A0D657EAAFA6D83                           
0001dd20  __covrec_6A1A64384C549626                           
00016958  __covrec_6A1E7BC147A9A584                           
0001a4b8  __covrec_6A20DA2468D71674                           
00008af0  __covrec_6A3CE61966D39FF9                           
00001b88  __covrec_6A42DF4E09347B79                           
0000b638  __covrec_6A430024219B8D7E                           
0001a0f8  __covrec_6A6362E7A2077239                           
000109d0  __covrec_6ACBA188EAA32EDB                           
0000b0e8  __covrec_6ACEF55C859DA560                           
0001d0a0  __covrec_6ADB0BC98E99DF0C                           
00005f58  __covrec_6AE97663982E383E                           
00021560  __covrec_6AEE3ED1AB86CC6C                           
0000d848  __covrec_6AF03B03A73AC51A                           
0000be58  __covrec_6AF55650CCB77553                           
0000a3f0  __covrec_6AFC04CA9DC39C4B                           
00007f10  __covrec_6B0199E73EFE5A21                           
0001e2e8  __covrec_6B1D995AB962F0B2                           
00010e80  __covrec_6B6BEAE6621EC5D                            
000245d0  __covrec_6B6CF2E8B51150E7                           
0000ecc0  __covrec_6BA17DCFADDD8C2C                           
00007b28  __covrec_6BC1860F28C4D927                           
0000e478  __covrec_6BC6E0CCC71075C9                           
0001d230  __covrec_6BC92AC9CC41220E                           
0000f058  __covrec_6BCBB6D2277E805F                           
00005d78  __covrec_6BD2AA277F149052                           
00013a00  __covrec_6BD34685A631A1D6                           
00014a68  __covrec_6BDA03C7088A51E1                           
00013f78  __covrec_6BF83EE06BDBD2E2                           
000053f0  __covrec_6C067A457A93D4AB                           
000062f0  __covrec_6C4EACA3F39F0573                           
00000710  __covrec_6C53DA2275C49D7A                           
000154b8  __covrec_6C58C8CB7A51E29B                           
00017268  __covrec_6C6D0F2F16F1F38D                           
00013a50  __covrec_6C6F66E03D089E18                           
000027b8  __covrec_6C7008A69A61EAEC                           
00010a48  __covrec_6C73DF94626DCD32                           
0001ae90  __covrec_6C743F583DE17023                           
0000ac88  __covrec_6C787EEE1E0BEE9E                           
00003190  __covrec_6C8DC30E6FF8909B                           
00001cc8  __covrec_6C96CAFA9A490EC6                           
000085c8  __covrec_6CB12BE091A67E69                           
0000c1f0  __covrec_6CB67D67B05AA3AE                           
00018780  __covrec_6CC6679ECBEE14F9                           
0001ca60  __covrec_6CFE6451EC9C52F9                           
00006c28  __covrec_6D110EA2344CE9CD                           
0000b110  __covrec_6D1780077E71C50F                           
00001a48  __covrec_6D1C89178C927930                           
00016d40  __covrec_6D31441440B2B830                           
0000b610  __covrec_6D35D64597EB4397                           
00017e20  __covrec_6D66CFB74E90B79C                           
00008870  __covrec_6D77DB09D1620DB                            
000019a8  __covrec_6D925BC78D55BC95                           
0001ea90  __covrec_6DCA04C94E6C21D3                           
00014d60  __covrec_6DDBBF9D5036FD29                           
0000b200  __covrec_6DE9D33398D76EBC                           
00001ac0  __covrec_6DEB1ED163EFEAE                            
0000e2c0  __covrec_6DECE7DF73AC4EA3                           
0000c920  __covrec_6E1227FEB6BFE405                           
0001cda8  __covrec_6E1A44D3C8BC259D                           
000091f8  __covrec_6E2C96E9EEDCA321                           
00002088  __covrec_6E3936E02D8039F0                           
0000dac8  __covrec_6E3B7BCBA8A6C71                            
00009ef0  __covrec_6E4AA10E1BA0A4D7                           
00020868  __covrec_6E5290F4B1AC7C97                           
0000a760  __covrec_6E55765A6A7CACDD                           
00010228  __covrec_6E6F17F4D1864EA5                           
00010ca0  __covrec_6E855AFDE7A3DA25                           
0000ac60  __covrec_6E8CDD6D58BE2A4A                           
00010520  __covrec_6EB70948192748F9                           
00021e98  __covrec_6EBA548D6F415BA1                           
00003258  __covrec_6EBB4484CCD6F1D4                           
0000bd68  __covrec_6ED322FDC4910103                           
00017b78  __covrec_6EE2BF9459318274                           
00018ff0  __covrec_6EEA99F60149DC25                           
000059b8  __covrec_6EF58BE13179E536                           
0001cfb0  __covrec_6EF8002856E4CBFC                           
00015148  __covrec_6EFB6DE4C2F58B43                           
00008d20  __covrec_6EFFFCD273F67852                           
00010b60  __covrec_6F0067B485E6C90A                           
00021e48  __covrec_6F0FAD3458A6C65F                           
00021588  __covrec_6F20C2D7023DB8E8                           
00004ce8  __covrec_6F23B8796C703558                           
00004720  __covrec_6F247D0192E50EBD                           
00011d80  __covrec_6F2C280713D8795D                           
00007a38  __covrec_6F468E21615A93E7                           
0001bd18  __covrec_6F6B58E351921A4C                           
0001b5e8  __covrec_6F87E0D31011FA87                           
00020c28  __covrec_6F902A328862CA3C                           
00014770  __covrec_6FA5483804028977                           
000030a0  __covrec_6FB3FBF4BCAB0FBD                           
0000a7b0  __covrec_6FB6455F1C834422                           
000193d8  __covrec_6FC2A34653C7B741                           
00020c78  __covrec_6FC781AA1F8A0AF6                           
0000dd20  __covrec_6FF7E7D5165A2FF5                           
00016688  __covrec_70073D59154FBB90                           
00016c00  __covrec_70226340E9DAF01A                           
00019e28  __covrec_707AD4A7445FB443                           
00024ba0  __covrec_708B7A7D79BBA6F8u                          
00016048  __covrec_7092067BD5916200                           
0001df00  __covrec_70AB79C230504C55                           
0000b3b8  __covrec_70B281B5EC3E487                            
0001be30  __covrec_70CF8CA989011034                           
000169a8  __covrec_70EC87587136D382                           
000029e8  __covrec_710B558E3943E575                           
000213a8  __covrec_710DEE95B1A70540                           
00021d30  __covrec_7139FD0F045F9185                           
00023e50  __covrec_7149D062015CF471                           
00002ce0  __covrec_7153677CC670D312                           
0001d8c0  __covrec_716AB83B32900FE5                           
00006f48  __covrec_719B926659E5F12F                           
0000fcd8  __covrec_71BA7274BDF77C25                           
0000fd78  __covrec_71BABAA98C456FDD                           
0000cf10  __covrec_71CE4DBB7A214158                           
000178f8  __covrec_71DB72C3301D9EA2                           
00000210  __covrec_71FFCA80BB3F1D03                           
00000558  __covrec_7219B78780E92BD5                           
00003370  __covrec_7225140012710BA3                           
00016390  __covrec_7228F69D8F36EB6F                           
0000cbf0  __covrec_72297716A701B796                           
00012da8  __covrec_724B69EBC536E402                           
0001a288  __covrec_7267E5B89742BDEF                           
00017c90  __covrec_726A5C9D52F7F5E7                           
0000d758  __covrec_726B40ADD07CF149                           
000187a8  __covrec_7291D6678338BC48                           
0001f120  __covrec_729FBAB722BFBBA7                           
00002a38  __covrec_72C4B34DEC52800                            
00000df0  __covrec_72D214962052ED3A                           
0001ce98  __covrec_72D21F5906349DB2                           
0000adc8  __covrec_72FC1F6525C1AD78                           
00004bd0  __covrec_72FDFF4D7B599535                           
0001c538  __covrec_73146D47C2268B40                           
00024210  __covrec_731B204584E19236                           
0000fd28  __covrec_731CC7973AAF501B                           
000118d0  __covrec_7326BDC20F8512B4                           
00011ba0  __covrec_7327204B5F967E6C                           
00016160  __covrec_735D7B941E383EA1                           
00007998  __covrec_736CA3B71F3DA3E3                           
00022140  __covrec_73735C19FACE89E4                           
000114c0  __covrec_738AC0DBB08CF207                           
0001d258  __covrec_73921255196ED739                           
00015710  __covrec_73B1F7479AB6411A                           
00011808  __covrec_73C1F87D91773F33                           
00014f90  __covrec_73DD9FCB2CCA7C8E                           
0000ba48  __covrec_73E180F067BE584B                           
0000fa08  __covrec_740B79B2BA53CB23                           
0000c290  __covrec_74357F5711C27AD3                           
00014e78  __covrec_7462DC7A71D86840                           
0001ef40  __covrec_746721CCAF0ACA8E                           
0001e568  __covrec_746E139C881AA4DE                           
00021d08  __covrec_74794AE17B5C57B9                           
00002c40  __covrec_747D4E7A4E76176B                           
00024800  __covrec_74886A0737907A5C                           
00006f20  __covrec_748BE3DC7FDE4285                           
00024940  __covrec_749663B955003AA6                           
0000f990  __covrec_7498C75F5C22A36E                           
00021240  __covrec_74AD938A5BA92A7E                           
00001e80  __covrec_74B16093F5C7F6BD                           
0001c7b8  __covrec_74B4AAA5875A1A40                           
000149f0  __covrec_74BCAFA8ECADE0A0                           
0001a990  __covrec_74BF17EF8000DDA7                           
0001df28  __covrec_74C599A820D7E755                           
00003aa0  __covrec_74DF40D9D60AD4EF                           
0001d7f8  __covrec_751C6A39772D4981                           
00005990  __covrec_75392995535578F6                           
00023158  __covrec_753AC122F5322A9A                           
00013d20  __covrec_753F40F7B964E92B                           
0000df28  __covrec_75417E69DAE50DC3                           
00012ba0  __covrec_754324FB8D9A7A07                           
00022a28  __covrec_7549A71CC7241F46                           
000167f0  __covrec_754DE0ABC1699C52                           
00020020  __covrec_754FB894AEB3A2B4                           
00014978  __covrec_755B8BFE980A79C2                           
00008c80  __covrec_757997A262B541A6                           
0001ed88  __covrec_757BBA318B051CC4                           
0001e810  __covrec_757DFFBA2ED8856A                           
00014540  __covrec_759DA5659B0848DA                           
0001b200  __covrec_75A8DE6340DA4CB3                           
000097e8  __covrec_75A9ADC78BB595AB                           
000151c0  __covrec_75AAF50C859E50CC                           
00004158  __covrec_75AEF0F6C3117952                           
00023338  __covrec_75B4464203626D69                           
000013b8  __covrec_75D2B8DECF980907                           
000191f8  __covrec_75E3E8E045B77C3                            
00012ce0  __covrec_75F1BF7FBDDFEB47                           
00015dc8  __covrec_75F48255A7DB16EE                           
00020610  __covrec_75FF3BCF01AD1DCE                           
0000b9d0  __covrec_7619C5D1447F825F                           
00007970  __covrec_762D03ED4FC2B723                           
0001fe18  __covrec_763DF4557E4E5E72                           
0001c1a0  __covrec_7642F55933F834AD                           
000089d8  __covrec_7671AB8D06A20227                           
00011538  __covrec_7684028E24EED307                           
000130a0  __covrec_76904C01277EB08D                           
0000a350  __covrec_76A4D2C396D6FA29                           
00019c98  __covrec_76D4C9D79366C347                           
00013528  __covrec_76E4256734D158F0                           
00011290  __covrec_76ECE4DA26F57C0B                           
0000f8c8  __covrec_76F21A84664CB7FD                           
0001af30  __covrec_76FA1361CF01BDA3                           
000068b8  __covrec_76FC393EE723569B                           
0000e220  __covrec_771F41CEE9C459B3                           
00002218  __covrec_7735CDCE1349C570                           
00011628  __covrec_773C6A25D12759BB                           
00005328  __covrec_7740CC9B6585C557                           
00010110  __covrec_775E3C10B70E0995                           
0000b8b8  __covrec_7785D6C8B067B604                           
00017fd8  __covrec_778D7F40FA03F2E9                           
00020d68  __covrec_77AFE7D5BE45A231                           
0000e608  __covrec_77D6A1E0981752A8                           
00024698  __covrec_77E8D9E82E558C56                           
0001c768  __covrec_77EC49B74F3623B4                           
00006a20  __covrec_77EEBEB7560D4AD5                           
00020778  __covrec_780EF97DE54A250A                           
00021c68  __covrec_780F2DA8DE31FC9E                           
0001adc8  __covrec_78368865D6205216                           
00018c08  __covrec_78426C8A160B6351                           
000075b0  __covrec_784344A264A5F2C5                           
0001d168  __covrec_7849C203D9D4558A                           
00023860  __covrec_784B640CB8E108BA                           
00016430  __covrec_78597822E22CC415                           
00021c90  __covrec_786C1CC0E1F24C6C                           
00001390  __covrec_7890599F671BF9CE                           
00012b28  __covrec_78A6620B2B654D40                           
000053a0  __covrec_78AD29D61BFDBB9                            
00015878  __covrec_78AD70B3007626BA                           
0001ffd0  __covrec_78BBAA4C0B416C21                           
000016b0  __covrec_78C609CE49D4F28C                           
00019130  __covrec_78E44053E051208B                           
000217b8  __covrec_78F30011E96A5C42                           
00016868  __covrec_79080B738D71DCA0                           
000108b8  __covrec_790A4CAE172E213E                           
00016908  __covrec_79177773D074D56A                           
000034b0  __covrec_793BB089341C84EB                           
00003a78  __covrec_793DFBEC3AA57388                           
00019d60  __covrec_79483E28CA94B7B7                           
0000ebf8  __covrec_794E687C750D2B1E                           
000196a8  __covrec_7970AA4372F62F23                           
0001cf60  __covrec_79B455E75A91963                            
000204d0  __covrec_79B4F91832129CA6                           
00007358  __covrec_79BBD943383931C9                           
00016cf0  __covrec_79D6AA16F231D6E                            
000179e8  __covrec_79E89AE24E1E33A3                           
00006b60  __covrec_79F31BF247F5B25A                           
0000ad78  __covrec_79FE1084C1217F51                           
000214c0  __covrec_7A067878B7FDE586                           
00013de8  __covrec_7A071E65D3316B74                           
000235b8  __covrec_7A0EA898D56D0CFC                           
00005ee0  __covrec_7A4EC9B4CEBD8B5D                           
0000d230  __covrec_7A5DDC8A48407DEC                           
0001c560  __covrec_7A9B0D8ED1CC3EDE                           
00013050  __covrec_7A9D5D7B9AB5F84B                           
000212e0  __covrec_7AA1C05CED579EC5                           
0001f008  __covrec_7AC6F1147BA12A69                           
000186b8  __covrec_7ACF2422A306985E                           
0000e388  __covrec_7AEB782B80569839                           
00002380  __covrec_7AF21D2EFCC9B316                           
0001e6d0  __covrec_7AF5297569FCAA08                           
00004478  __covrec_7AF6560AB772BEDF                           
00024300  __covrec_7B0291F67719FE1E                           
00010318  __covrec_7B0C5B6F9443C775                           
000138c0  __covrec_7B0D1997C0B96950                           
00011f60  __covrec_7B0FE06070DA9E1C                           
000096f8  __covrec_7B19F13EF535868B                           
00016408  __covrec_7B1BF4E8C50F2A0D                           
000221e0  __covrec_7B424DF0B25FFF2D                           
0000d690  __covrec_7B47829B3F40CF9F                           
00015530  __covrec_7B4F680C24B702F2                           
0000d5a0  __covrec_7B77F0DF3FF3B280                           
0000a210  __covrec_7B7B7F5E63C6852D                           
000178a8  __covrec_7B7E33D7E8902EE6                           
00014f40  __covrec_7BB562F45E0D5B23                           
00024710  __covrec_7BCD1EAB9F4C3537                           
000196f8  __covrec_7BCFB99D45157AF6                           
0000cfb0  __covrec_7BDF98DFF162BB55                           
00018898  __covrec_7BEAFE9253C2DC91                           
0001fc88  __covrec_7BF25F52501F5463                           
000078a8  __covrec_7BF47FC08D371B3A                           
0000e5e0  __covrec_7BF97AA47FCE3C45                           
000021c8  __covrec_7BFB759F0D2148B8                           
00018e88  __covrec_7C1807FD8A2400E0                           
00007718  __covrec_7C1C97CB2CEDB133                           
00010368  __covrec_7C2D7C8CB1A12C94                           
0000e658  __covrec_7C64F0B29D3CB7F6                           
00023c98  __covrec_7C742A04106EA598                           
000091a8  __covrec_7C95548AD104DFD8                           
0000e298  __covrec_7C95CDC63CCED9C7                           
0000c010  __covrec_7CC2069F8BA9935E                           
00020f98  __covrec_7CE52103876A38E8                           
0001b598  __covrec_7D0DD1100E5C3292                           
00024760  __covrec_7D40DEB2329FBEA7                           
0001be58  __covrec_7D42ED8A1849121                            
0001e888  __covrec_7D4D287D0E89CC67                           
000197c0  __covrec_7D5CB73C05FC6F34                           
00022988  __covrec_7D622BAF5C1DD492                           
0001e270  __covrec_7D68043D64CDCF90                           
0000d7a8  __covrec_7D918E535BE97F7C                           
00021420  __covrec_7DA2BD1290B5E601                           
0000a710  __covrec_7DBD191316F5EABA                           
0001d938  __covrec_7DEA2A08886235ED                           
000162f0  __covrec_7E094802DB2C7872                           
000060e8  __covrec_7E0B738386A8EF6A                           
0001c8d0  __covrec_7E376119588B9530                           
00017948  __covrec_7E3C84C442B06ADC                           
0001b638  __covrec_7E4E238AD334240D                           
00012c68  __covrec_7E833D27BC76F69                            
00009b30  __covrec_7E86E09A60EFD20A                           
00022cf8  __covrec_7E8D5D9947CB4DEB                           
0000b048  __covrec_7E92DF62825C5CFD                           
0000a9b8  __covrec_7EA4147E6C547E99                           
000044a0  __covrec_7EDA996C810A9B09                           
00021ad8  __covrec_7EF36698A1E34789                           
00020c00  __covrec_7F39F8D4F7AA2194                           
00000760  __covrec_7F4E20D181868532                           
000224b0  __covrec_7F52CB605BDD2FE                            
00013500  __covrec_7F5390900BC1E039                           
00008dc0  __covrec_7F678E3C386D5052                           
0000b368  __covrec_7F72BD6B7003F342                           
0000aaa8  __covrec_7F7A1280EC71DB3E                           
000084b0  __covrec_7F971562A8D23D9F                           
00003a50  __covrec_7FB798F36F9A386D                           
0000d780  __covrec_8029F7EE7AB2E6EE                           
00002f88  __covrec_803B5347AAE64CFE                           
00017a60  __covrec_8040F2CFD3D473A4                           
0001fd78  __covrec_80440FC7E70A608E                           
00008a28  __covrec_804C17FC575CB0B8                           
00002178  __covrec_80604E48A87B1199                           
0000b098  __covrec_8068B0CBBE306F42                           
0001de88  __covrec_8073F98D4C5CB220                           
00000620  __covrec_809558845147D33B                           
0001e400  __covrec_80A20283D33EB74C                           
0000b2c8  __covrec_80A2D283AB0EEC2B                           
0000cda8  __covrec_80A356B7C274D80E                           
0001cc40  __covrec_80A35A396107311D                           
000240f8  __covrec_80A470E2383756C7                           
00006598  __covrec_80B0FFD7FCF98B69                           
00011fb0  __covrec_80D5D6996CBC34A4                           
00015120  __covrec_80DCCF459AA832D6                           
0000fbe8  __covrec_80E789A36018789D                           
000168e0  __covrec_80EFDD160ECC63A5                           
00023e28  __covrec_80F12DDB53016D40                           
0001e608  __covrec_80FAC2C06823F74B                           
0000c600  __covrec_80FC681A8953ECB4                           
00022488  __covrec_80FD584348984E04                           
0000edd8  __covrec_80FE821732F5F2F5                           
00019180  __covrec_80FFFF73B4ABC887                           
0000fbc0  __covrec_8103135527037AC2                           
00018d98  __covrec_810D579CAA1E6A5D                           
000148b0  __covrec_81193C19F1226052                           
0001dac8  __covrec_811ED8DACF2F0A4C                           
00020e80  __covrec_811F42F540BF9F2A                           
00024788  __covrec_812471B10D40FFA1                           
00002308  __covrec_813157FFE151C1DF                           
0001c1f0  __covrec_813E893FC027E207                           
0000e450  __covrec_813EFD993AFF2BB7                           
00001548  __covrec_8141224FD39CE077                           
0001cbf0  __covrec_81467A257584C92B                           
000217e0  __covrec_81785CEA135AD10E                           
0001fbc0  __covrec_817DA88F4397C3F0                           
0001a800  __covrec_8196FC9DDEF99D32                           
0000c650  __covrec_81A4E43B346ED3F5                           
0001fc10  __covrec_81D9214AFD4BDAC9                           
0000d7d0  __covrec_81E95EA0E694E087                           
00023428  __covrec_81F37EBCBF637F88                           
0001e5b8  __covrec_81F4A0B0F22321B5                           
00001480  __covrec_82140C191C2E04BB                           
00007df8  __covrec_822128941F1018D1                           
0001f3c8  __covrec_822640F61646CC5D                           
000153c8  __covrec_823F1D2457AF8D4E                           
0000d280  __covrec_82523A93A9718750                           
0001bf98  __covrec_825B61DE411E2061                           
000229b0  __covrec_825BEE18E61FC99A                           
00011650  __covrec_825DFF6F1DC9CF00                           
00005698  __covrec_82652B84706C49B2                           
00013ed8  __covrec_826D827693E26F8E                           
0000eb80  __covrec_828BA11983CEF539                           
00002010  __covrec_82A3C31D971F9882                           
000143b0  __covrec_82D68F70652044A4                           
00018aa0  __covrec_82D6940BA8D59531                           
00021128  __covrec_82FF712195CADFA0                           
0000e040  __covrec_8303F1BD18CA7E2                            
0000cdf8  __covrec_83056C9A0AF6F524                           
00015328  __covrec_831A63E7C251114F                           
00012e48  __covrec_831E1A4E4267625                            
00018988  __covrec_831EB062A57A0618                           
00020f20  __covrec_832A43C86DB40C1D                           
0001fb48  __covrec_8334D045F180AF32                           
00012410  __covrec_833F0BC397767F2D                           
000247b0  __covrec_8348022D202C8AC0                           
00006368  __covrec_8359E5331D998291                           
00004068  __covrec_8376281344521E79                           
0000a508  __covrec_838D660945361D3D                           
0000a0a8  __covrec_838EABA01914E9F6                           
000040b8  __covrec_83A550955EC188C1                           
0001b9f8  __covrec_83A7E935CDCDEF7A                           
000019f8  __covrec_83C9A53220BC9F62                           
00000300  __covrec_83CD128B1658A8A8                           
00014b80  __covrec_83FC5939804F48BE                           
00010930  __covrec_83FEEA866112B28D                           
00013820  __covrec_843E4D1E9BF6B555                           
00010430  __covrec_84476516E142F135                           
00005670  __covrec_845CC49CF4881322                           
00022bb8  __covrec_845FD839DBC7C1AF                           
0000f210  __covrec_8467CEA4CC190BD5                           
00003910  __covrec_846FA03C787A2165                           
0001c998  __covrec_848A2C0F944BCCE0                           
000219e8  __covrec_84B2FD790164F848                           
00021038  __covrec_84B49415AF1868AF                           
00020b88  __covrec_84D04A2932D868E1                           
00017e70  __covrec_84E26731CB5A9EAC                           
000084d8  __covrec_84F3BD520FE33ED6                           
0000a4e0  __covrec_8527805B2F2E4D0D                           
0000d7f8  __covrec_85314095522AF0A0                           
000149c8  __covrec_8546DDDFA9C4DAA6                           
0000c3a8  __covrec_8569CD8C968D2C06                           
0001ba48  __covrec_856B515851EDB492                           
00017470  __covrec_858246B40FF97B3A                           
0001db18  __covrec_8589C79F6871C223                           
00011218  __covrec_859A01F84CAE0E35                           
00019ef0  __covrec_859E28C748FFE64C                           
00010958  __covrec_85A23F6F9B907604                           
000098d8  __covrec_85A6888E35372863                           
00017178  __covrec_85D07076A9880596                           
00000418  __covrec_8607766183961147                           
00009860  __covrec_860A4A6FBDE0D933                           
000104d0  __covrec_860D74F59FAA87CE                           
0001e180  __covrec_861ECA2F7740943D                           
00016e80  __covrec_862F74E5EAEB7D2C                           
0000dcf8  __covrec_86340643F7607590                           
00018e10  __covrec_8656F45CC3A9BD8D                           
0000c1c8  __covrec_8678D810F1DCED6F                           
00004248  __covrec_868357C6DFC99EB4                           
00007c40  __covrec_868DF4CCF3B7589D                           
000019d0  __covrec_86BAB02BADBA7CFD                           
00014ea0  __covrec_86BE7AAE5C9A1D91                           
00018f28  __covrec_86EFB8D70E3195D9                           
000007d8  __covrec_86FB69AA390AAAD                            
00024170  __covrec_871145ED86CD1F0                            
00024b70  __covrec_87407FA9A44A40A2u                          
00023b08  __covrec_87AAEC4718B9F8AC                           
0001f468  __covrec_87B54D9AAE31261B                           
00014658  __covrec_87C9BEA1359FC9A0                           
0000f878  __covrec_87DD226491B16B32                           
00016070  __covrec_87E2C683173C05DA                           
0001d5c8  __covrec_87F49CE40477D202                           
0001afa8  __covrec_8813AE4156258C77                           
00003500  __covrec_8817CEA02751DAB6                           
00001318  __covrec_88189A5882C88BDD                           
00004e28  __covrec_88199B73FA78983E                           
00012a60  __covrec_8833BE5CC8D8CD39                           
00018870  __covrec_883C1BD346B3B6A7                           
000094f0  __covrec_8846CE73CAC4C19D                           
0000fc88  __covrec_884ACD7416367C8F                           
0001de38  __covrec_8863A4DB3AC090CF                           
00000328  __covrec_8867EE2CFA5D37BB                           
00015f08  __covrec_887A079051E440D0                           
000153a0  __covrec_889A5AA5ACC834CB                           
0001a4e0  __covrec_889B730B19F33BB5                           
0000e900  __covrec_88AAE6497C627221                           
0001a198  __covrec_88AFBC48C36297DD                           
00002128  __covrec_88BD2BAB1E7B13A4                           
0000cc18  __covrec_88C8AECF8C6FB5C8                           
00023478  __covrec_88D20376481FF100                           
00005bc0  __covrec_88EF917E78DC5F0F                           
0001bb88  __covrec_89030C179EB9C81C                           
0001c308  __covrec_890AAC5CB222EC4D                           
00001ca0  __covrec_890CC5DA68653F07                           
0000d528  __covrec_891832A50BD3BA81                           
0001cc18  __covrec_892CE1FEF10A5D0D                           
00010bd8  __covrec_895AA7F08564DDEB                           
0000b958  __covrec_8969EC415BCC4C1A                           
0000a418  __covrec_897C71F8A1152CB                            
0000d730  __covrec_898B3298F8B6F736                           
000006c0  __covrec_89903EA3BA97B7DA                           
00006d90  __covrec_899BDB20D7E53C76                           
0001fb98  __covrec_89A03468FB70BAED                           
00018b18  __covrec_89DB25962A5EB408                           
00009658  __covrec_8A136986D23C2F96                           
00015f80  __covrec_8A1E5EF64B22B12B                           
0001be80  __covrec_8A1F9CA0D4334F06                           
000227f8  __covrec_8A28EF8B3F240F7D                           
00004d10  __covrec_8A4356745E9D807D                           
00007b00  __covrec_8A501F393B3E2F0B                           
0001dbe0  __covrec_8A5792BFD162766B                           
00012e70  __covrec_8A64EB646297B7C9                           
00002d30  __covrec_8A79B91E73DE11F2                           
00005148  __covrec_8A8470CD74199380                           
00012580  __covrec_8A9FB042CC4F2B10u                          
000141d0  __covrec_8ADC157C3BA0D74                            
0001e310  __covrec_8AE8A728D35176EE                           
00000170  __covrec_8B00F12D52BE4B37                           
00006930  __covrec_8B0F850B93AA1929                           
000001c0  __covrec_8B18CF5C7CA66D58                           
0000acb0  __covrec_8B192BDB6E6F58A2                           
00014180  __covrec_8B1AB1F5C66D6D39                           
00002880  __covrec_8B1FD72B653FE6C7                           
00004ae0  __covrec_8B37DB5F6DBC9759                           
00011f10  __covrec_8B37F97D8FF91917                           
0001ab98  __covrec_8B3C2D954ED0BA75                           
00003ff0  __covrec_8B3CE83DACB492A                            
00006ea8  __covrec_8B441CF08FAC73E1                           
0001bcc8  __covrec_8B4A5432F640F7CC                           
00004ba8  __covrec_8B6481C8A6B39313                           
000136e0  __covrec_8B65E50AD9B90CB2                           
0001f058  __covrec_8B74CFDA35A78F8A                           
00022c58  __covrec_8B753A5C478F8754                           
00010ae8  __covrec_8B83ACB8CA6AC34F                           
00007380  __covrec_8B89719C51E1CAF2                           
000236d0  __covrec_8B9A3DF1DFB13D5                            
000176c8  __covrec_8BA3D2C2EDECD73D                           
00012dd0  __covrec_8BB0E9BD6752B68F                           
0001b4f8  __covrec_8BCACFC8A7CAB002                           
00022078  __covrec_8BDFCF1999B7FA38                           
00019dd8  __covrec_8BE10D2019571717                           
00016840  __covrec_8BE702C3BEFDEA81                           
00000d28  __covrec_8BF536BEF951F29C                           
00011a10  __covrec_8BF9FCABA2E59FF2                           
000085f0  __covrec_8C04387BCC7E0C3E                           
00018910  __covrec_8C3011EFB7930608                           
00000990  __covrec_8C46E79E23C68442                           
0000a1e8  __covrec_8C60226D7271C7B9                           
00013a28  __covrec_8C68376B81A654D                            
0001f198  __covrec_8C7B9AC84A1290D6                           
00001728  __covrec_8CA087EE45EA69A                            
0001c8a8  __covrec_8CC132A12E67D303                           
00012f88  __covrec_8CC88C2980D5E8E7                           
0001cf88  __covrec_8CCB7565812889A7                           
00002858  __covrec_8CCD31D87EB503B2                           
00006d68  __covrec_8CE55DE4106A73CB                           
000139d8  __covrec_8D041F01DCFF76E9                           
00018618  __covrec_8D17775B98F2D331                           
00017da8  __covrec_8D1AA427298D1344                           
00017a38  __covrec_8D4838020815225E                           
00023a90  __covrec_8D541966D9D56E19                           
00019ba8  __covrec_8D6FF92E7B672D3F                           
0000c768  __covrec_8D7654C525AE6A49                           
000104f8  __covrec_8D7B6850A2C89ABD                           
0001d320  __covrec_8D824999EFBDB130                           
00023838  __covrec_8D90CBB889ED1FE5                           
000056e8  __covrec_8D944B1D28D14D33                           
00020d40  __covrec_8D95D35639606030                           
0001db68  __covrec_8D9CC3D5970D5F2                            
0001b2c8  __covrec_8DA516C1E6826A9E                           
000224d8  __covrec_8DCACE79A3C220A9                           
00007a60  __covrec_8DDD98D07AD708F0                           
00017d80  __covrec_8DFC72E8925CC73                            
0000ce20  __covrec_8DFCB4F87D03431F                           
000202c8  __covrec_8DFE773213DB51DE                           
00020750  __covrec_8E0C3A5E8D1D8B34                           
0001fa08  __covrec_8E0D2AC8B7B51C20                           
00017b00  __covrec_8E0F7C647D51BFD2                           
0001d118  __covrec_8E12A2008EF3ABE8                           
00006ae8  __covrec_8E17962CCD301CE3                           
0000f530  __covrec_8E398DB1B26C214E                           
00001188  __covrec_8E5B0D531293FA87                           
00011b50  __covrec_8EA3766D98DFC6C2                           
00021e20  __covrec_8EA5F89D745F0C6A                           
00021650  __covrec_8EB22456CBE7DB26                           
000187d0  __covrec_8EBE3C0B375841A4                           
0000f940  __covrec_8ECDFF7E9A533E7E                           
00009630  __covrec_8ED1815E67653F17                           
00014a90  __covrec_8EE48BF767F05E71                           
00010390  __covrec_8EEC972D70DC941F                           
00014428  __covrec_8EF895267F5CDD60                           
00020db8  __covrec_8F001A8FBE0D0EA1                           
0001ada0  __covrec_8F06D388B748E7A8                           
0001cf10  __covrec_8F284A69A811272                            
00011ab0  __covrec_8F447BE16C6CCA56                           
000058f0  __covrec_8F5300284C3730D1                           
00006b88  __covrec_8F5600A6DFA2DE56                           
000021f0  __covrec_8F86C935430742BB                           
0001a210  __covrec_8FA27FFC6507F02D                           
00010c28  __covrec_8FCEA764F7EA338D                           
0000fa58  __covrec_9005E24FA24ACE37                           
00010ac0  __covrec_9026C1D51F698BAD                           
000143d8  __covrec_904ACE8D0D9342BF                           
00020728  __covrec_905E63600D3955D3                           
00005490  __covrec_90632DD2A15CBB99                           
00008c08  __covrec_9065D8E5341A221D                           
0001dc08  __covrec_9071575618984415                           
000178d0  __covrec_90C9B803289D8B5B                           
00022668  __covrec_90CD5B778C8D157F                           
0001e0e0  __covrec_90D55D76C1B40953                           
00020b38  __covrec_90DCF7F79E49CAAC                           
00007a88  __covrec_90EAAF50B7930E3F                           
0000c8d0  __covrec_90F939130AE6613B                           
00004748  __covrec_910961E56934863C                           
00015c88  __covrec_910A6D471848A06A                           
0000e018  __covrec_91184F06CD2C09B8                           
0000e7c0  __covrec_9118E07B49802D66                           
00020930  __covrec_91246371028CE229                           
0001e478  __covrec_91268A0619F1717E                           
00024a08  __covrec_913EA166209F947B                           
0001fcd8  __covrec_914E974F02E5E35B                           
0001ca10  __covrec_91615256E6397B28                           
00023568  __covrec_916FF1DCA6C18374                           
00010340  __covrec_91713B9B0102F5B                            
00011358  __covrec_9186AC0445C96962                           
00019a40  __covrec_9189174E9CA856EE                           
0001a238  __covrec_91A85A47E46E837B                           
000047c0  __covrec_91AE7CAD7CDA0B0D                           
0000b340  __covrec_91CC60C21DCEBF24                           
0001c038  __covrec_91CF93C22BDB4813                           
00007c90  __covrec_91F601ADCC6C6D2B                           
00009180  __covrec_91FB8202B8D96313                           
000169f8  __covrec_920260ADD4BAECEC                           
0001e4c8  __covrec_92053EA39EF00CBD                           
00022fc8  __covrec_922DA92A28304F0F                           
0000d370  __covrec_923A49D5CA78422C                           
00010ef8  __covrec_92437C497FF04B42                           
00017bf0  __covrec_9255662AF750EBBF                           
0001d3c0  __covrec_9256D4F3A2C9619B                           
00000198  __covrec_9275560A7E7E538E                           
00013208  __covrec_927B310F26D3C792                           
00017380  __covrec_929C3D7BA5E7A98D                           
0000dde8  __covrec_929D8AC9D8B44137                           
000049c8  __covrec_92AAA9CF543DC84F                           
00018cf8  __covrec_92B52E0B3366C97                            
0000cc90  __covrec_92DD0C1DC9242C31                           
00001070  __covrec_92FFB6A54C2A296D                           
000164f8  __covrec_9329FD48AB2E1274                           
000207a0  __covrec_932E0709331E6B6B                           
00015058  __covrec_934A4CFD323FFCEA                           
000218f8  __covrec_935E5F4BC12023D3                           
00013118  __covrec_9371DF3BA7A24845                           
000015c0  __covrec_9372C85102BB981F                           
00004b08  __covrec_93736800063F6B7                            
0001f760  __covrec_9384DA28BA881739                           
0000e4a0  __covrec_93917DD3016E6C66                           
00000788  __covrec_939A9BE9C3BB19AD                           
00015cd8  __covrec_93AB60BEB75C916D                           
00013410  __covrec_93B792D30284781D                           
00005788  __covrec_93BC64042E4A8808                           
000024c0  __covrec_93C95BADCFB91FD4                           
00009298  __covrec_93CB117149ABD7CF                           
0000cee8  __covrec_940D91F714D96096                           
0000dc80  __covrec_943451C9D8CE0662                           
0000a850  __covrec_943D7004B5947658                           
0001e798  __covrec_9446C51CC8E8E80F                           
00005648  __covrec_944B131ED2943DA                            
00003af0  __covrec_94543CA233A27D48                           
00017ec0  __covrec_9455C9786A09CB57                           
000137d0  __covrec_945B320FDD26C251                           
0001d690  __covrec_945ECCD4F2946F36                           
000209f8  __covrec_94630ABCD1F71558                           
0001d2a8  __covrec_947018608C3D9167                           
000051e8  __covrec_947632A115E8241                            
0000bcc8  __covrec_947797BC4FE7FDBA                           
00011d58  __covrec_9487C4761757EA20                           
0001be08  __covrec_948B551B6988013C                           
00008050  __covrec_949781C523B07F60                           
00009f90  __covrec_949EF2E7CC5B87D0                           
0000aad0  __covrec_94B954E8A688F672                           
000065c0  __covrec_94E47B32CF41F522                           
00015e90  __covrec_94E6AF6193706E7F                           
0001cd08  __covrec_94FC025036BEDEC0                           
00021380  __covrec_9517842FD8D805A0                           
00011128  __covrec_952741BFEA8C02E1                           
00011948  __covrec_95345A2A021AE11A                           
0001b908  __covrec_954D554981613485                           
0000e6f8  __covrec_958BBF7AA03EB7A0                           
0001cd58  __covrec_9592186C0C7D6FA5                           
00004298  __covrec_95C3FA5BDD7FBE1E                           
0001af58  __covrec_95D71764A59AEC27                           
0000a288  __covrec_95E2C5D7CFE865DA                           
00011600  __covrec_95EB6B6F60E47795                           
00017038  __covrec_960AA1E8FBB5B563                           
0001df78  __covrec_9613F930BEF71DDD                           
00010d90  __covrec_9613FC895708B7AE                           
00005760  __covrec_96181CAA1BF8F78F                           
00008f78  __covrec_962FAEEB7DB3AFC2                           
00007650  __covrec_96375EEC88E9CBBB                           
00015a08  __covrec_9637A9217038C34B                           
00021060  __covrec_965CD31C1298714E                           
000129e8  __covrec_9672CC8BFCA5E55F                           
0001f530  __covrec_96777DB40E8EF14                            
0001b228  __covrec_967BFC98B61002E2                           
0001ed38  __covrec_967F9D7DA7B29977                           
00014748  __covrec_9684DC37DE1EE5D0                           
0001d2f8  __covrec_969B534D19665BDF                           
000120f0  __covrec_96A587A1F1B5FD8                            
00018230  __covrec_96AA8D61B3A8DA35                           
00019a90  __covrec_96AE1425C6CA1E9C                           
000134d8  __covrec_96B898C1AEF5ABFE                           
0000b7c8  __covrec_96CB6E466B4D81E1                           
00006188  __covrec_96DDCA793670F239                           
0000ee00  __covrec_96E5FF034E57DECE                           
00000f30  __covrec_96F03E0AD484281                            
0000b1b0  __covrec_96F5C9E922F86CD3                           
00023360  __covrec_96FA237B6317939A                           
00011b78  __covrec_97011F7D1E71EEF9                           
00001458  __covrec_9702AFC31C416D72                           
00017830  __covrec_9712907A002D60F7                           
00005800  __covrec_97321DFE1285E1E3                           
0000d910  __covrec_97438CBEC15F0018                           
0001c8f8  __covrec_97505DF3A3ED9895                           
00001750  __covrec_975A80303D9D15F8                           
000023a8  __covrec_97721138E8A98378                           
00015a80  __covrec_97A00561A864863A                           
0001b660  __covrec_97BE04EE290C2F02                           
00007510  __covrec_97C7615129864BEE                           
0000a5f8  __covrec_97CFC592B556F598                           
0000c060  __covrec_97F0427FF81A1B19                           
00002470  __covrec_97F5C53504315CE8                           
00013e38  __covrec_97FE914C95D2847E                           
0001a0a8  __covrec_981A9F8688DAB97D                           
0001c9c0  __covrec_982466CC2ACC15EC                           
00013f00  __covrec_982A03B6F4015226                           
0000d1e0  __covrec_9845BA599AD877E1                           
00004360  __covrec_9849B267E2833B7E                           
0001b9d0  __covrec_984F02E3E0699504                           
0001c0d8  __covrec_9852984F812F872E                           
00022e38  __covrec_986BD29BFA975C74                           
00022398  __covrec_986C114E42E8D05C                           
00011c40  __covrec_987C9FC2A4EC202F                           
0001d050  __covrec_988A11D4D2F16FBF                           
0001fbe8  __covrec_988B02AB6E77D263                           
00003f28  __covrec_989E188AB59A4933                           
00012d80  __covrec_98A9B8719202C524                           
00001868  __covrec_98ACDB6DBDB5D757                           
0001c358  __covrec_98CE03280FE13541                           
00011c90  __covrec_98E02C24F4D059BB                           
0001f418  __covrec_98E619A5BCB11368                           
00006fc0  __covrec_98F3CB07CCB3A119                           
00003398  __covrec_99017C537476DAFB                           
00008e10  __covrec_99115F9F90954CC8                           
0001f378  __covrec_991F8D3FEEE781EF                           
00000c38  __covrec_99201B59C123FA0E                           
00020980  __covrec_99389F241C65C1B8                           
00023090  __covrec_993A6E8B0790B7DA                           
00006c00  __covrec_993FC46C13C3DA37                           
00023c20  __covrec_99409FA97391397F                           
00021f60  __covrec_9971090978BE6753                           
00014680  __covrec_99723926C2A9DDD1                           
00024620  __covrec_9988F745693DE43F                           
0000abe8  __covrec_998EEA7759507861                           
00017d30  __covrec_99992A15E457B36F                           
000071c8  __covrec_99AAB5E44AF42363                           
0000c448  __covrec_99C1140A20E33D7F                           
00011718  __covrec_99CC28B6F6090FE6                           
0000a9e0  __covrec_99E4D3F680DA961B                           
00004900  __covrec_99E7B2BA7FCE4224                           
0000bb60  __covrec_9A1A0037E30755A2                           
000061d8  __covrec_9A3ADBC082E9AAC                            
0001bf70  __covrec_9A40F604B5DC964B                           
00012830  __covrec_9A4402462CFB25DF                           
0000d550  __covrec_9A75669352A1B988                           
0001c6a0  __covrec_9A82C2E58801D4EB                           
0001d848  __covrec_9AAB0F09D0C7B1A3                           
00016b38  __covrec_9AC3CF09EF2C674                            
0000f800  __covrec_9AC906CEA2EBFEE                            
0000ae90  __covrec_9ACF57055C60C075                           
00000f08  __covrec_9B065D973A214D07                           
00002f10  __covrec_9B0A309CD3104C52                           
0000d578  __covrec_9B220919F851F88                            
0000b2a0  __covrec_9B4689E7C7399820                           
0001f940  __covrec_9B5D5C9A185C05A3                           
00001638  __covrec_9B74C96DC96608F0                           
0001ad50  __covrec_9B85596B8A1AE901                           
000064a8  __covrec_9B8615CF8B980EDC                           
00022af0  __covrec_9B8C2CA9195D8A89                           
00010570  __covrec_9B90FF29076C5B56                           
00015b20  __covrec_9BB5C9E7D8F22F76                           
000113a8  __covrec_9BBA3968226CFBF6                           
0000e0e0  __covrec_9BDB83D877172229                           
000229d8  __covrec_9BDFC8677807B4A8                           
00024350  __covrec_9BE0DEA223C84842                           
00013e10  __covrec_9BED06F3F05054A7                           
00023400  __covrec_9BF50A7EEF665123                           
00000468  __covrec_9BF5E6A67E4958DE                           
0000d140  __covrec_9BF6013281A37883                           
000119e8  __covrec_9C028263D8227ADA                           
0000ee50  __covrec_9C1583FB183F68E1                           
00002330  __covrec_9C18A632BAD9CD1A                           
00024ad0  __covrec_9C1F00C8590A33A7                           
000174e8  __covrec_9C2775F1FB7FD0B3                           
000022b8  __covrec_9C2A22168ABFC1C9                           
00002bc8  __covrec_9C38E6E16601BF1D                           
000166b0  __covrec_9C553D2B368997E4                           
00022578  __covrec_9C5548CB9C402249                           
0000eba8  __covrec_9C56D3C95FB51600                           
00016520  __covrec_9C5BA9E739FA244E                           
00021100  __covrec_9C7E4780112F9DD4                           
00023d88  __covrec_9C82DD3C630C958E                           
00021830  __covrec_9C873B56BD4E64FA                           
00018cd0  __covrec_9C93726BBC48186D                           
00008e60  __covrec_9C9C0F23EFC035CB                           
0001b520  __covrec_9CB452459D1C403B                           
00019220  __covrec_9CDBAE3A4C8F2B61                           
00021dd0  __covrec_9CDCF4ABBCDB66CE                           
000139b0  __covrec_9CE83C69FDCAB33F                           
00003168  __covrec_9D0D8E8B52AD0FAC                           
0000fe68  __covrec_9D406A78C5BDE4DA                           
00001660  __covrec_9D4D51A5AE8DCFAE                           
0000a670  __covrec_9D60915DC45DFF74                           
00014518  __covrec_9D61967B1604A9FF                           
0001f8a0  __covrec_9D65C69103DC9EE1                           
00009bf8  __covrec_9D76FF73BBC98ED6                           
00024440  __covrec_9D7FE2815054410B                           
00024260  __covrec_9D8BCDECE7C49ABE                           
0001e2c0  __covrec_9DA8AA09702AC6CE                           
000203b8  __covrec_9DBD17518F4E29C3                           
0001e518  __covrec_9DCFB323BA939264                           
0001a2b0  __covrec_9DD34F2822473557                           
000017a0  __covrec_9DEB8850F58D89A7                           
00007470  __covrec_9E0F484F81D00D11                           
00007ee8  __covrec_9E166ABC78C5A21                            
00001b60  __covrec_9E1FBD6F089F08C1                           
0001a170  __covrec_9E26C402F00A2F32                           
00005dc8  __covrec_9E35EFAC80D05E48                           
0000bbd8  __covrec_9E38913A4BEC4AB3                           
00019b58  __covrec_9E55FF8E109C4C33                           
00002b28  __covrec_9E6C290C47BB6AD1                           
0001b408  __covrec_9E7667E7EBD723A3                           
0001c240  __covrec_9E7D8352594DED0C                           
00016f98  __covrec_9E844E7AE3CA768E                           
0001c6c8  __covrec_9E940468EF94664F                           
0000a0d0  __covrec_9EA808AD373450A6                           
0000aa30  __covrec_9EBB5DF1AA3C7CF3                           
00010de0  __covrec_9EBF38881E08EA58                           
00010c50  __covrec_9EC25EF3E1007841                           
00021ce0  __covrec_9ECBD043067646A3                           
0001d078  __covrec_9ED94584C2643908                           
0001b1b0  __covrec_9EDD55D5C8BE933C                           
00004a68  __covrec_9EF57EFF4B02626D                           
0000b7f0  __covrec_9EF7DBC35A3D937E                           
00000b48  __covrec_9EF9BB2CB9A17440                           
00008758  __covrec_9EFA8006973AC6FC                           
000010e8  __covrec_9F282797260B5A04                           
00021178  __covrec_9F2BD20A1D192943                           
000147e8  __covrec_9F301B3FF3F09194                           
0001f9b8  __covrec_9F3C201AFBFC7771                           
00011768  __covrec_9F4D0BDA4B7FC1F5                           
00012320  __covrec_9F5205C349AEDB9F                           
000050f8  __covrec_9F546977A4804BCC                           
00007830  __covrec_9F677F6438BA43F8                           
000052d8  __covrec_9F91596CE96F0879                           
00013c80  __covrec_9FD05553BDBB26A0                           
00022028  __covrec_9FD435B6EDB75583                           
000026f0  __covrec_9FF3167DD00ED32                            
000225f0  __covrec_A012943D946C7220                           
00022640  __covrec_A01FF74824829A64                           
00000288  __covrec_A020A2EE0784C72A                           
0000bc28  __covrec_A0274C7D798628                             
00012c18  __covrec_A04768BF98A46F04                           
0001bd90  __covrec_A06516C97CF745F                            
0001a148  __covrec_A0759E883AB3A266                           
000117e0  __covrec_A07AC7DE06C6C393                           
0000bb88  __covrec_A07F69FCF8DAF544                           
00023a68  __covrec_A085E9CD601672CE                           
00008b68  __covrec_A09C6D9304083DC3                           
000030c8  __covrec_A0C6251CA6BAEF59                           
0001b958  __covrec_A0D214D928BC709E                           
00015d00  __covrec_A0DAA40F9ED6261A                           
00023c70  __covrec_A0DBB38BB4760AA5                           
00019310  __covrec_A0EDF6B61594B5D2                           
00004338  __covrec_A0F6C1420194C2B                            
0000c0d8  __covrec_A10FB9E7BC747E05                           
00012cb8  __covrec_A1138DE5EAE933DC                           
0000fe90  __covrec_A11593D5C9E68978                           
0001ded8  __covrec_A11EC3781DB0FEF3                           
000159b8  __covrec_A129DDC39A66AF54                           
0001eae0  __covrec_A13F1F077C7FDC3                            
0001b110  __covrec_A142625DB4946496                           
00016a70  __covrec_A14E5249FF6D9B73                           
000003f0  __covrec_A174CDA1CC874D42                           
00018190  __covrec_A178521A967058F3                           
000035a0  __covrec_A17A419DF3839CA2                           
000240d0  __covrec_A18395C77B6C122B                           
00010e58  __covrec_A19510AE8044DCAB                           
00008230  __covrec_A1A7E0FA27524C6F                           
00015ee0  __covrec_A1ADEE0AAE7AB6EF                           
00009950  __covrec_A1CF9A0473404F39                           
00011240  __covrec_A1F19C8C7CF9F2B7                           
0001d7a8  __covrec_A232361CAB162550                           
000145b8  __covrec_A23437AA47C4156F                           
00012438  __covrec_A24043C8FC32E916                           
0001d9d8  __covrec_A2445591609CD347                           
0000ce70  __covrec_A24520B3176BF023                           
0000d168  __covrec_A269246DA6E9D71F                           
00001160  __covrec_A27BAD9C85883369                           
0001f670  __covrec_A2C00EFD24BAB1B8                           
00006ca0  __covrec_A30573B40347360A                           
0000bf20  __covrec_A3294448B34306F4                           
00007f38  __covrec_A34080B9B2AB11FD                           
00003820  __covrec_A3481EE467F330A8                           
00024580  __covrec_A359454EB6553D3C                           
000046a8  __covrec_A35C7BAC10FCAF84                           
00013c08  __covrec_A35E9CF26F2BDBBC                           
00003d98  __covrec_A3791246A3F30E0D                           
00000148  __covrec_A37D80881D5A7428                           
00008578  __covrec_A37F1E936DE9FEFC                           
00006b38  __covrec_A3897EFF8A5AA8E3                           
000115b0  __covrec_A3AA4905E9A381E9                           
00024990  __covrec_A3B838279DB1FA53                           
00023b30  __covrec_A3C077298A1EE38                            
00003280  __covrec_A3CF293BF973A369                           
0001d780  __covrec_A3E9BABFF30D1406                           
0001d5a0  __covrec_A3F69F3D1A174B83                           
00016250  __covrec_A423D128DFA778BC                           
00023810  __covrec_A43679B7CAE7663                            
00007290  __covrec_A440BA412367926E                           
00010cf0  __covrec_A47374CF4F2339F7                           
00010c00  __covrec_A48C06D9E192918                            
00005d50  __covrec_A48F7F0DE4D96153                           
0000d640  __covrec_A4CC2E08DEECC807                           
0001b7c8  __covrec_A4D349F83946625F                           
000029c0  __covrec_A4D99DE85DBC1F77                           
0000a120  __covrec_A4E297F8CB9E7F67                           
0001ae18  __covrec_A4F309C69DE758AC                           
0000faf8  __covrec_A5000CE3333A5D16                           
00020c50  __covrec_A509FC975E3FE1D                            
0001da50  __covrec_A525F0238C786183                           
000099c8  __covrec_A52A27668EB37C65                           
00023ec8  __covrec_A52E9CCCE269F017                           
0001fa80  __covrec_A55C214A5FC44544                           
000121e0  __covrec_A56DAC32A420E351                           
0001a328  __covrec_A56E213FAEA092D9                           
00013d70  __covrec_A582FD26365EDEB5                           
00010a98  __covrec_A589256C3B2C80F4                           
0000e108  __covrec_A58C8782C895B79F                           
0001e040  __covrec_A5A75A50A6681C5C                           
00016818  __covrec_A5C15D890B087722                           
000140e0  __covrec_A60CE06FA61792A8                           
000012c8  __covrec_A614FA44AFAC5602                           
0000a940  __covrec_A617B81D6ACC87E0                           
00001778  __covrec_A6219CD6431E5146                           
00003708  __covrec_A621CF2108A2691C                           
00010cc8  __covrec_A6241685FE9D9181                           
0000fa80  __covrec_A64841128DF126F6                           
00008370  __covrec_A64CF965FA985336                           
00010a70  __covrec_A6508225C645E1B8                           
0001c970  __covrec_A6542DEDB8EB9879                           
000020d8  __covrec_A674F99908A5B311                           
0000b0c0  __covrec_A67A622C3928DA47                           
0001f5a8  __covrec_A6927DC5BF881DDC                           
0000df50  __covrec_A6B4C9F6FE0ADE9                            
0000e7e8  __covrec_A6BA3C4D92DF670C                           
00000e18  __covrec_A6D2AC20E713DBA0                           
0001b188  __covrec_A6F91C9DE4E92CCF                           
0000cec0  __covrec_A703F7356269E9F8                           
00022e10  __covrec_A72580571A0F056D                           
00018488  __covrec_A72768145C3B258D                           
00008398  __covrec_A74075BC1BEFD3CD                           
0000eea0  __covrec_A7444E32D70E0924                           
0001f1e8  __covrec_A74A9BBECDE04B5E                           
00000508  __covrec_A7706AE6BD4515FB                           
00016f48  __covrec_A78911E3D047929E                           
00007740  __covrec_A7938700FD860545                           
00018a78  __covrec_A7959569B6A5A56F                           
0001e3b0  __covrec_A7B0855D94B2B621                           
000207f0  __covrec_A7B287DE04B3E03                            
000087f8  __covrec_A7D2106220741652                           
00001138  __covrec_A7D3DFDD6FA77CD7                           
0001d488  __covrec_A7E144897978C90C                           
0001ddc0  __covrec_A807F26F4DECD342                           
000198d8  __covrec_A80BD7A623AB578                            
000128a8  __covrec_A817DEA7EA22BFD4                           
0000f1e8  __covrec_A81E66044A3EAE5D                           
00023ab8  __covrec_A820663F94339109                           
00010908  __covrec_A824AA5FC56684E7                           
00000c88  __covrec_A824D71DACF46CB4                           
00007fb0  __covrec_A84371268C3E46B                            
00023658  __covrec_A8498A117B23AFC8                           
0000e360  __covrec_A85BF17043DA4D7B                           
00024080  __covrec_A867A2AB552AD431                           
00011c68  __covrec_A890097CFCCDAFC                            
0001c510  __covrec_A892DA4DF516689A                           
00003e88  __covrec_A8A0C109485E3CC4                           
0001c920  __covrec_A8A28DA9DA2B412D                           
000009b8  __covrec_A8A2F256F1C6E168                           
00019770  __covrec_A8A70DDF5F2056BA                           
0001cc90  __covrec_A8B2B5CC8DBF4800                           
00010160  __covrec_A8B43A7C0E106A51                           
00021768  __covrec_A90175A665803D3A                           
0000d898  __covrec_A90C482AAF300E83                           
0000cc40  __covrec_A913E064E4463229                           
000222f8  __covrec_A926C2DA317B08A4                           
0001d528  __covrec_A92884B33FF83C3F                           
0000f850  __covrec_A94AE4E8C2663F8                            
00014270  __covrec_A94C22CB595C43D7                           
00010980  __covrec_A9503DC700D430D4                           
000100c0  __covrec_A95643ED5390910C                           
00001c50  __covrec_A9582446AC9FD3CF                           
00005a58  __covrec_A963D832DF3463D1                           
00024378  __covrec_A974A80756D49DB9                           
0000f198  __covrec_A991A84D3A11A700                           
0000ada0  __covrec_A99EA60A414C64C9                           
000113f8  __covrec_A9A84BFD92185E0E                           
00009a18  __covrec_A9C0F2A9FF8B2993                           
00023d60  __covrec_A9C700E1C71561D6                           
0001c5d8  __covrec_A9C81912A7BBEE                             
0000da00  __covrec_A9D3CD2EB06A9406                           
0001bac0  __covrec_A9DA2B99CE47AF13                           
00008208  __covrec_A9EB8CB748D76AAA                           
00006ef8  __covrec_A9F1B910A90D3752                           
0000f008  __covrec_AA038655C16600C1                           
0000c8a8  __covrec_AA03FC70B178B3DE                           
000079e8  __covrec_AA2C44C4DEF02698                           
00008cf8  __covrec_AA304BFAAA2ADEFD                           
00020f70  __covrec_AA329F79BA5D4AEB                           
000240a8  __covrec_AA40C52F613ED07F                           
0001b728  __covrec_AA520EFB2821E557                           
00023b58  __covrec_AA52FE737418A4EA                           
00015300  __covrec_AA551E34D18F74A4                           
00015508  __covrec_AA6FBA67DEF67586                           
0001d6b8  __covrec_AA70E0B980B5AC70                           
0000c538  __covrec_AA76895E2ABEA2EC                           
00015cb0  __covrec_AA7C108880CD93D6                           
000096d0  __covrec_AA85F0DD68D937F9                           
00005e40  __covrec_AA8A6519B6303396                           
0000aa80  __covrec_AAAE1945B283DEA2                           
0001e7c0  __covrec_AABEAADEEB5F4E6E                           
0001f490  __covrec_AAEDD5461DEC88D2                           
00020700  __covrec_AAEED63D1029DA46                           
00007678  __covrec_AAF231E36C499115                           
00003460  __covrec_AAFC457CCFEC3FB3                           
00001e58  __covrec_AB024E5F5C76A1EB                           
000151e8  __covrec_AB18DF03A4278F7C                           
0000f238  __covrec_AB21666FC91B8577                           
000190e0  __covrec_AB271BB12C7B2E99                           
00023c48  __covrec_AB2A380F7C8F9FB2                           
00019d88  __covrec_AB304C8261FDEB8F                           
00001598  __covrec_AB3596B96EA48348                           
00014720  __covrec_AB53902A6CB08F7A                           
000051c0  __covrec_AB5761CD7A308398                           
0001a530  __covrec_AB5B451F3E10B919                           
000063e0  __covrec_AB5D6D9D1F4BA488                           
00002420  __covrec_AB67FFA4EADD061B                           
00019bf8  __covrec_AB7956570CA67670                           
00002e48  __covrec_AB89AE110B934911                           
0000f0f8  __covrec_AB96553D2C199E4E                           
00004a90  __covrec_AB99E6ACCBBDA525                           
00016b60  __covrec_ABA022C0A714032                            
00022ff0  __covrec_ABBB0DCCFB7B4AA9                           
0000a8a0  __covrec_ABE1E57A66F0949C                           
00009a68  __covrec_ABF308DCBC301FDF                           
000245a8  __covrec_AC331E4603C5064F                           
0001b778  __covrec_AC39529A12F08E6B                           
0001cf38  __covrec_AC6538EBC735DD0C                           
0001fe68  __covrec_AC68201571F3FB9B                           
0001a1e8  __covrec_AC783881F1762401                           
000133e8  __covrec_AC85984330425F4                            
000099f0  __covrec_AC8BCBF9D28A7CBE                           
000054b8  __covrec_AC98208652846A5E                           
0001f4b8  __covrec_AC9CB004A666D213                           
000142c0  __covrec_ACC0C4F85F9EECDE                           
00000d50  __covrec_ACDB124F8EC23243                           
000158c8  __covrec_ACDEA53952D33B4F                           
0000b868  __covrec_ACE9A9C00ECA350A                           
0001aee0  __covrec_ACF4230EF393C5BA                           
00017290  __covrec_AD047280576A3B69                           
000248f0  __covrec_AD1A311A8594BE7E                           
00001a70  __covrec_AD21EF5EFA2D8C37                           
000076f0  __covrec_AD4A582F4726B565                           
00003c58  __covrec_AD51B93937B98AE2                           
00013ff0  __covrec_AD57993B2D1B4ADD                           
00003410  __covrec_AD7085C060AC05DC                           
00001d18  __covrec_AD7296C3F8DBE773                           
00014478  __covrec_AD7F2294BFBEBDD6                           
000149a0  __covrec_AD930365B8D74045                           
000200c0  __covrec_AD93EC839DDCEE0E                           
00001700  __covrec_ADA83B0EDF6DD479                           
00017088  __covrec_ADC012B52C9206AC                           
0000aff8  __covrec_ADD4ADE6AFF4463                            
00019388  __covrec_ADDF4235E39AF004                           
000092e8  __covrec_ADDF7DAB18D240D0                           
00023f18  __covrec_ADE3F00B66E34EBB                           
00012ab0  __covrec_AE0BED86C6A7FF8E                           
00003ac8  __covrec_AE1C864FA61259B6                           
0000f0a8  __covrec_AE55941D11F2D241                           
00018e38  __covrec_AE6F1168B53990C8                           
0001dd70  __covrec_AE75ACC2669723B3                           
0000d820  __covrec_AE8092662BE88D07                           
00003ed8  __covrec_AE86839607BA7A5C                           
00010ea8  __covrec_AEA997239452629A                           
000067a0  __covrec_AEAF03419A024DCC                           
0000ce98  __covrec_AEB0179E7B63E241                           
0000b840  __covrec_AEB3A095BD6DD613                           
0000f710  __covrec_AEC6767343826A66                           
00017740  __covrec_AECF195AE0C883E0                           
0000c150  __covrec_AEF44B8D50D3810C                           
000141a8  __covrec_AEF580CD966715F9                           
0000b570  __covrec_AF066B2BCAF46A36                           
00019ae0  __covrec_AF0B549003A6C852                           
0000d410  __covrec_AF163C0F8C39173E                           
00002060  __covrec_AF1A906930DA521D                           
00002ee8  __covrec_AF1D94185FAAAD95                           
00006020  __covrec_AF2AF2F95AEEFA0D                           
00020228  __covrec_AF320D236265B896                           
00008640  __covrec_AF373CE6A2890484                           
000155a8  __covrec_AF5F32085D968C75                           
0000eb30  __covrec_AF655A66C0934649                           
00005cd8  __covrec_AF68A90997F9541D                           
00004608  __covrec_AF996118ABDA76E6                           
00014018  __covrec_AFA442495C6D179E                           
00022d48  __covrec_AFB7312F1F304372                           
0000a080  __covrec_AFC1481B2945B775                           
00015350  __covrec_AFCA5308CBE5226                            
00021268  __covrec_AFDAEBE1B0D952AD                           
00020958  __covrec_AFEBE9C6828061A1                           
0001c178  __covrec_AFF8EA2E9F42EA4D                           
0001dde8  __covrec_AFF99C21C3C36C23                           
00022eb0  __covrec_AFFEE0267C35E1C9                           
00004a18  __covrec_B029310EE9562AF1                           
000037f8  __covrec_B0353174E8186383                           
00021df8  __covrec_B03F31128199A7A5                           
00012028  __covrec_B049EFDAFA284D00                           
00020bb0  __covrec_B05388EBD8752329                           
0001f7d8  __covrec_B055CE97798BAEE5                           
0001c100  __covrec_B0584FEB9BE7B098                           
000160c0  __covrec_B065FF55E74FCCD1                           
00009450  __covrec_B06A29084267BD6A                           
00001840  __covrec_B07EAA8D233771E0                           
00016ea8  __covrec_B09D4FD458CDE129                           
000216c8  __covrec_B09F79FD8EF659EE                           
0001a030  __covrec_B0D24101139E4F24                           
00005238  __covrec_B0D5D939C8C6905B                           
0000a238  __covrec_B117A58E40288055                           
00013988  __covrec_B11B2EE5DD5BF989                           
0000d500  __covrec_B128DA8C72BBB663                           
0001ec48  __covrec_B1327D09E22FBFCD                           
00006958  __covrec_B14E836DB43667DA                           
000165c0  __covrec_B158C101AA167696                           
000172e0  __covrec_B15D06C22FEC71D9                           
00021970  __covrec_B1652563AEC5544B                           
0000ef90  __covrec_B17634A2D13532F8                           
00021330  __covrec_B179A17659FF2C11                           
000080f0  __covrec_B1A12F32E2DE6586                           
0001adf0  __covrec_B1A9F6BF4A203553                           
000170d8  __covrec_B1C3981F9634D369                           
0001a350  __covrec_B1CE96BC945B0CBF                           
00020138  __covrec_B1EB7085F74D8687                           
00000cd8  __covrec_B1F0583C314DF016                           
0001b430  __covrec_B1FA2164EC3E6151                           
00014950  __covrec_B1FB48C95F950150                           
00007100  __covrec_B20494A214E52BCB                           
000040e0  __covrec_B20746D3061C8F72                           
00002718  __covrec_B2147270C3D860B1                           
00000940  __covrec_B23118F52EEC18B3                           
00019720  __covrec_B23169270BEA3591                           
0000b688  __covrec_B233B91BBFF9318A                           
00000a80  __covrec_B235C1BDA370244F                           
000012f0  __covrec_B243FBA84A5D7C22                           
000146d0  __covrec_B24530735833F91C                           
00017448  __covrec_B253B33871D9C4D2                           
000186e0  __covrec_B25D5E7D963D0469                           
00000850  __covrec_B26C26792DC6D1AD                           
00016bd8  __covrec_B26FE818C9BBF2BF                           
00013000  __covrec_B27A7CC7DFBAAB69                           
0000f328  __covrec_B29A405F90BA9CFE                           
00017f38  __covrec_B2DF3A96F478E43B                           
00001f98  __covrec_B2E16CD98B4768F0                           
00010840  __covrec_B2E47C30CCCB9591                           
00005b98  __covrec_B2E4BCF627C2BF82                           
00018078  __covrec_B2E7260EC55D2713                           
0000a260  __covrec_B2E7AB548C753C5C                           
000156c0  __covrec_B30841581A67FF30                           
0000b318  __covrec_B31254F3CD11A45F                           
00018d70  __covrec_B329A0B3FCA532E3                           
0001b700  __covrec_B359F814EED190EC                           
00020278  __covrec_B3657841B1675CD2                           
00022528  __covrec_B3659197FDC20C4B                           
0000e4c8  __covrec_B368C86A040627F6                           
000055d0  __covrec_B36C64511D841814                           
0000c470  __covrec_B37654A6069E7993                           
00009018  __covrec_B38E19936F23CC20                           
0001c740  __covrec_B39D9BE678C85D9F                           
00022aa0  __covrec_B3A396CC62A90D9D                           
0000d708  __covrec_B3C8F96D3D6A4D57                           
00014e28  __covrec_B3D5A60E04922FE                            
0000b408  __covrec_B3E5DE3EAEF1C87B                           
000171f0  __covrec_B3FCF4E02B6C0FD4                           
0001ac60  __covrec_B441970F37224737                           
00004bf8  __covrec_B4430FF82EB9C6E1                           
000209a8  __covrec_B44AEF7925B0EBA                            
00012800  __covrec_B44C2FD68F1F000Au                          
000232c0  __covrec_B451A5983A07C08F                           
00007330  __covrec_B481479CAAA464E8                           
00004518  __covrec_B4825F892DB7D4B5                           
0001a300  __covrec_B4A7C58ED4F2BBE5                           
00014590  __covrec_B4C2F0FEBCAF2F60                           
00012118  __covrec_B4DCD35C6A88ED95                           
0000ee28  __covrec_B4DF6845378FFCB                            
00004180  __covrec_B4FFCA34D0DB9625                           
0000de10  __covrec_B509202E05024D6C                           
00009b80  __covrec_B521099FA550E481                           
00015b48  __covrec_B52663DA78115B23                           
0001f328  __covrec_B552D37472D35192                           
00011ec0  __covrec_B563AD26DE980C96                           
000246e8  __covrec_B5717455E0C92E77                           
00003c30  __covrec_B58D16B34726F0C3                           
0001bf48  __covrec_B599D5FE34962FCD                           
00014d38  __covrec_B5B67982233FDBC                            
00003230  __covrec_B5BE54782E2272D0                           
0001faa8  __covrec_B6061734BA369469                           
00015440  __covrec_B6093B1DCE09925C                           
000175b0  __covrec_B63BB6869D812CAF                           
000043b0  __covrec_B66246C4D520B8D0                           
00008550  __covrec_B6733BDF5B5C76B9                           
00020160  __covrec_B68CBA3DB0144E60                           
00007a10  __covrec_B6BB61E24DD822A5                           
0000bea8  __covrec_B6C7B68C3D8F57B1                           
000205c0  __covrec_B6F3E3BAD089DBAE                           
000133c0  __covrec_B7020FE632FE5CBA                           
00009108  __covrec_B70D30C2260E29B8                           
000041a8  __covrec_B72C816B5DC64C76                           
0000b188  __covrec_B74456E990FC68CC                           
0000a0f8  __covrec_B7729C8220AEE3F2                           
0001bc50  __covrec_B77E9FAD3DF35EBE                           
00011c18  __covrec_B786A3B30CA671B6                           
00003e38  __covrec_B7897A6CFC8317A6                           
000216f0  __covrec_B78EF92F49E0058B                           
0000d618  __covrec_B7B168F8D901474                            
0001a788  __covrec_B7F5FFCDF30CB218                           
00016340  __covrec_B7F8AA0A75D437ED                           
00008280  __covrec_B7F9055DA9FF33E1                           
00017970  __covrec_B7FE008276F99331                           
00001c78  __covrec_B8240C8D9116C0D0                           
00003528  __covrec_B83E0C8EBBA6E994                           
0000a8f0  __covrec_B8602C13A59B807F                           
000181b8  __covrec_B869702795BA3180                           
0001a468  __covrec_B871D12F39A6AF36                           
00017d58  __covrec_B8D875108F459ADA                           
0001d000  __covrec_B8DFCB0E91A6A538                           
0000e748  __covrec_B8E67EE6CD515CE3                           
00022ca8  __covrec_B924B179892F5543                           
00013258  __covrec_B9537AAE86C9A6BD                           
000209d0  __covrec_B967147E74E51FAD                           
0000f4e0  __covrec_B970649D6E72BD0A                           
00021470  __covrec_B978B224B473938F                           
00015e40  __covrec_B98076446EF295FD                           
0000d2a8  __covrec_B995853542DE42AC                           
0000cdd0  __covrec_B9961F45651254BF                           
00013e88  __covrec_B99C443DB87550BB                           
0001a878  __covrec_B9AB8834A2237901                           
00007dd0  __covrec_B9AF23C200693F6E                           
00013b68  __covrec_B9B5FC828B38D38D                           
00011060  __covrec_B9B8B899A8C44CE8                           
0001d0c8  __covrec_B9BBACA01A41B6C8                           
00002790  __covrec_B9BF9677F9CE51D1                           
000025b0  __covrec_B9C05CE479B355F1                           
000239a0  __covrec_B9C3540C3AC1D54F                           
00005350  __covrec_B9D03A83939FDB4A                           
000073a8  __covrec_B9E5D6B7A73E1850                           
000164d0  __covrec_BA12879443A2327D                           
00000f80  __covrec_BA18E81197F63CA                            
00002dd0  __covrec_BA1BA9708D895AA0                           
00017dd0  __covrec_BA1ECAA1A7696E1A                           
0001d438  __covrec_BA25A56B15309134                           
000094c8  __covrec_BA3529BAED2EED82                           
0001f8f0  __covrec_BA37DB786B6EA1B4                           
0001ea18  __covrec_BA38EBDE4E634B4D                           
0000e0b8  __covrec_BA937FB439C38EA                            
0001ac10  __covrec_BA973D6E4001920E                           
00015eb8  __covrec_BA9D085EEB283A31                           
0001afd0  __covrec_BAB821C194D33E0C                           
0000c7e0  __covrec_BABC5360EAE56C7                            
0001eef0  __covrec_BAC215A305CB6BB2                           
00002d80  __covrec_BAC27ADC829D6C5B                           
00000b98  __covrec_BAC3E342B9BA895A                           
000116c8  __covrec_BAC9BBCDA7243C66                           
00005f80  __covrec_BADFF9B3C99BBB61                           
00023540  __covrec_BAE55637B2915732                           
00005468  __covrec_BAECC4317681A5E0                           
00018f78  __covrec_BAFF080CE41F419B                           
0001bf20  __covrec_BB175E3871FD845                            
0001b980  __covrec_BB204FB54CD4EFC                            
00009fb8  __covrec_BB2AFC71F2EF6CD9                           
0000d870  __covrec_BB2F531F1F5E3759                           
00009fe0  __covrec_BB3442CE84DA6512                           
00019f68  __covrec_BB37BA4602A701B5                           
0001a8c8  __covrec_BB3928FABB4339BB                           
00017ce0  __covrec_BB43D7D806F4CBD6                           
00017ad8  __covrec_BB50BDBE0E77D3AD                           
00001958  __covrec_BB5930CC5B146234                           
000046f8  __covrec_BB6485CAAE871F53                           
0000e518  __covrec_BB6A1367069A2629                           
00010c78  __covrec_BB7635914E90573                            
000187f8  __covrec_BB7CDB87DF7DC393                           
00017c68  __covrec_BB9DB7256D55E22C                           
0000a058  __covrec_BBA75AC1059AD9A5                           
00004d88  __covrec_BBAF8238C17B890B                           
000244b8  __covrec_BBC1B71FF0D6E9B7                           
00007fd8  __covrec_BBC65D230AB5FF37                           
0001f968  __covrec_BBCC8B4742E2744A                           
0001eab8  __covrec_BC100AC494729832                           
000177e0  __covrec_BC1E770725353BFE                           
00002100  __covrec_BC33B843F5D20054                           
00013898  __covrec_BC45A73D645FD3FC                           
00019e00  __covrec_BC56D22003F30EB                            
0001efb8  __covrec_BC5C2824B87BC903                           
00019fb8  __covrec_BC620F117425D53                            
00004fb8  __covrec_BC64E39279738557                           
00004658  __covrec_BC665D9E69366950                           
0001bed0  __covrec_BC7A07810C2A4EA5                           
0000b7a0  __covrec_BC8E7927CDD7BFE1                           
00022820  __covrec_BCE304DA2995D59D                           
0000c5b0  __covrec_BCF032E5D77571B1                           
00005fa8  __covrec_BCF5280D80FBBAE2                           
00013dc0  __covrec_BD0209660F1F417F                           
0000eb08  __covrec_BD0745CD16C669CE                           
00019c48  __covrec_BD20025876B40285                           
00005ad0  __covrec_BD306A2D3127DCC3                           
00016458  __covrec_BD5CC9630DBCBBE9                           
000230b8  __covrec_BD68002B29E6FA                             
00010188  __covrec_BD8B9752508FBCDF                           
000124b0  __covrec_BDA527D5B3100B7A                           
00006520  __covrec_BDB761F95E41F4E7                           
000005f8  __covrec_BDBDA8C964B2D299                           
00005508  __covrec_BDD45B2AD6F20345                           
00008488  __covrec_BDDD32A9D9ECF727                           
00015a30  __covrec_BDE4D2739B89D2E9                           
00001e08  __covrec_BDF8D382975C8993                           
0000a530  __covrec_BE18B82C693962F7                           
0000c100  __covrec_BE1C859F4CF59297                           
000167c8  __covrec_BE2747E0B77C11DC                           
00024198  __covrec_BE385D0749AA9AC6                           
00024030  __covrec_BE4C15D3B32B067C                           
0001cba0  __covrec_BE5179F5A57B6AE2                           
00017a88  __covrec_BE5A92894152D5DE                           
0001cbc8  __covrec_BE65544DFD0F9AD8                           
00015080  __covrec_BE6EA14CE4CA1756                           
000157b0  __covrec_BE863C686EAC33EF                           
00022c08  __covrec_BE9D5D41A4A00A13                           
00014ae0  __covrec_BEA364F8E4F6612A                           
00023220  __covrec_BEB1D8468371349B                           
0001eb30  __covrec_BEEF592826313069                           
000126d8  __covrec_BEEFAD7D9530066Eu                          
0001f4e0  __covrec_BEF4D4CCDE60C523                           
00024468  __covrec_BF0525D0545F407D                           
0000e338  __covrec_BF0526F43C4F2BD4                           
00015418  __covrec_BF2D601022292D70                           
00003550  __covrec_BF3F2126054AE91A                           
00022190  __covrec_BF4EA921547B71EE                           
00018bb8  __covrec_BF6A0C809C015679                           
000042e8  __covrec_BF81ED98AFD35D2                            
000175d8  __covrec_BF99175D50CA1867                           
000003c8  __covrec_BFA9E33AE93C4D11                           
0001ae40  __covrec_BFAFD22F7BF690C5                           
000036e0  __covrec_BFB8BDF3A4B6B84C                           
00007218  __covrec_BFC09B27086B1C32                           
00008c58  __covrec_C002266B8BB6BECF                           
00002bf0  __covrec_C017AAA412BA6024                           
0000b430  __covrec_C023A19CA3E3215C                           
00016890  __covrec_C03E22A2F6E2E4EF                           
0001acb0  __covrec_C047E60BD8866964                           
00012970  __covrec_C0751327896BCD4C                           
000088c0  __covrec_C095468B7CCD95F2                           
00016700  __covrec_C0AA7AE1236408C6                           
000064d0  __covrec_C0B27CAE93174129                           
00008b18  __covrec_C0C938CB2E82FF6E                           
000067c8  __covrec_C0D18844372CC162                           
0001c858  __covrec_C0D2729B0E6DF1B7                           
0001ca88  __covrec_C13AD5850545AB0D                           
0001a490  __covrec_C14519F9FADE6C9A                           
000157d8  __covrec_C14829C5FDA5D6EA                           
00008eb0  __covrec_C15312F4DAB97454                           
0001dc58  __covrec_C15F2CF5A53F36D6                           
000132f8  __covrec_C165DBE4DFA429BB                           
00010d68  __covrec_C16DA453696857CF                           
00003eb0  __covrec_C16DFCE554B90BDD                           
00021a60  __covrec_C17285F0F24EF078                           
00014090  __covrec_C17BEFE86E29456D                           
00000af8  __covrec_C1845D39DAEB76B0                           
00024918  __covrec_C1879FA7C346EBC                            
00019450  __covrec_C18C03D15A8F8D51                           
00014e00  __covrec_C19614860C5B3309                           
0000fdf0  __covrec_C19BC1DC4C5BC986                           
00022708  __covrec_C1B12A6B3A138DC9                           
0001d4d8  __covrec_C1B2B1A0B6EC290F                           
0000f260  __covrec_C1BEE21E11912024                           
00011a38  __covrec_C1C9672ACDD3C601                           
00003578  __covrec_C1D8412DE5BD9780                           
00008320  __covrec_C1EA9FB5AFD907C3                           
0000e540  __covrec_C2091612EE403313                           
00002768  __covrec_C218F5A77DFD4FE                            
00006980  __covrec_C2372178BF7E7BE6                           
0001f3a0  __covrec_C239BA51ED9EC8C                            
0001bb60  __covrec_C24C11236C197783                           
00011330  __covrec_C253A7B1B5DA7E3B                           
000184d8  __covrec_C268EEC39DA3B21C                           
0001d910  __covrec_C284900A3BECEF9F                           
0001ad00  __covrec_C28518340856F2B0                           
0001fb70  __covrec_C29C540C64A8C99C                           
0001d618  __covrec_C2BB13DE1AE343CB                           
000219c0  __covrec_C2BBD9F4FD1A81B5                           
0000abc0  __covrec_C2CE05CE246A7AF5                           
00012258  __covrec_C2D0EE486940342B                           
000195e0  __covrec_C2EA69130D5DE4D6                           
0001fc38  __covrec_C307A6F1EDD2DFB6                           
0000d118  __covrec_C30BF79348DB2C9B                           
0000c4e8  __covrec_C3120B6A3386D81D                           
00016fc0  __covrec_C31D13C77667C7D8                           
00009d88  __covrec_C345A94DC000612D                           
00008668  __covrec_C348C4B6496C616A                           
0001e9f0  __covrec_C360429D1CA00A11                           
00001ae8  __covrec_C364D3BE5713CD77                           
000108e0  __covrec_C368329C56F35F07                           
0000d8e8  __covrec_C36A5949ABC24FD2                           
000146f8  __covrec_C36BC5DC6B7BAC00                           
00010b38  __covrec_C376972B34ADD085                           
000248c8  __covrec_C37F4325D39AA6F4                           
00017ba0  __covrec_C3A1DC3CF32D203A                           
0001bd40  __covrec_C3B2B1E927D2AED0                           
0000ff58  __covrec_C3D459CB3B1ABC27                           
000022e0  __covrec_C3D611E6D3DD117E                           
0001a648  __covrec_C3F7D722BD7A26A9                           
00000670  __covrec_C40A7CADB6554C41                           
000071f0  __covrec_C43EA65A45B557F6                           
0001b5c0  __covrec_C470FE3D8AEB00D9                           
0001ea40  __covrec_C47257D07254FED2                           
00009e28  __covrec_C4902A3C8FE4557E                           
0001c128  __covrec_C49D033DE3A9AFB9                           
00014310  __covrec_C4A3B254D2D9F398                           
000004e0  __covrec_C4ABAE5F96BD7131                           
00022b40  __covrec_C4B01E72A10B79FE                           
00006138  __covrec_C4B8C6B93533778D                           
00020070  __covrec_C4BF6877E3DA2AE6                           
00020430  __covrec_C4BFDCB78073AB38                           
00005300  __covrec_C4CAB47EDDA4C706                           
00019518  __covrec_C4CB3B4E9E7F3A34                           
0001de60  __covrec_C4CD8A127B42E748                           
0001af08  __covrec_C4D78141AF2572F5                           
0000a6c0  __covrec_C503E37C6799657D                           
0000deb0  __covrec_C50C61EEA3EF9068                           
0000b480  __covrec_C5124DA1CB6B98FE                           
0001cb78  __covrec_C55313E71DA0C3B9                           
0000c9c0  __covrec_C560D1E9BAC2332A                           
0000c2b8  __covrec_C579B42FFF2729F6                           
000039d8  __covrec_C5849F63B2609F39                           
0000b9a8  __covrec_C588263F79B1890A                           
00010b88  __covrec_C589582EF4DABB3B                           
0001e6a8  __covrec_C5BCF3911B560B66                           
00002f60  __covrec_C5F27978801027BC                           
0000cad8  __covrec_C5F4BFBAC104C809                           
00011a60  __covrec_C5F6D5709484F7BD                           
00004950  __covrec_C5FA0E1470E7AAFD                           
00008078  __covrec_C60D4E42E4E4E139                           
0000dcd0  __covrec_C61023A3DC58D1B2                           
00023db0  __covrec_C617E7C9DBB1B5DC                           
0001acd8  __covrec_C634E91CD196F85E                           
00012ec0  __covrec_C637502431AE366C                           
000119c0  __covrec_C63C769C25F6A34F                           
00009c48  __covrec_C64137FE321F63EC                           
00011920  __covrec_C65C01CDF0901BA                            
00014248  __covrec_C66DD2C07ECA2C23                           
0000fc10  __covrec_C67256BCDE75C6F9                           
000121b8  __covrec_C6749AB042BB0941                           
0001e8b0  __covrec_C6AB4526964850E8                           
00001ed0  __covrec_C6B90750ACBE0BF3                           
00005eb8  __covrec_C6BFBC2F454CB4BB                           
00016660  __covrec_C6C59DFD81F45453                           
0001aff8  __covrec_C6E5746A589295D1                           
00015378  __covrec_C6E5A9332171B0BC                           
0001abc0  __covrec_C71D83EEEEBD25C5                           
000132a8  __covrec_C72CDDA90EDC4BAD                           
00006868  __covrec_C7357FC961E0E039                           
00021290  __covrec_C73A30597B6CE2DC                           
0000a3a0  __covrec_C76E07DCE15D4490                           
00021f88  __covrec_C78B4A6A98D02577                           
0000bf98  __covrec_C7AB083EBAE1AA55                           
0000a7d8  __covrec_C7C14DCBE04F0703                           
00023ba8  __covrec_C7C205F37933D1CA                           
00012650  __covrec_C7CF69551785A508u                          
00023978  __covrec_C7D3229704260BFE                           
0001a670  __covrec_C7DC5231AA70BA0F                           
00002ad8  __covrec_C7DF4CB39DC98A53                           
00005f08  __covrec_C7EC8F8B528C5465                           
00000238  __covrec_C7F4E2A8BA3336F8                           
0000b6d8  __covrec_C7F5D79A44C2E726                           
0000dd98  __covrec_C7F8E266118A60EF                           
000017f0  __covrec_C8141D847005DAB                            
00020bd8  __covrec_C81DAEE90F8696CC                           
00014888  __covrec_C820D13AAADDFBF9                           
00018320  __covrec_C8340AF3DD76DEA5                           
0000ca88  __covrec_C83F46CEBC96C742                           
00011a88  __covrec_C85F58435E621E6A                           
000116f0  __covrec_C86F9250B7FEA6A0                           
000111a0  __covrec_C8701138D17301A7                           
000144a0  __covrec_C8956EA37A365FE5                           
0001d898  __covrec_C8BD44ABF6512FBA                           
00002cb8  __covrec_C8BFF568D19FF3CC                           
0001a940  __covrec_C8E89BD540C9114F                           
0000ae68  __covrec_C8E97B71A497D67B                           
00001250  __covrec_C8EC31DBF85D36AD                           
00019810  __covrec_C8F4E67F540B3236                           
00006bb0  __covrec_C90A19228FB8B4E7                           
00012b00  __covrec_C9152F537137F215                           
000049a0  __covrec_C92FA8FD8D1B9400                           
000008a0  __covrec_C933C34768BF4A57                           
00016b88  __covrec_C93E92B492002ABF                           
00005288  __covrec_C9494CAE1273A347                           
00008438  __covrec_C94BCF5FE46591F5                           
00001d40  __covrec_C97A72447627504C                           
00008528  __covrec_C9B3F9A2C5F1A597                           
00004310  __covrec_C9BB88041811FC8                            
000072e0  __covrec_C9BE04315B706DB9                           
00018c58  __covrec_C9E60D5E928F5EEC                           
0001d3e8  __covrec_C9EA72700DD2DA54                           
0000f9e0  __covrec_C9EC44FC86FE1516                           
00011d30  __covrec_CA03547188A2C242                           
00015198  __covrec_CA08C308926F86A5                           
0000acd8  __covrec_CA0F2663CEC039D8                           
00000a08  __covrec_CA1513FF983217A8                           
0000ca38  __covrec_CA2721D5C34C012A                           
0000a2d8  __covrec_CA497169AAC6A9F5                           
000202f0  __covrec_CA537B5FD783D60B                           
00018050  __covrec_CA685C0901188451                           
0001eec8  __covrec_CA7C0417F799A12C                           
0000cf38  __covrec_CA8C2ADD2595D7F4                           
0001a2d8  __covrec_CA8C60D3EA5362E1                           
00017880  __covrec_CA8DBCD54A2B28B1                           
00004040  __covrec_CA9DF116CBB1A635                           
0000bdb8  __covrec_CAADD540A11809EA                           
00017920  __covrec_CAC374A65142BF09                           
0000ca10  __covrec_CACDBD8613207AB3                           
00023130  __covrec_CB298777B5BBC7AD                           
000218d0  __covrec_CB3C47A7D249D04                            
0000f468  __covrec_CB3C59C97C42E3B4                           
00022780  __covrec_CB3FF3F526A2F00C                           
000198b0  __covrec_CB401E04B85A55F6                           
0001f508  __covrec_CB6A11825FEC0147                           
00004810  __covrec_CB94E54873CF9CB0                           
0000bd18  __covrec_CBB11FF1CA262F6F                           
00000c60  __covrec_CBC45EFDE907705B                           
0001b340  __covrec_CBC9F45CB78F8B90                           
00014ab8  __covrec_CBD9B5558060A720                           
00015990  __covrec_CBF2E73A32284FE9                           
000041f8  __covrec_CBF63B7408916505                           
00014900  __covrec_CBFAAF6E85E67C2A                           
00008848  __covrec_CC04FE68D91B4075                           
0001c150  __covrec_CC0E79F34BDE50C1                           
00013be0  __covrec_CC106C1DC2E570F1                           
00001ea8  __covrec_CC1364777ABF56A0                           
00011088  __covrec_CC30F0C9D318825F                           
0000b728  __covrec_CC323FA63F4BC135                           
00001890  __covrec_CC6265146B87DA05                           
00022c30  __covrec_CC6EB3AA84257997                           
00014040  __covrec_CC76C5EF96D89539                           
00011100  __covrec_CC9CA19683CB7130                           
00024508  __covrec_CCA1F12623A87E34                           
0001e1d0  __covrec_CCBC4573637DA55F                           
0001e450  __covrec_CCE2B14552749412                           
0001af80  __covrec_CCE8587A3277B01F                           
0001f850  __covrec_CCFBAF14A6C959A5                           
000064f8  __covrec_CD1D4D1319567F0B                           
000137a8  __covrec_CD2ABFA5EBEDE95E                           
0000c6a0  __covrec_CD31E7F793B9B4CB                           
00017f88  __covrec_CD3F17D62E99D72F                           
0001dff0  __covrec_CD4A8BBF42B93D9D                           
00009b58  __covrec_CD4D7FAF5389999E                           
00018708  __covrec_CD52D5354BACA035                           
00023d10  __covrec_CD5C2F4CD8490DB3                           
00022690  __covrec_CD770DF23638413B                           
0000ec70  __covrec_CD7D79E22D542124                           
0001a9b8  __covrec_CD808DC22BF44FE8                           
000210d8  __covrec_CDBCE9076F882CD6                           
000247d8  __covrec_CDBEC65CA76225B3                           
0001a6c0  __covrec_CDBF3A5FF7EE087                            
0000b3e0  __covrec_CDD3854C50E5FC87                           
0000b5c0  __covrec_CDE1669FB2936160                           
000003a0  __covrec_CDEC6EF0FDCFFD3                            
0001aa08  __covrec_CE07E47036E86558                           
00018370  __covrec_CE081AE001D392A7                           
00006e58  __covrec_CE0AC87A12580A95                           
00002038  __covrec_CE2DA908966DB48A                           
00015ad0  __covrec_CE63BEA95B1AAA26                           
00007498  __covrec_CE64DBF3B6E29F0F                           
000096a8  __covrec_CE7BECF74436DB3A                           
00000648  __covrec_CE8BA8B5555A9EB4                           
00001048  __covrec_CE976EF58CAEB3D8                           
0000af30  __covrec_CE98894FF628C031                           
000058a0  __covrec_CEAE119190830E66                           
00007c18  __covrec_CEB69395AB9969A                            
00004b30  __covrec_CEBEB8A49D09021F                           
000243c8  __covrec_CECC738F131939BC                           
0000bc00  __covrec_CECDA6825145949                            
00024490  __covrec_CED9A24C87C67E33                           
0001a698  __covrec_CEFB9F7F6D63820E                           
00004108  __covrec_CF02246FCE39E01C                           
00015e68  __covrec_CF07008B357FC16E                           
00011178  __covrec_CF10453952EE1176                           
000182f8  __covrec_CF1DAB8B6A2AA843                           
00016a98  __covrec_CF30B3F8389553FA                           
00006bd8  __covrec_CF3E24FDCAE6DA8F                           
0001c588  __covrec_CF4FC1E32151C594                           
0001f148  __covrec_CF883BE42879D27C                           
000118f8  __covrec_CF8BCD91D43F0DF2                           
00023bf8  __covrec_CFCCF873B7181C91                           
0000dfc8  __covrec_CFD5FC3D680A447A                           
0001b7f0  __covrec_CFDB817D939AB454                           
00017c40  __covrec_CFF4B1D49D637D05                           
0000a558  __covrec_CFFC5180E5D452A2                           
000083c0  __covrec_D015B07E6AD4E940                           
0000f968  __covrec_D019764425CF0EEB                           
000206b0  __covrec_D023413EC1FF36D0                           
000102a0  __covrec_D03A0F7AAAD46AE1                           
0000d050  __covrec_D0407209336DDD75                           
00019950  __covrec_D04DC704886886C6                           
0000ac38  __covrec_D0509F88C6E4AC0B                           
00005cb0  __covrec_D0520A85A46D324                            
000078d0  __covrec_D05A2902FCE7468F                           
0000d5f0  __covrec_D05CF5C781AD9932                           
0000f418  __covrec_D075A0341881944                            
00022d98  __covrec_D07EA17EA69B8479                           
00001098  __covrec_D08773B8CD621528                           
0000d4d8  __covrec_D0885F8BD8C07B5B                           
00004db0  __covrec_D0B5EDC08309A59D                           
00018730  __covrec_D0C19A2C829A1D55                           
00011bf0  __covrec_D0F0BDAAFF25BA39                           
00005918  __covrec_D0F585CEACFAB342                           
00018fc8  __covrec_D0F6FDA3D53C6FE4                           
00015fa8  __covrec_D0FDD256AE50233D                           
00021808  __covrec_D13B5C531F5197CD                           
0001c830  __covrec_D13E1DD0A904D1EC                           
00019978  __covrec_D149E6B126AFF09E                           
00014810  __covrec_D15FC9E9035023E4                           
000180f0  __covrec_D163700B248786AA                           
0001c380  __covrec_D166DCE98F6D0E9C                           
0000ed10  __covrec_D16BD70C7A919423                           
00019658  __covrec_D171F092417D4735                           
00023040  __covrec_D19EE980B71AEC43                           
00018528  __covrec_D1A6617A5EDDDD2C                           
00006f98  __covrec_D1AD90C594B54226                           
000044c8  __covrec_D1C0E243B9EA99EB                           
0001d730  __covrec_D1D10A4F101AAA4                            
00001f48  __covrec_D1DDC36933046D72                           
000092c0  __covrec_D1E4442F49EE73BE                           
0000a008  __covrec_D1EF261E1DC719AA                           
00012460  __covrec_D1F2CD3CBDC20C1C                           
000215b0  __covrec_D2007C2CBD0F9E4D                           
00001d68  __covrec_D225079CB8C867D6                           
0001fcb0  __covrec_D22CAAC6655B0C37                           
000116a0  __covrec_D23B7FE05552404F                           
00006840  __covrec_D24099E0BFBAF770                           
0000e158  __covrec_D25B9F1D60A8EEC                            
0000f828  __covrec_D26EB161968A0779                           
0001fd50  __covrec_D28992F781DD20D5                           
0001ef68  __covrec_D2934CB964BCC507                           
000210b0  __covrec_D2A160C7D91897                             
00003a28  __covrec_D2CA41A6087850AF                           
00000fa8  __covrec_D2D5D222C8AD35B5                           
00009400  __covrec_D2DD04293F7041A9                           
000135c8  __covrec_D2FBD09CF9175ADA                           
0001c628  __covrec_D30E084174151E21                           
00003988  __covrec_D3122E4B3B13D95D                           
00020368  __covrec_D3387D696F34035B                           
0000c5d8  __covrec_D34E40FFC6540C3D                           
0001a008  __covrec_D3555C4264598523                           
00018dc0  __covrec_D35B061DD72A8133                           
0000da78  __covrec_D37D51BE139ECC93                           
0001b138  __covrec_D384089B6507668C                           
00018438  __covrec_D3BCCDBD67187C42                           
00022a50  __covrec_D3BD8053F86E41DE                           
000227d0  __covrec_D3E0CC8EE8B7B5EB                           
0001ef18  __covrec_D4074637B149442C                           
00003618  __covrec_D41C46AE9E504369                           
00013550  __covrec_D41E15BD3C137045                           
000035c8  __covrec_D41FD78A298AE8F4                           
00004c98  __covrec_D432E267BB611654                           
0000fb20  __covrec_D43C3AF3571C7C9C                           
0000d960  __covrec_D44CABA7DD27BD8C                           
000241e8  __covrec_D4626EC386D868E0                           
00016778  __covrec_D46C6760916F836A                           
00017498  __covrec_D47BE27B68D57C53                           
0000fb70  __covrec_D4A3DE7D8D354365                           
00013578  __covrec_D4A58762ABE74B26                           
00010d18  __covrec_D4A788668F57F696                           
0001b610  __covrec_D4AC32A10CD7CB0F                           
0001cec0  __covrec_D4D6FC7683C95E7A                           
00008f28  __covrec_D4E24490ED74F654                           
000062a0  __covrec_D4E976CA85E4AFB8                           
0001c9e8  __covrec_D508958877B7CDD7                           
00017f60  __covrec_D5253C2D081AEC51                           
00003438  __covrec_D5309053D1A91407                           
00001b10  __covrec_D5319892B33E0A42                           
00020b10  __covrec_D5409A4D6856EF55                           
0001d6e0  __covrec_D5424533F9D0A94B                           
0000c088  __covrec_D554560F1B184DFA                           
00014c48  __covrec_D55622F88F5226B7                           
00021bf0  __covrec_D57E84B1A2601E15                           
00024418  __covrec_D586C93DA51AE2EF                           
000023d0  __covrec_D5AD845A9CE134CF                           
000101d8  __covrec_D5B0A17C783C48D3                           
00012df8  __covrec_D5B4CC8656A701E4                           
00013cf8  __covrec_D601B461E1A36E5E                           
00021678  __covrec_D6089EA6A03C1DFE                           
0000eab8  __covrec_D62549EAF19E41F9                           
00024968  __covrec_D65B84EB5603889D                           
00023680  __covrec_D66F26331EE7175B                           
00002fd8  __covrec_D674FCD3872F46AE                           
0001fdc8  __covrec_D67633C8BBEFBD55                           
00013488  __covrec_D682D97A67E8CF22                           
000037a8  __covrec_D688427DB1C2A17                            
00002920  __covrec_D68B3DD53DF7D586                           
00012b50  __covrec_D68C7935EACE4A97                           
0000e270  __covrec_D69D3B2B6CDBDA26                           
00022e60  __covrec_D6A18F6B0143D735                           
0001bde0  __covrec_D6C0ECB4343048C3                           
0001d550  __covrec_D6CA4E27A30329FF                           
00018758  __covrec_D70154E3E201FB1                            
00022500  __covrec_D706DB4BB573BB3D                           
0001ac88  __covrec_D70EA4A8A98751CE                           
00023450  __covrec_D7386B0EE8FE1AA8                           
0000f558  __covrec_D767CDD37517E387                           
000028f8  __covrec_D77A3DC92DA658B5                           
00003b90  __covrec_D78BC7DBC9C1B643                           
00019630  __covrec_D7983C05E0832327                           
0001e068  __covrec_D7A5E186EC53EB7C                           
00003be0  __covrec_D7C69B99E134C001                           
000128d0  __covrec_D7C7FD587CF7F27E                           
00020de0  __covrec_D7D2A99D60ACB32C                           
000127c8  __covrec_D7DFE1844D8B0F8Cu                          
0000c6f0  __covrec_D7E73D2C84D3838C                           
0000f350  __covrec_D7FECF3A90AEB0DB                           
00008460  __covrec_D80ED5B49346C78B                           
00018eb0  __covrec_D8357A951D6CC3AD                           
00015918  __covrec_D85940657E5DE4DF                           
00010688  __covrec_D865ECAC9B4355E0                           
00010660  __covrec_D8898B8A3E5E4244                           
0000ccb8  __covrec_D8944EDB6AF472EB                           
00017b50  __covrec_D895D93EA590B5A1                           
00001f20  __covrec_D8A8734031DD8C5                            
00004e78  __covrec_D8B659364D04439C                           
000036b8  __covrec_D8C068E85B40F205                           
00010200  __covrec_D8DE6380B54FBDC0                           
000053c8  __covrec_D8E93D8253B5ED98                           
000107a0  __covrec_D8F5B088CF2ABB39                           
00002150  __covrec_D903AC98EC854A19                           
00010638  __covrec_D925A9740D6AC1A8                           
00005030  __covrec_D9343028F1A0B023                           
00024670  __covrec_D946AFFF68D80E46                           
00013d48  __covrec_D94C1F618B4FD7E8                           
00018848  __covrec_D954D0998E13AAD4                           
0001e900  __covrec_D959A60138CD433E                           
0001c678  __covrec_D98016B2FE4D3D31                           
0001b3e0  __covrec_D98E6A74FFF9D8A                            
0000ea68  __covrec_D98EC82935938CB2                           
00015558  __covrec_D996028D5A69C6F2                           
00003898  __covrec_D997DCDF22945AFE                           
00019838  __covrec_D998495D77F56213                           
00016db8  __covrec_D9B5BBF5883ABD67                           
00006f70  __covrec_D9BBC5BB541D75C                            
00008aa0  __covrec_D9BC94A769291BB6                           
00016ac0  __covrec_D9BFBE2790C83171                           
00015bc0  __covrec_D9D1CA770677649C                           
00017678  __covrec_D9DA8721215694F0                           
00018500  __covrec_D9DDA3EAD197CE88                           
00015ff8  __covrec_D9DF300B9FB82770                           
0001ed10  __covrec_DA16BD1FEC470510                           
000082f8  __covrec_DA26B9846FC12449                           
0000c808  __covrec_DA2B3FA2014B2C64                           
0000d6b8  __covrec_DA415124BB27D5CD                           
00004428  __covrec_DA54F99C0112192B                           
00015be8  __covrec_DA73F3FA2202180A                           
00019f18  __covrec_DA78BB48445AA633                           
000213d0  __covrec_DA9A9D536ADFC90B                           
0000e630  __covrec_DAA5DD12438933C8                           
0001b548  __covrec_DAB8E868E50A27CF                           
0000bde0  __covrec_DABCB63F7BECDBE6                           
00004680  __covrec_DAC5FB0FB5F0F2B2                           
00022f50  __covrec_DACD33E1AF0DED55                           
0001ce20  __covrec_DAD4941A63D99853                           
0001e1a8  __covrec_DAE8D5ADDB41B37                            
00002e98  __covrec_DAF07F6B11C934AF                           
0000fd50  __covrec_DAF2BB1D75FECA31                           
0000c678  __covrec_DAF5EC757DDCD690                           
00013a78  __covrec_DB095F1DF7361C4                            
00002970  __covrec_DB098651BEB6790E                           
00007b50  __covrec_DB121606D663AFC5                           
0000a170  __covrec_DB16ACCC814A19EA                           
00005738  __covrec_DB1B7323EED2E617                           
000199a0  __covrec_DB2B422DD9C5F163                           
0001c790  __covrec_DB471C349C709A12                           
00020cf0  __covrec_DB846B1F611511E2                           
00000000  __covrec_DB956436E78DD5FAu                          
000106d8  __covrec_DBA27023D731BEB8                           
00003cf8  __covrec_DBB2DCDDD5355556                           
00006098  __covrec_DBB9A92BC50A4059                           
00002b00  __covrec_DBC1B2A90E6C7FF8                           
000211f0  __covrec_DBC4F0F97B3DA53C                           
00005940  __covrec_DBCD2E7FD95B5157                           
00004d60  __covrec_DBD4CD073AC16641                           
0000ec20  __covrec_DBD7C44916D198B3                           
0001f300  __covrec_DBE35451CF19422                            
00003208  __covrec_DBE5BB9C61620E75                           
0000bcf0  __covrec_DBEB5DF48CCEBD0D                           
00021448  __covrec_DC0FA30D02EF7B58                           
000137f8  __covrec_DC3FCB1CD0B907FA                           
0001a080  __covrec_DC3FF53EE745C134                           
00016188  __covrec_DC44040CD5577CAF                           
000150a8  __covrec_DC612321FB754968                           
0001cdd0  __covrec_DC679B92F1EE3E32                           
00020fe8  __covrec_DC69E42406D125B8                           
00010a20  __covrec_DC7A468BB8C79527                           
0000db40  __covrec_DC7AE572576373CA                           
00007178  __covrec_DCB43A538F09BC2F                           
0001cc68  __covrec_DCB964463AE10E6B                           
0000b818  __covrec_DCCFD167CB66BB96                           
0000a328  __covrec_DCD33C3CC8933225                           
0000e950  __covrec_DCF3219F7B130FAB                           
00006ed0  __covrec_DCF4420C3ECB5B5B                           
00019bd0  __covrec_DCFDECC609924E0D                           
00012528  __covrec_DD1C1D5652F6C108                           
0001c4e8  __covrec_DD1D58311D02EABE                           
00012750  __covrec_DD2DAE6733804F42u                          
0001c2e0  __covrec_DD46D3C4DEFB9C99                           
0001a508  __covrec_DD47B775D2BA38FC                           
00019fe0  __covrec_DD4A0C4B99122703                           
0000ca60  __covrec_DD5D0E9DED4D6871                           
00008d70  __covrec_DD629C7B682E0468                           
0000e180  __covrec_DD62E50AD56793B7                           
000156e8  __covrec_DD7190B3978EBC39                           
0001bbd8  __covrec_DD7A9DE99C6C5AF4                           
0000cc68  __covrec_DD8AC1E108EFC928                           
0001a0d0  __covrec_DD8F3F4BB452940E                           
00007d30  __covrec_DD9E688941DA5E19                           
000120a0  __covrec_DDA9CE7874CA2A9F                           
0000eef0  __covrec_DDAFBAB80CDB34BC                           
00023248  __covrec_DDCA764F6F979673                           
00007038  __covrec_DDD2030351D00E1F                           
0001c4c0  __covrec_DDD36BF1BDB7AA08                           
00006480  __covrec_DDD4CC459ADDDF02                           
0001eba8  __covrec_DDF81D9F2B5DCDD2                           
0001d190  __covrec_DE0C383DAC236695                           
00018168  __covrec_DE34EC45D2197840                           
000038c0  __covrec_DE410BA07D132B8D                           
0001d8e8  __covrec_DE53C8C4FE5CC688                           
000145e0  __covrec_DE76C20852CC2132                           
000172b8  __covrec_DE7AA2ACCED77C8                            
000107f0  __covrec_DE97B367B2D1A843                           
00014fb8  __covrec_DED677DADB7BB886                           
00023ea0  __covrec_DEE1C41A02EED5C4                           
00012f10  __covrec_DEECC6CD28815579                           
00006688  __covrec_DF151D8848F2CF6F                           
00020570  __covrec_DF19DB5FF8AA4536                           
0000f080  __covrec_DF24A48FFF25C87                            
00013d98  __covrec_DF2ACD149E3EC26B                           
00021628  __covrec_DF36CD3867E449BC                           
0001cb28  __covrec_DF7E3D1C5554EC59                           
0001f558  __covrec_DF80A5B790AC171A                           
0001cfd8  __covrec_DF83ECEE727A5DD6                           
000221b8  __covrec_DF9BB6D34120A97B                           
00014cc0  __covrec_DFB5D1D33A87B86B                           
0000aee0  __covrec_DFB64F15E691D9DA                           
00023fe0  __covrec_DFE73B7B1021BC7A                           
00007d80  __covrec_DFF6420A97BE5B40                           
00023928  __covrec_DFFFDF448C6D309                            
0000ef68  __covrec_E02A9872FDAA005A                           
0000f670  __covrec_E031EFF7361EF491                           
000012a0  __covrec_E04C612F65EE0396                           
0001a620  __covrec_E0574A7F6C7FE9EB                           
00018f00  __covrec_E0575EF810248D3C                           
0000db18  __covrec_E058F29488F4F97E                           
00014ef0  __covrec_E076DE5CF10EA0F6                           
0000d078  __covrec_E07F116EB495258B                           
0001ba20  __covrec_E0842A3A8957D10D                           
000158f0  __covrec_E08A7D27AEA0B6C4                           
0000f5d0  __covrec_E0A89AEE12C4D715                           
0000e9c8  __covrec_E0B66ACC49FD1050                           
0000c420  __covrec_E0B88D4F632FE2A5                           
0000d0c8  __covrec_E0C07C118C235F68                           
0001e4a0  __covrec_E0DF7F5D25D80AD9                           
00013fc8  __covrec_E0EAD5EDA1401596                           
00010f48  __covrec_E112EBF7420C35B                            
000180a0  __covrec_E114898DAAA5BEF6                           
00000dc8  __covrec_E11B039574B00BC2                           
00011ce0  __covrec_E139A7BDEC263B35                           
00017b28  __covrec_E1530E7A17298A76                           
00000530  __covrec_E1684AD6F3EEC0E1                           
0001feb8  __covrec_E176DE7F78C356A8                           
00008bb8  __covrec_E1794BB171F9F9C4                           
00018668  __covrec_E18B4A3D28292E1                            
0000e860  __covrec_E19573573B1F644B                           
000243a0  __covrec_E1A5B2CA3303A7AC                           
00013870  __covrec_E1A6791F0E05F114                           
0001c3d0  __covrec_E1B2D1FEB13F85A6                           
0001cdf8  __covrec_E1D05ED567AD88B3                           
0001bbb0  __covrec_E1DBE843867CF66E                           
000123c0  __covrec_E2426283E8A4D1                             
00020340  __covrec_E248C48590FF7B21                           
00020e58  __covrec_E253D24803A745F8                           
00016de0  __covrec_E25E3C69A2C093FE                           
000058c8  __covrec_E2833E0B93C7A137                           
0000dca8  __covrec_E2931BDA0029D665                           
00004568  __covrec_E2A39DB2C077EA47                           
00006c50  __covrec_E2B1C8B410BF8D49                           
00019298  __covrec_E2BACE41E30617A9                           
0001a580  __covrec_E2CB17AF898C3228                           
00009798  __covrec_E2D5B45E22BDE4CD                           
0000b750  __covrec_E2D9DD5DDAE186C6                           
0001d0f0  __covrec_E2E834B6629CE320                           
000140b8  __covrec_E2F64C6B079FF5AB                           
00016570  __covrec_E30F78146A77D9A7                           
0001a260  __covrec_E322092842F7340                            
00002808  __covrec_E32E2FCD480CB552                           
000105e8  __covrec_E330A94A75B24172                           
000195b8  __covrec_E343A047350791DF                           
00018960  __covrec_E34511D25E36A244                           
0001a8f0  __covrec_E3518C62E0440A85                           
0000e090  __covrec_E358A0121F8D3E5D                           
0000eb58  __covrec_E369F0CB190CD9C1                           
000018e0  __covrec_E37F437BE96B8EFD                           
00024af8  __covrec_E3820D34BA47BB77                           
00011f38  __covrec_E3B525079BA3291E                           
00018258  __covrec_E3C48853351D961                            
000080a0  __covrec_E3C6C3BA6C36A06F                           
00016ef8  __covrec_E3CF855287A82BEC                           
000185f0  __covrec_E40BD4FBEC9475E                            
000013e0  __covrec_E42DCE197DEA3C8B                           
00003c80  __covrec_E43902D5BEEB8AC5                           
0000f738  __covrec_E45EFAC1BDA20EA5                           
00019428  __covrec_E4610D219A4ED31                            
00020660  __covrec_E468212A7A4C64E3                           
0000b908  __covrec_E48BC7B43E75DCE6                           
00016548  __covrec_E49524A10E027AC6                           
00007448  __covrec_E49FECB398A134DC                           
00021cb8  __covrec_E4A1E387ECAC3A2D                           
00008ff0  __covrec_E4A88558A98C9414                           
00016110  __covrec_E4B0626E416B19B5                           
0001e6f8  __covrec_E4B890F76048E996                           
0001d208  __covrec_E4BC5C1C9B522724                           
0001bcf0  __covrec_E4C40D5C5CFA6531                           
000171a0  __covrec_E4D053578B19A849                           
00005af8  __covrec_E4DEDF64B0693C43                           
00022910  __covrec_E4EE63A78EBD9E96                           
0000e8b0  __covrec_E4FCDA66FEC16F2E                           
0001d960  __covrec_E5004354570D679                            
00001cf0  __covrec_E51D0EB21A0ECB89                           
00022118  __covrec_E54F38072A567845                           
0000da50  __covrec_E55C036C662D7F3B                           
00011b00  __covrec_E55EDD8EC85963FA                           
00012a88  __covrec_E570407CEC6CB7F0                           
00022348  __covrec_E58267904E30DEFA                           
0000b4f8  __covrec_E582F71D2B001301                           
00009770  __covrec_E58422357AC5992C                           
000021a0  __covrec_E5A57A40DB9831E                            
00008690  __covrec_E5A722872A8D5624                           
00003e10  __covrec_E5AF271A9C7CBB87                           
000185a0  __covrec_E5BADA89A063A7FE                           
000071a0  __covrec_E5C53DE02F8AD5E8                           
0000e130  __covrec_E5D286313E048C40                           
0000cb28  __covrec_E5D59465076DD776                           
000104a8  __covrec_E5D7A6038D672104                           
00003b68  __covrec_E5F045431841FE59                           
000085a0  __covrec_E5F82F94428B7B9F                           
0000b020  __covrec_E60B95791218FD24                           
0001bd68  __covrec_E619CCC955A6862B                           
00009248  __covrec_E6220BF848308A1E                           
0000e5b8  __covrec_E65616AEE820A538                           
00018b68  __covrec_E65B615C74CEBB96                           
000244e0  __covrec_E66B7ADE829927E1                           
00004ea0  __covrec_E66DF9F174BA45FB                           
00022460  __covrec_E672E4C139CF37B5                           
0000a490  __covrec_E679F5F0612E6D24                           
00015940  __covrec_E67E7DC7B1601F23                           
00008cd0  __covrec_E6960B5768173FED                           
00006db8  __covrec_E69D547CB69C39DD                           
00004270  __covrec_E69F771932B3CAAF                           
0001e8d8  __covrec_E6A145D181120995                           
00013848  __covrec_E6B1F129216596D                            
000246c0  __covrec_E6BC0395B465B060                           
00000ff8  __covrec_E6CBFA19001E245D                           
00022870  __covrec_E6E84AC0AB1FA6F                            
00020cc8  __covrec_E6EDFEBC4DC305A2                           
00015c38  __covrec_E701EA8D7F416EB9                           
000239f0  __covrec_E7095CEEB5EADC68                           
0000f300  __covrec_E70DB66DFBE51AB0                           
00001f70  __covrec_E7108ED8A2FCBB6E                           
0001ad78  __covrec_E72B77A267908E6C                           
000211a0  __covrec_E7450405C7F6F39C                           
0001dfa0  __covrec_E747975BDCB68B72                           
000141f8  __covrec_E748C901CEE0C64                            
0000a878  __covrec_E7544958D234856F                           
0000c3d0  __covrec_E7593404EBE11EDC                           
00021880  __covrec_E77647DCFED80E9                            
00017628  __covrec_E77E74F8DA2AF574                           
0001f7b0  __covrec_E788ABFEAD96B1B3                           
0000b8e0  __covrec_E7CB9D85C9C662E4                           
00010e08  __covrec_E7D772880708A0C7                           
00013190  __covrec_E7E547A68226B4AD                           
0001a8a0  __covrec_E7E7144D5ECBBB5                            
0000be08  __covrec_E7F49F0860281955                           
00023518  __covrec_E7F6FCCA4F212604                           
0000d028  __covrec_E7FF4411CAA0B73B                           
0001aad0  __covrec_E801FF57F7B8F56C                           
00017650  __covrec_E8170BC21DBCAFEB                           
00020b60  __covrec_E82325860AD548EB                           
00021c18  __covrec_E8236E0C4E17C5AD                           
00018938  __covrec_E83844EB97E41293                           
00015788  __covrec_E85969F560DDD631                           
000073d0  __covrec_E85A719E3B0D2830                           
00020fc0  __covrec_E85C8D29E7F6CB1F                           
0000a198  __covrec_E86A579149628E06                           
00000d00  __covrec_E8721693EFE6AFA7                           
00022a78  __covrec_E8750E338B985971                           
00014388  __covrec_E87D88B23CD18670                           
0001b390  __covrec_E88140DB696B12FA                           
00013758  __covrec_E8917193E5FEF053                           
00021218  __covrec_E893E960D0B12CDC                           
00006318  __covrec_E89612ACBD275F3F                           
00011f88  __covrec_E8AD1C60B13ACF82                           
00020480  __covrec_E8D50A624AF1499A                           
00019ce8  __covrec_E8E82BD5A06CBDFD                           
000168b8  __covrec_E9006A34444A2A37                           
0000ec48  __covrec_E913BD7D98F4018A                           
000038e8  __covrec_E91D67B418A4CE9A                           
00006660  __covrec_E9280544FA2A53A6                           
00009e78  __covrec_E93349D27E1BF2D4                           
00008e38  __covrec_E955B564137ECBC7                           
00015e18  __covrec_E960579F8AE392F0                           
00016a20  __covrec_E96F6C670CC524BB                           
0000b9f8  __covrec_E973D5EF210D265E                           
00002358  __covrec_E976534255BE239F                           
000161d8  __covrec_E98E4523C76567FC                           
0000faa8  __covrec_E9ADB8A1A4D8516C                           
00018c80  __covrec_E9CD8EC02240DD72                           
0000a148  __covrec_E9CE782BE2CD22C5                           
000218a8  __covrec_E9D0B9A106B570B2                           
00009388  __covrec_E9EBB27F6CB6D8B3                           
00020f48  __covrec_E9F6566CE2924DCD                           
0000ba98  __covrec_EA05A92A1C32FBF7                           
0001edd8  __covrec_EA1E48C3488CC0E4                           
00017218  __covrec_EA2293814417AE2                            
0000daf0  __covrec_EA271E0329359325                           
00022280  __covrec_EA2B3784EFBDE16B                           
00013640  __covrec_EA38372D951F349C                           
000080c8  __covrec_EA5BF735887C1EE8                           
00007d08  __covrec_EA6C30C3EADE80C1                           
0001a3f0  __covrec_EA87A98CE1D84D5D                           
0000dbb8  __covrec_EA8854337E9E7C30                           
0000b458  __covrec_EA9C2000B91D7A41                           
00009d38  __covrec_EAA177794967A49E                           
0001ec20  __covrec_EAA690377138D9D7                           
000059e0  __covrec_EAA72C3EBC7F2D33                           
00018b90  __covrec_EABD2DB4D7FE38C3                           
00004e00  __covrec_EAC9B83280B676F                            
0000b5e8  __covrec_EADD23A0E35B47B1                           
00000eb8  __covrec_EAF82D895A279DCA                           
00009f68  __covrec_EB06D292BC30CC31                           
00007d58  __covrec_EB2EB136EEB6656                            
00017df8  __covrec_EB354C3B55D00E6E                           
0001e680  __covrec_EB3CD7B477E32A81                           
00007ec0  __covrec_EB412DFA7175BF70                           
0000a648  __covrec_EB45870490C9DA4F                           
0001db40  __covrec_EB4E39EF1EA17CA5                           
00019248  __covrec_EB5AED9D23042DB4                           
00011038  __covrec_EB798AD32698F4F5                           
00023310  __covrec_EB81A68135E0DDA4                           
000190b8  __covrec_EB884DF891B7C0B5                           
00003870  __covrec_EBA016AEC0DBDB33                           
00011150  __covrec_EBACB1818E85EC77                           
000167a0  __covrec_EBB9657C4CBDFB97                           
00021790  __covrec_EBCEB31F8A3D685C                           
00003fc8  __covrec_EBD035310952A729                           
00016020  __covrec_EBD4B15D669FF5C6                           
00012370  __covrec_EC0DA8AF4DB37BD3                           
00017f10  __covrec_EC14A2237089E2CD                           
00006048  __covrec_EC18AFBAA43A4272                           
0001ee28  __covrec_EC1CAADB898CC6AE                           
00011880  __covrec_EC34D75B68394D6B                           
0000d8c0  __covrec_EC399C54F25821A4                           
000094a0  __covrec_EC5F96D2837AC3CC                           
00001430  __covrec_EC7131F8A0FCEBD4                           
00014db0  __covrec_EC974998F0B94BAA                           
00006890  __covrec_ECA481CBBB9B0B43                           
000185c8  __covrec_ECA9C1C44D4A3387                           
00021088  __covrec_ECC1E88C41748830                           
0000fb48  __covrec_ECE1D85E07D8D3DA                           
0000f378  __covrec_ECF409E6E8936E63                           
000208e0  __covrec_ECF40B9B8A4306F9                           
00013960  __covrec_ECF55B1F21E4B275                           
00009608  __covrec_ED24C604136902A7                           
0000f6e8  __covrec_ED34BD129CA432A3                           
00018e60  __covrec_ED5378248E071109                           
0000ece8  __covrec_ED5A028922C586FE                           
00005b70  __covrec_ED619635B04F0A5C                           
0000e248  __covrec_ED641EB321AA653E                           
00022730  __covrec_ED88A247DEB1B920                           
00000ee0  __covrec_ED8994FF717DB293                           
00021358  __covrec_EDA7DA81A150E038                           
0001fff8  __covrec_EDB3AA564B5BB202                           
00005620  __covrec_EDCFF94A4FB9042C                           
000214e8  __covrec_EDDEF903D67BFC06                           
0001b0e8  __covrec_EDDFCB24481343C8                           
0000ded8  __covrec_EDFD2025B89BCBE0                           
0001fa58  __covrec_EDFD3659CF8A198E                           
0001b4d0  __covrec_EE0F6CF5ED5E776E                           
0001c808  __covrec_EE26B27D7B570B3D                           
00010020  __covrec_EE2BE680317A35D9                           
00010278  __covrec_EE3AABE13ED16EB                            
00012550  __covrec_EE3B624BA76DF02u                           
00008730  __covrec_EE3F1D823EF96AA5                           
00001368  __covrec_EE863C0A8C61F28B                           
0000feb8  __covrec_EE9EACDEC17317F3                           
00014b30  __covrec_EEAE4C8C4CDDB260                           
00022050  __covrec_EEC19C275E247D9D                           
00007010  __covrec_EED85F399FD5AB                             
00006e30  __covrec_EED9E6510928A2DA                           
0000c510  __covrec_EEE4E39182D96AF2                           
00018410  __covrec_EEEC5419627FC981                           
0000e1a8  __covrec_EEEE76EF753B314C                           
000065e8  __covrec_EEF9D7ADD7F58D6E                           
0001f800  __covrec_EF06C3EF94148348                           
0001db90  __covrec_EF506552D1D7BE22                           
000027e0  __covrec_EF5F57E11C5B1A                             
0000db90  __covrec_EF814479F03A43D5                           
00004fe0  __covrec_EF8AAD4F00800A13                           
00003730  __covrec_EFB1FD3256A6DF90                           
00023270  __covrec_EFD1C49295F7E42E                           
00022d20  __covrec_EFE4358F82272623                           
00019590  __covrec_F0026EB50F7B8029                           
00015210  __covrec_F0078734676383D6                           
00011fd8  __covrec_F00DBF0BE0A4A4F7                           
0001f080  __covrec_F01F43B2AB69C7                             
00023b80  __covrec_F04D21C3157E4AF3                           
00002948  __covrec_F06D1CD24075E1B3                           
0001dcf8  __covrec_F06D606E3FF7FEB2                           
00012000  __covrec_F076EC6ED344455F                           
0001ef90  __covrec_F09CDBF34DB339AD                           
0000a828  __covrec_F0A55D9AC3EAE3AB                           
0001b6d8  __covrec_F0ACEBB6D32F523D                           
00007e48  __covrec_F0B92E01C329E03C                           
00013910  __covrec_F0BB4BC77CD8C0EB                           
00020d18  __covrec_F0C5C704EF22E445                           
0001f3f0  __covrec_F0CF892F63A7F7F2                           
0001e220  __covrec_F10A23C35B517DD2                           
0000c740  __covrec_F10BAF815A6B12C8                           
00006d18  __covrec_F12CB27E2D0C945E                           
00019680  __covrec_F13A8066761C463B                           
0000b160  __covrec_F17D7C0B574D9144                           
00014068  __covrec_F17DC41AD5655B1D                           
0001a3a0  __covrec_F1B36A5B4773B81                            
0000f620  __covrec_F1BBF2B9995D51E0                           
00021ee8  __covrec_F1CA3058F4C0F3B1                           
000001e8  __covrec_F1CE8876480A1D9A                           
00011da8  __covrec_F1D0B4532F8CD4B4                           
000202a0  __covrec_F1D5AE02B00D28                             
000122d0  __covrec_F1E6AF932789DF6F                           
00016a48  __covrec_F1E83CA2B0CD6A20                           
00001520  __covrec_F1E8E8C9FFF613E1                           
00012208  __covrec_F205BCA8A36D38D                            
00008e88  __covrec_F20836F3F58AB2D9                           
00009dd8  __covrec_F21D6B07AD50688D                           
0000b6b0  __covrec_F225132387401830                           
00002290  __covrec_F235567A9AB4DD23                           
00016c78  __covrec_F2618F42DC968004                           
0000b070  __covrec_F271E9A72A4FD5BE                           
000212b8  __covrec_F277D89E3DFFF5DD                           
00005418  __covrec_F293E87DA0C26E2                            
0001b890  __covrec_F299FB8EC8B5A98D                           
0001c5b0  __covrec_F29AB24D20F7541B                           
000032f8  __covrec_F2A185451ACC1F2F                           
000015e8  __covrec_F2AC63A937EA8A8A                           
0000f7d8  __covrec_F2BE587EB5826A47                           
00019928  __covrec_F2C38226B0B6E63B                           
00006340  __covrec_F2D3E6CA5D35E6E5                           
00001340  __covrec_F2E56BF58C18DBFD                           
00000440  __covrec_F2EC28DE71B77EDE                           
00024648  __covrec_F2FDFE424BC57950                           
0001f030  __covrec_F317C3F6F2F95EE3                           
00018640  __covrec_F31B4D53596DC8E7                           
00000800  __covrec_F31C7F9B9F1F70B7                           
00011498  __covrec_F3352E0AB30A5129                           
0000fff8  __covrec_F34FDF5DD3F9B985                           
00020908  __covrec_F35691FD0BB8A7B8                           
00005210  __covrec_F35CFD41CFA29944                           
0001f8c8  __covrec_F3809CC4BFBFDA24                           
00005878  __covrec_F38BB8D6F19C2DE0                           
0000b520  __covrec_F39B7444D544331E                           
00004860  __covrec_F3AB0AC93DE7FF4F                           
00005080  __covrec_F3B8D336CFF70300                           
000018b8  __covrec_F3EE993387F58036                           
00015f58  __covrec_F3F4BEC6FC4C603                            
0000de88  __covrec_F407B61BFE124C6                            
00001bb0  __covrec_F40CBFF942259F3C                           
0001a968  __covrec_F42DCE2D205E9019                           
00010818  __covrec_F4394A696CE2AB0B                           
00024b20  __covrec_F442D8DCEFB37265                           
00016ca0  __covrec_F454D8ABE2DC2387                           
000122f8  __covrec_F483DBD11B30011                            
0000f8a0  __covrec_F48892829254C21                            
000180c8  __covrec_F4A6E46EEBB7430F                           
00009748  __covrec_F4C3D1DB1AA1D74E                           
00001570  __covrec_F4C48F27E50B0425                           
00013348  __covrec_F4D430A9AC32DC03                           
000231f8  __covrec_F5013732295CEBE5                           
00010750  __covrec_F506E90654BD1443                           
00009360  __covrec_F51C883C2FF97518                           
00008960  __covrec_F521DF2FF8846CDC                           
00004f68  __covrec_F553C07364760769                           
00016d18  __covrec_F555D7D565E23141                           
0000a300  __covrec_F5568F34A22AC2E                            
00007e20  __covrec_F5587C360730E7D2                           
0001ca38  __covrec_F5588139E339EF27                           
000102c8  __covrec_F55D92BC40D2B6DC                           
0000bac0  __covrec_F563E6C432F703BA                           
0000a788  __covrec_F569D9A26F31F8CE                           
00019900  __covrec_F573A0ADEA913771                           
0001ac38  __covrec_F5AFEB1EEA354D61                           
00010548  __covrec_F5B2DE8329534D6                            
0001d7d0  __covrec_F5B52FC120DCEFF6                           
00001688  __covrec_F5B5A752C02D90B7                           
00014b58  __covrec_F5BC47E50C3570B4                           
00012348  __covrec_F5DECA8EA830D5C6                           
00020e08  __covrec_F5F30506630A8A6A                           
00004928  __covrec_F5FBA72848F48492                           
0000fe18  __covrec_F612575F31F8C40D                           
00004888  __covrec_F620C5AD896F293C                           
0001d988  __covrec_F623366B7B1875EF                           
000148d8  __covrec_F623BD0F22F6A4D                            
00010610  __covrec_F63CC997F464336B                           
000069d0  __covrec_F645ECD6C53C862C                           
00013bb8  __covrec_F65571CE4E3F88C                            
00015aa8  __covrec_F65C7AC0F7EB18B5                           
00005170  __covrec_F686AABA09F6E844                           
000189d8  __covrec_F69D3E0B112353E9                           
00017a10  __covrec_F6A64CBDA47317FD                           
00021b00  __covrec_F6B56496C33FA558                           
00022758  __covrec_F6C47C4FF9C0768B                           
0001b458  __covrec_F6DAA592595F28C                            
00012d08  __covrec_F6DE419292C4B531                           
0001d668  __covrec_F6E4D297C5804202                           
00003de8  __covrec_F6E8F21C0BC850D9                           
0001e018  __covrec_F6F0D555DD9571C2                           
0001da28  __covrec_F6F7419BF1DFF9CE                           
0000d320  __covrec_F702D89E20B6343E                           
00020ef8  __covrec_F7136B9270F615B7                           
0000afa8  __covrec_F728CA2398F1DD80                           
0001d708  __covrec_F743C000ABE7980A                           
0000cb00  __covrec_F7941DE436E5456C                           
00005530  __covrec_F7AF3BB2F509D20                            
00005d00  __covrec_F7AFF5C1C479C5FB                           
00022b18  __covrec_F7CCB73360C44C19                           
0000bb38  __covrec_F7D7FD5423A6DD53                           
00023888  __covrec_F7E26B3CC76FBD79                           
00021a38  __covrec_F7F273F985C06D9C                           
00007538  __covrec_F81C47CA0E066BFB                           
00000aa8  __covrec_F81C8DC38A85241C                           
00003050  __covrec_F81E9711591E7245                           
00021f38  __covrec_F83A171A8DE1F8B3                           
00020188  __covrec_F84035B684B27B21                           
0001c718  __covrec_F85390884DDE2EF8                           
000181e0  __covrec_F86E8E4C58460891                           
00012ee8  __covrec_F87F2A62EAC8F4FB                           
000234a0  __covrec_F88B33E70F89E09                            
0001df50  __covrec_F8915E7F9ECEA84A                           
0000ea90  __covrec_F894C6D31849E39E                           
00008f50  __covrec_F8DB58C0AE33507                            
000222d0  __covrec_F8E27A2D33292F4B                           
00004590  __covrec_F8EBA7E180AADBE4                           
0001bc78  __covrec_F8EC7E727BB49656                           
0000ebd0  __covrec_F908321E8AA5874A                           
00022f78  __covrec_F9263E8B0B2360BF                           
00000b70  __covrec_F93191802FA55B6D                           
0001d2d0  __covrec_F9407E25A3F45B0C                           
000152b0  __covrec_F9448A84AD8185BA                           
0001b2a0  __covrec_F95EAA333DB23898                           
00023f40  __covrec_F977D804E2DE5C3E                           
0001a850  __covrec_F97C6C392C8944F3                           
00013078  __covrec_F9850F6D40ADE08F                           
000101b0  __covrec_F98C74400953ABBA                           
0000a918  __covrec_F98D2C651C199082                           
00001408  __covrec_F99530A04D7353E4                           
00022550  __covrec_F99B5A9295D4E4A4                           
0000a3c8  __covrec_F9DC41B08F4BA7A8                           
0000f2d8  __covrec_F9EC09D31E8C6514                           
0001e928  __covrec_FA02E2CA7F81E3AF                           
00005828  __covrec_FA0D4A3E7DC31A46                           
0000a030  __covrec_FA0F70A6D7845FF4                           
00001de0  __covrec_FA30148B898B58C2                           
000211c8  __covrec_FA3CF57E57B39F53                           
0000d208  __covrec_FA5A8DAE1CE43F2B                           
0001b8e0  __covrec_FA6A73CFC94A4F8F                           
00007790  __covrec_FA8566F1D1BD6B0A                           
00009c70  __covrec_FA94AA241F490B3C                           
00016098  __covrec_FAB52BFBB5CA2B3                            
0000e4f0  __covrec_FAC69C2DCB043D49                           
00010458  __covrec_FAC760843A24028E                           
00010598  __covrec_FAC9E94050BCF02F                           
00018578  __covrec_FACA0D83EF2252D9                           
0000ef18  __covrec_FADFE24B207C5E02                           
0000bbb0  __covrec_FAEFC2751BB45494                           
000223e8  __covrec_FB10B5C5DB7D0EAB                           
00018280  __covrec_FB1D8691C0553F                             
00012fd8  __covrec_FB54D5102C521951                           
0000c948  __covrec_FB57D020BECB2495                           
000204f8  __covrec_FB615516353485F1                           
0001c330  __covrec_FB7CF8B94050C947                           
0001da78  __covrec_FB7ED0D421C87335                           
0001b020  __covrec_FB91A69921C0AA0                            
00023a18  __covrec_FB989D4CBC1E077                            
000176a0  __covrec_FBABB1CFAA0837B                            
0001cb50  __covrec_FBCE000054D77117                           
00019108  __covrec_FBDF9DFB9E695E89                           
00013eb0  __covrec_FBE2FAF21937296B                           
00014f18  __covrec_FBFF4A8CB46E08B0                           
00010f98  __covrec_FC0602A2C2AAA433                           
0000bc78  __covrec_FC29A5950D631E5D                           
0000c998  __covrec_FC4175469ED64A5F                           
00000a30  __covrec_FC422F91F6524CEA                           
000245f8  __covrec_FC4C0F69166A5CA                            
0001fd00  __covrec_FC508B703A037D2C                           
000100e8  __covrec_FC513C6DF3665B2E                           
0000c9e8  __covrec_FC66CB3B1536098A                           
000117b8  __covrec_FC67E4F6E0C9BBDD                           
00021b50  __covrec_FC6C86B71CC34A40                           
0000c178  __covrec_FC8723635095452                            
0000e1d0  __covrec_FC985E002B21629B                           
00006390  __covrec_FC988F68F547D17C                           
0001d1b8  __covrec_FCA71EE4D37F88C6                           
0000cd30  __covrec_FCB2B7A5C089556A                           
000220a0  __covrec_FCB920B883F15C5B                           
00006de0  __covrec_FCC4A91F1253E5BE                           
0001c290  __covrec_FCDCDFD15AC0E740                           
0000bb10  __covrec_FD47005FD3C8CA5                            
00016980  __covrec_FD6EFDF54A7E61F9                           
0001e360  __covrec_FD7AD1BDA795009C                           
00024058  __covrec_FD9DA43F75BC40F9                           
0001aa58  __covrec_FDAA4CDD67C3D058                           
00021858  __covrec_FDC1FA3BFCE27CA3                           
00001ef8  __covrec_FDC8CE9CC3562912                           
00010098  __covrec_FDCEBE0A76B9472                            
000130f0  __covrec_FDD8526D2A93F33C                           
000170b0  __covrec_FDFA5CAFBD69AC08                           
000105c0  __covrec_FDFFF66EBD575475                           
000060c0  __covrec_FE040D9492AB9F64                           
0001dd48  __covrec_FE189E8205BFE13F                           
000070b0  __covrec_FE32C88E62C7B418                           
000066d8  __covrec_FE5CC575FCF9BEBE                           
00007e98  __covrec_FE6247FAAEEEEE88                           
0001f210  __covrec_FE7D9684EFE6977B                           
00001a20  __covrec_FE86DA401C8D5A44                           
00015738  __covrec_FE88999DF0EAFFD6                           
0001e130  __covrec_FE8AC5C2C53B8D86                           
00012168  __covrec_FE984C7C4D90B9DF                           
00007bc8  __covrec_FE9BCF9AC9352598                           
00007150  __covrec_FEA12951888F146E                           
00013668  __covrec_FEC5D3DE69CA8E17                           
0001b098  __covrec_FEC7313548E6B0A0                           
0000a5d0  __covrec_FED5F8744DCFA6F                            
0001f878  __covrec_FED7286FD0A0846C                           
000188c0  __covrec_FEDB316D835D59CB                           
00023e78  __covrec_FEEDC4A55B8BFBDD                           
00002a10  __covrec_FF25F723AA32587B                           
00012880  __covrec_FF2F71DB13F48ED9                           
00012920  __covrec_FF3F3C37D1ECEF0E                           
0000b390  __covrec_FF4C1BEDC7C89759                           
0000b660  __covrec_FF58D167FB6E13C4                           
00017150  __covrec_FF6BB409FA34F363                           
000142e8  __covrec_FF79AF72E78DEE41                           
00007920  __covrec_FF7F985CE7786E51                           
00002740  __covrec_FF9670604336DD15                           
00021bc8  __covrec_FFA0CFE7D81EDE77                           
00014dd8  __covrec_FFA9859ECBCE5FF5                           
00002560  __covrec_FFB79A5504A0D26                            
0001e5e0  __covrec_FFC75160907BE257                           
00003078  __covrec_FFCEF0A31F68875F                           
000239c8  __covrec_FFDBAA12E3B6E83D                           
0001c1c8  __covrec_FFDFE8E406984E9A                           
0001de10  __covrec_FFEA5922A8E15BB8                           
0001a738  __covrec_FFFB116B4E183B3A                           
UNDEFED   __mpu_init                                          
30000000  __profc_Default_Handler                             
30000020  __profc_Reset_Handler                               
30000028  __profc_SYSCFG_DL_GPIO_init                         
30000030  __profc_SYSCFG_DL_SYSCTL_init                       
30000038  __profc_SYSCFG_DL_init                              
30000040  __profc_SYSCFG_DL_initPower                         
000002d0  __profd_Default_Handler                             
00000300  __profd_Reset_Handler                               
000000f0  __profd_SYSCFG_DL_GPIO_init                         
00000120  __profd_SYSCFG_DL_SYSCTL_init                       
00000090  __profd_SYSCFG_DL_init                              
000000c0  __profd_SYSCFG_DL_initPower                         
00000060  __profd_blink.c_DL_GPIO_clearPins                   
00000030  __profd_blink.c_DL_GPIO_setPins                     
00000000  __profd_main                                        
000002a0  __profd_ti_msp_dl_config.c_DL_Common_updateReg      
000001e0  __profd_ti_msp_dl_config.c_DL_GPIO_clearPins        
00000210  __profd_ti_msp_dl_config.c_DL_GPIO_enableOutput     
00000180  __profd_ti_msp_dl_config.c_DL_GPIO_enablePower      
000001b0  __profd_ti_msp_dl_config.c_DL_GPIO_initDigitalOutput
00000150  __profd_ti_msp_dl_config.c_DL_GPIO_reset            
00000240  __profd_ti_msp_dl_config.c_DL_SYSCTL_setBORThreshold
00000270  __profd_ti_msp_dl_config.c_DL_SYSCTL_setSYSOSCFreq  
3003fef8  __stack                                             
30000000  __start___llvm_prf_bits                             
30000000  __start___llvm_prf_cnts                             
30000000  __stop___llvm_prf_bits                              
30000098  __stop___llvm_prf_cnts                              
100004bd  _c_int00_noargs                                     
UNDEFED   _system_post_cinit                                  
10000549  _system_pre_init                                    
10000539  abort                                               
ffffffff  binit                                               
10000000  interruptVectors                                    
1000027d  main                                                
100001e1  memcpy                                              


GLOBAL SYMBOLS: SORTED BY Symbol Address 

address   name                                                
-------   ----                                                
00000000  __TI_ATRegion0_region_sz                            
00000000  __TI_ATRegion0_src_addr                             
00000000  __TI_ATRegion0_trg_addr                             
00000000  __TI_ATRegion1_region_sz                            
00000000  __TI_ATRegion1_src_addr                             
00000000  __TI_ATRegion1_trg_addr                             
00000000  __TI_ATRegion2_region_sz                            
00000000  __TI_ATRegion2_src_addr                             
00000000  __TI_ATRegion2_trg_addr                             
00000000  __covrec_DB956436E78DD5FAu                          
00000000  __profd_main                                        
00000030  __profd_blink.c_DL_GPIO_setPins                     
00000060  __profd_blink.c_DL_GPIO_clearPins                   
00000090  __profd_SYSCFG_DL_init                              
000000c0  __profd_SYSCFG_DL_initPower                         
000000d0  __covrec_43754CAB66210EADu                          
000000f0  __profd_SYSCFG_DL_GPIO_init                         
000000f8  __covrec_18CB9EF68833044u                           
00000100  __STACK_SIZE                                        
00000120  __covrec_5FCAE43825AF3D07                           
00000120  __profd_SYSCFG_DL_SYSCTL_init                       
00000148  __covrec_A37D80881D5A7428                           
00000150  __profd_ti_msp_dl_config.c_DL_GPIO_reset            
00000170  __covrec_8B00F12D52BE4B37                           
00000180  __profd_ti_msp_dl_config.c_DL_GPIO_enablePower      
00000198  __covrec_9275560A7E7E538E                           
000001b0  __profd_ti_msp_dl_config.c_DL_GPIO_initDigitalOutput
000001c0  __covrec_8B18CF5C7CA66D58                           
000001e0  __profd_ti_msp_dl_config.c_DL_GPIO_clearPins        
000001e8  __covrec_F1CE8876480A1D9A                           
00000210  __covrec_71FFCA80BB3F1D03                           
00000210  __profd_ti_msp_dl_config.c_DL_GPIO_enableOutput     
00000238  __covrec_C7F4E2A8BA3336F8                           
00000240  __profd_ti_msp_dl_config.c_DL_SYSCTL_setBORThreshold
00000260  __covrec_46F88230977B49FC                           
00000270  __profd_ti_msp_dl_config.c_DL_SYSCTL_setSYSOSCFreq  
00000288  __covrec_A020A2EE0784C72A                           
000002a0  __profd_ti_msp_dl_config.c_DL_Common_updateReg      
000002b0  __covrec_59790CE4E2ADC66D                           
000002d0  __profd_Default_Handler                             
000002d8  __covrec_2BAF348C00DA3A1C                           
00000300  __covrec_83CD128B1658A8A8                           
00000300  __profd_Reset_Handler                               
00000328  __covrec_8867EE2CFA5D37BB                           
00000350  __covrec_58763ADD0E1C2181                           
00000378  __covrec_22E3EDC592CCE64A                           
000003a0  __covrec_CDEC6EF0FDCFFD3                            
000003c8  __covrec_BFA9E33AE93C4D11                           
000003f0  __covrec_A174CDA1CC874D42                           
00000418  __covrec_8607766183961147                           
00000440  __covrec_F2EC28DE71B77EDE                           
00000468  __covrec_9BF5E6A67E4958DE                           
00000490  __covrec_3CD98B169DFC1381                           
000004b8  __covrec_292C7EA4CC5F897D                           
000004e0  __covrec_C4ABAE5F96BD7131                           
00000508  __covrec_A7706AE6BD4515FB                           
00000530  __covrec_E1684AD6F3EEC0E1                           
00000558  __covrec_7219B78780E92BD5                           
00000580  __covrec_2BC73A067C042768                           
000005a8  __covrec_38403A0F6F35D837                           
000005d0  __covrec_106FBD1B4BD32CAC                           
000005f8  __covrec_BDBDA8C964B2D299                           
00000620  __covrec_809558845147D33B                           
00000648  __covrec_CE8BA8B5555A9EB4                           
00000670  __covrec_C40A7CADB6554C41                           
00000698  __covrec_1954B3AEC47397EF                           
000006c0  __covrec_89903EA3BA97B7DA                           
000006e8  __covrec_3BA9635216645C03                           
00000710  __covrec_6C53DA2275C49D7A                           
00000738  __covrec_5EA01366798D8EFE                           
00000760  __covrec_7F4E20D181868532                           
00000788  __covrec_939A9BE9C3BB19AD                           
000007b0  __covrec_40C18490949891D7                           
000007d8  __covrec_86FB69AA390AAAD                            
00000800  __covrec_F31C7F9B9F1F70B7                           
00000828  __covrec_1279EB38C65A9C81                           
00000850  __covrec_B26C26792DC6D1AD                           
00000878  __covrec_3AF6ECF1FA8694DC                           
000008a0  __covrec_C933C34768BF4A57                           
000008c8  __covrec_56FA554F388C9232                           
000008f0  __covrec_291BFE9C88E5AC02                           
00000918  __covrec_5D479D30DFE31B40                           
00000940  __covrec_B23118F52EEC18B3                           
00000968  __covrec_37805BC28183985E                           
00000990  __covrec_8C46E79E23C68442                           
000009b8  __covrec_A8A2F256F1C6E168                           
000009e0  __covrec_2095F8ED47FA2B8E                           
00000a08  __covrec_CA1513FF983217A8                           
00000a30  __covrec_FC422F91F6524CEA                           
00000a58  __covrec_599502B5B0EE5CFA                           
00000a80  __covrec_B235C1BDA370244F                           
00000aa8  __covrec_F81C8DC38A85241C                           
00000ad0  __covrec_4A71F76137D1C9B1                           
00000af8  __covrec_C1845D39DAEB76B0                           
00000b20  __covrec_296806BE07101057                           
00000b48  __covrec_9EF9BB2CB9A17440                           
00000b70  __covrec_F93191802FA55B6D                           
00000b98  __covrec_BAC3E342B9BA895A                           
00000bc0  __covrec_48F70C8DE5D5AAA2                           
00000be8  __covrec_2BE95002FF4967F8                           
00000c10  __covrec_1CF4646B205A9FF0                           
00000c38  __covrec_99201B59C123FA0E                           
00000c60  __covrec_CBC45EFDE907705B                           
00000c88  __covrec_A824D71DACF46CB4                           
00000cb0  __covrec_1755ACCADDE2ADE2                           
00000cd8  __covrec_B1F0583C314DF016                           
00000d00  __covrec_E8721693EFE6AFA7                           
00000d28  __covrec_8BF536BEF951F29C                           
00000d50  __covrec_ACDB124F8EC23243                           
00000d78  __covrec_4793BCA81EFDADFE                           
00000da0  __covrec_47F579BABCD4CF22                           
00000dc8  __covrec_E11B039574B00BC2                           
00000df0  __covrec_72D214962052ED3A                           
00000e18  __covrec_A6D2AC20E713DBA0                           
00000e40  __covrec_50B1FF7694E13956                           
00000e68  __covrec_5F61DF1AA2CB7790                           
00000e90  __covrec_4B395E5F3DE29F7F                           
00000eb8  __covrec_EAF82D895A279DCA                           
00000ee0  __covrec_ED8994FF717DB293                           
00000f08  __covrec_9B065D973A214D07                           
00000f30  __covrec_96F03E0AD484281                            
00000f58  __covrec_47EF24B68DF5509B                           
00000f80  __covrec_BA18E81197F63CA                            
00000fa8  __covrec_D2D5D222C8AD35B5                           
00000fd0  __covrec_408CC9783B033088                           
00000ff8  __covrec_E6CBFA19001E245D                           
00001020  __covrec_25589AEB54999A95                           
00001048  __covrec_CE976EF58CAEB3D8                           
00001070  __covrec_92FFB6A54C2A296D                           
00001098  __covrec_D08773B8CD621528                           
000010c0  __covrec_278D20B54B3B5916                           
000010e8  __covrec_9F282797260B5A04                           
00001110  __covrec_151F220D67DF3059                           
00001138  __covrec_A7D3DFDD6FA77CD7                           
00001160  __covrec_A27BAD9C85883369                           
00001188  __covrec_8E5B0D531293FA87                           
000011b0  __covrec_13C06AA66973640C                           
000011d8  __covrec_5BB2DDEC27A4FE8F                           
00001200  __covrec_220EB616F014858A                           
00001228  __covrec_155ADAEE4A3C67F4                           
00001250  __covrec_C8EC31DBF85D36AD                           
00001278  __covrec_15DC9CBFDAF32061                           
000012a0  __covrec_E04C612F65EE0396                           
000012c8  __covrec_A614FA44AFAC5602                           
000012f0  __covrec_B243FBA84A5D7C22                           
00001318  __covrec_88189A5882C88BDD                           
00001340  __covrec_F2E56BF58C18DBFD                           
00001368  __covrec_EE863C0A8C61F28B                           
00001390  __covrec_7890599F671BF9CE                           
000013b8  __covrec_75D2B8DECF980907                           
000013e0  __covrec_E42DCE197DEA3C8B                           
00001408  __covrec_F99530A04D7353E4                           
00001430  __covrec_EC7131F8A0FCEBD4                           
00001458  __covrec_9702AFC31C416D72                           
00001480  __covrec_82140C191C2E04BB                           
000014a8  __covrec_6467B20BD9BFB1E6                           
000014d0  __covrec_166F1AF22F7E2C0C                           
000014f8  __covrec_5B9F539FE30823E3                           
00001520  __covrec_F1E8E8C9FFF613E1                           
00001548  __covrec_8141224FD39CE077                           
00001570  __covrec_F4C48F27E50B0425                           
00001598  __covrec_AB3596B96EA48348                           
000015c0  __covrec_9372C85102BB981F                           
000015e8  __covrec_F2AC63A937EA8A8A                           
00001610  __covrec_5B1734EDA5E266DA                           
00001638  __covrec_9B74C96DC96608F0                           
00001660  __covrec_9D4D51A5AE8DCFAE                           
00001688  __covrec_F5B5A752C02D90B7                           
000016b0  __covrec_78C609CE49D4F28C                           
000016d8  __covrec_3123069D01F4599                            
00001700  __covrec_ADA83B0EDF6DD479                           
00001728  __covrec_8CA087EE45EA69A                            
00001750  __covrec_975A80303D9D15F8                           
00001778  __covrec_A6219CD6431E5146                           
000017a0  __covrec_9DEB8850F58D89A7                           
000017c8  __covrec_55746A7A2E6B0A15                           
000017f0  __covrec_C8141D847005DAB                            
00001818  __covrec_48F6325AC83F0DE1                           
00001840  __covrec_B07EAA8D233771E0                           
00001868  __covrec_98ACDB6DBDB5D757                           
00001890  __covrec_CC6265146B87DA05                           
000018b8  __covrec_F3EE993387F58036                           
000018e0  __covrec_E37F437BE96B8EFD                           
00001908  __covrec_567154F81A7B0DC7                           
00001930  __covrec_3C81DDC52428CAE9                           
00001958  __covrec_BB5930CC5B146234                           
00001980  __covrec_48FD354D1367032                            
000019a8  __covrec_6D925BC78D55BC95                           
000019d0  __covrec_86BAB02BADBA7CFD                           
000019f8  __covrec_83C9A53220BC9F62                           
00001a20  __covrec_FE86DA401C8D5A44                           
00001a48  __covrec_6D1C89178C927930                           
00001a70  __covrec_AD21EF5EFA2D8C37                           
00001a98  __covrec_1C6DF580FDBD96AA                           
00001ac0  __covrec_6DEB1ED163EFEAE                            
00001ae8  __covrec_C364D3BE5713CD77                           
00001b10  __covrec_D5319892B33E0A42                           
00001b38  __covrec_33D81E8523FD2D54                           
00001b60  __covrec_9E1FBD6F089F08C1                           
00001b88  __covrec_6A42DF4E09347B79                           
00001bb0  __covrec_F40CBFF942259F3C                           
00001bd8  __covrec_5E667D62CAD8A254                           
00001c00  __covrec_13D2FC1D8D22F2CC                           
00001c28  __covrec_4779C2DBB640E6C3                           
00001c50  __covrec_A9582446AC9FD3CF                           
00001c78  __covrec_B8240C8D9116C0D0                           
00001ca0  __covrec_890CC5DA68653F07                           
00001cc8  __covrec_6C96CAFA9A490EC6                           
00001cf0  __covrec_E51D0EB21A0ECB89                           
00001d18  __covrec_AD7296C3F8DBE773                           
00001d40  __covrec_C97A72447627504C                           
00001d68  __covrec_D225079CB8C867D6                           
00001d90  __covrec_233A7BFC175F361D                           
00001db8  __covrec_4AE55592A9ADA3A2                           
00001de0  __covrec_FA30148B898B58C2                           
00001e08  __covrec_BDF8D382975C8993                           
00001e30  __covrec_2472237B4D7BA73B                           
00001e58  __covrec_AB024E5F5C76A1EB                           
00001e80  __covrec_74B16093F5C7F6BD                           
00001ea8  __covrec_CC1364777ABF56A0                           
00001ed0  __covrec_C6B90750ACBE0BF3                           
00001ef8  __covrec_FDC8CE9CC3562912                           
00001f20  __covrec_D8A8734031DD8C5                            
00001f48  __covrec_D1DDC36933046D72                           
00001f70  __covrec_E7108ED8A2FCBB6E                           
00001f98  __covrec_B2E16CD98B4768F0                           
00001fc0  __covrec_23305BD9D99395D7                           
00001fe8  __covrec_1D68D76C51C8264                            
00002010  __covrec_82A3C31D971F9882                           
00002038  __covrec_CE2DA908966DB48A                           
00002060  __covrec_AF1A906930DA521D                           
00002088  __covrec_6E3936E02D8039F0                           
000020b0  __covrec_5AED040B4487EF20                           
000020d8  __covrec_A674F99908A5B311                           
00002100  __covrec_BC33B843F5D20054                           
00002128  __covrec_88BD2BAB1E7B13A4                           
00002150  __covrec_D903AC98EC854A19                           
00002178  __covrec_80604E48A87B1199                           
000021a0  __covrec_E5A57A40DB9831E                            
000021c8  __covrec_7BFB759F0D2148B8                           
000021f0  __covrec_8F86C935430742BB                           
00002218  __covrec_7735CDCE1349C570                           
00002240  __covrec_574A1AB4FC226011                           
00002268  __covrec_4D5976BDD80DE62F                           
00002290  __covrec_F235567A9AB4DD23                           
000022b8  __covrec_9C2A22168ABFC1C9                           
000022e0  __covrec_C3D611E6D3DD117E                           
00002308  __covrec_813157FFE151C1DF                           
00002330  __covrec_9C18A632BAD9CD1A                           
00002358  __covrec_E976534255BE239F                           
00002380  __covrec_7AF21D2EFCC9B316                           
000023a8  __covrec_97721138E8A98378                           
000023d0  __covrec_D5AD845A9CE134CF                           
000023f8  __covrec_667D4E53F86D5C75                           
00002420  __covrec_AB67FFA4EADD061B                           
00002448  __covrec_3BB586228DBE95EE                           
00002470  __covrec_97F5C53504315CE8                           
00002498  __covrec_608422705140C1D2                           
000024c0  __covrec_93C95BADCFB91FD4                           
000024e8  __covrec_413A39E5A8D43E11                           
00002510  __covrec_46CFF20A3272DC93                           
00002538  __covrec_528E8FB409EC553A                           
00002560  __covrec_FFB79A5504A0D26                            
00002588  __covrec_21F8331B37F355A3                           
000025b0  __covrec_B9C05CE479B355F1                           
000025d8  __covrec_4CA916E060BFDC73                           
00002600  __covrec_55ECCAA6B8C55F13                           
00002628  __covrec_32E747FEB1BC894E                           
00002650  __covrec_34DFA110B6CB4C34                           
00002678  __covrec_12E34682498B0B72                           
000026a0  __covrec_561F506EA5BF699B                           
000026c8  __covrec_1A63E06A5352E3CC                           
000026f0  __covrec_9FF3167DD00ED32                            
00002718  __covrec_B2147270C3D860B1                           
00002740  __covrec_FF9670604336DD15                           
00002768  __covrec_C218F5A77DFD4FE                            
00002790  __covrec_B9BF9677F9CE51D1                           
000027b8  __covrec_6C7008A69A61EAEC                           
000027e0  __covrec_EF5F57E11C5B1A                             
00002808  __covrec_E32E2FCD480CB552                           
00002830  __covrec_5ACC983070967510                           
00002858  __covrec_8CCD31D87EB503B2                           
00002880  __covrec_8B1FD72B653FE6C7                           
000028a8  __covrec_566C41992BA95594                           
000028d0  __covrec_109FB62289BD602B                           
000028f8  __covrec_D77A3DC92DA658B5                           
00002920  __covrec_D68B3DD53DF7D586                           
00002948  __covrec_F06D1CD24075E1B3                           
00002970  __covrec_DB098651BEB6790E                           
00002998  __covrec_5BF6EB17462867A2                           
000029c0  __covrec_A4D99DE85DBC1F77                           
000029e8  __covrec_710B558E3943E575                           
00002a10  __covrec_FF25F723AA32587B                           
00002a38  __covrec_72C4B34DEC52800                            
00002a60  __covrec_432817A303D92BD1                           
00002a88  __covrec_45172430EF97AEC9                           
00002ab0  __covrec_5543CAFE45A2B8D7                           
00002ad8  __covrec_C7DF4CB39DC98A53                           
00002b00  __covrec_DBC1B2A90E6C7FF8                           
00002b28  __covrec_9E6C290C47BB6AD1                           
00002b50  __covrec_43F31289FEF2F462                           
00002b78  __covrec_17E6A0EBA1760BB8                           
00002ba0  __covrec_5E5C946D0AC24404                           
00002bc8  __covrec_9C38E6E16601BF1D                           
00002bf0  __covrec_C017AAA412BA6024                           
00002c18  __covrec_3D49059DA242988                            
00002c40  __covrec_747D4E7A4E76176B                           
00002c68  __covrec_5250899153F007A3                           
00002c90  __covrec_19005C1DF6B253C1                           
00002cb8  __covrec_C8BFF568D19FF3CC                           
00002ce0  __covrec_7153677CC670D312                           
00002d08  __covrec_14BDA604853DFA10                           
00002d30  __covrec_8A79B91E73DE11F2                           
00002d58  __covrec_43BC90899029C9D5                           
00002d80  __covrec_BAC27ADC829D6C5B                           
00002da8  __covrec_5627D5CF9A6BFCC2                           
00002dd0  __covrec_BA1BA9708D895AA0                           
00002df8  __covrec_2A7FB660AD53947F                           
00002e20  __covrec_182B8B029510F629                           
00002e48  __covrec_AB89AE110B934911                           
00002e70  __covrec_3D3BA94C9B59433F                           
00002e98  __covrec_DAF07F6B11C934AF                           
00002ec0  __covrec_4AE7340B8DCDF6AE                           
00002ee8  __covrec_AF1D94185FAAAD95                           
00002f10  __covrec_9B0A309CD3104C52                           
00002f38  __covrec_1AF36DF059A3AD37                           
00002f60  __covrec_C5F27978801027BC                           
00002f88  __covrec_803B5347AAE64CFE                           
00002fb0  __covrec_17C6694668EA5AC3                           
00002fd8  __covrec_D674FCD3872F46AE                           
00003000  __covrec_31E810F428902870                           
00003028  __covrec_3071A6017CC5DE3B                           
00003050  __covrec_F81E9711591E7245                           
00003078  __covrec_FFCEF0A31F68875F                           
000030a0  __covrec_6FB3FBF4BCAB0FBD                           
000030c8  __covrec_A0C6251CA6BAEF59                           
000030f0  __covrec_26C8977D61E9CA27                           
00003118  __covrec_6658C2E0B666F08E                           
00003140  __covrec_39442E89959A4CC5                           
00003168  __covrec_9D0D8E8B52AD0FAC                           
00003190  __covrec_6C8DC30E6FF8909B                           
000031b8  __covrec_3146A293F50F4078                           
000031e0  __covrec_1D4017870F54F401                           
00003208  __covrec_DBE5BB9C61620E75                           
00003230  __covrec_B5BE54782E2272D0                           
00003258  __covrec_6EBB4484CCD6F1D4                           
00003280  __covrec_A3CF293BF973A369                           
000032a8  __covrec_51B781D3AE80E419                           
000032d0  __covrec_568F16C8FCAE0C3F                           
000032f8  __covrec_F2A185451ACC1F2F                           
00003320  __covrec_65A7EEBDB806F9A3                           
00003348  __covrec_1B195569B99A4E21                           
00003370  __covrec_7225140012710BA3                           
00003398  __covrec_99017C537476DAFB                           
000033c0  __covrec_177E454A53552891                           
000033e8  __covrec_4AEB4754DF08838B                           
00003410  __covrec_AD7085C060AC05DC                           
00003438  __covrec_D5309053D1A91407                           
00003460  __covrec_AAFC457CCFEC3FB3                           
00003488  __covrec_3385B58968629AB3                           
000034b0  __covrec_793BB089341C84EB                           
000034d8  __covrec_5156A8D013F60117                           
00003500  __covrec_8817CEA02751DAB6                           
00003528  __covrec_B83E0C8EBBA6E994                           
00003550  __covrec_BF3F2126054AE91A                           
00003578  __covrec_C1D8412DE5BD9780                           
000035a0  __covrec_A17A419DF3839CA2                           
000035c8  __covrec_D41FD78A298AE8F4                           
000035f0  __covrec_4A738DD4CAE97BEA                           
00003618  __covrec_D41C46AE9E504369                           
00003640  __covrec_29794F29E9B7EDB7                           
00003668  __covrec_53EB71387BB08DD0                           
00003690  __covrec_2AA3A65C5BBFE5AE                           
000036b8  __covrec_D8C068E85B40F205                           
000036e0  __covrec_BFB8BDF3A4B6B84C                           
00003708  __covrec_A621CF2108A2691C                           
00003730  __covrec_EFB1FD3256A6DF90                           
00003758  __covrec_61DF3B37739BE8A6                           
00003780  __covrec_33816425693FD95E                           
000037a8  __covrec_D688427DB1C2A17                            
000037d0  __covrec_5EAC415090AE0B04                           
000037f8  __covrec_B0353174E8186383                           
00003820  __covrec_A3481EE467F330A8                           
00003848  __covrec_2E397360657A7C47                           
00003870  __covrec_EBA016AEC0DBDB33                           
00003898  __covrec_D997DCDF22945AFE                           
000038c0  __covrec_DE410BA07D132B8D                           
000038e8  __covrec_E91D67B418A4CE9A                           
00003910  __covrec_846FA03C787A2165                           
00003938  __covrec_46D098413E9410EF                           
00003960  __covrec_201817040F60CC63                           
00003988  __covrec_D3122E4B3B13D95D                           
000039b0  __covrec_3B60D08E6532112E                           
000039d8  __covrec_C5849F63B2609F39                           
00003a00  __covrec_597C29EB07934324                           
00003a28  __covrec_D2CA41A6087850AF                           
00003a50  __covrec_7FB798F36F9A386D                           
00003a78  __covrec_793DFBEC3AA57388                           
00003aa0  __covrec_74DF40D9D60AD4EF                           
00003ac8  __covrec_AE1C864FA61259B6                           
00003af0  __covrec_94543CA233A27D48                           
00003b18  __covrec_1A00969098F4224A                           
00003b40  __covrec_4B6569F9909312D2                           
00003b68  __covrec_E5F045431841FE59                           
00003b90  __covrec_D78BC7DBC9C1B643                           
00003bb8  __covrec_68CE617F7930620E                           
00003be0  __covrec_D7C69B99E134C001                           
00003c08  __covrec_20D45F1C1B0DCBF4                           
00003c30  __covrec_B58D16B34726F0C3                           
00003c58  __covrec_AD51B93937B98AE2                           
00003c80  __covrec_E43902D5BEEB8AC5                           
00003ca8  __covrec_26A033CE85860DD8                           
00003cd0  __covrec_38FBB9D977F49AED                           
00003cf8  __covrec_DBB2DCDDD5355556                           
00003d20  __covrec_54B9DD99D691ABF6                           
00003d48  __covrec_374EF303A561461A                           
00003d70  __covrec_461F414D383104CA                           
00003d98  __covrec_A3791246A3F30E0D                           
00003dc0  __covrec_55545DEEBE8BE779                           
00003de8  __covrec_F6E8F21C0BC850D9                           
00003e10  __covrec_E5AF271A9C7CBB87                           
00003e38  __covrec_B7897A6CFC8317A6                           
00003e60  __covrec_374AFB2EDDD8AD5E                           
00003e88  __covrec_A8A0C109485E3CC4                           
00003eb0  __covrec_C16DFCE554B90BDD                           
00003ed8  __covrec_AE86839607BA7A5C                           
00003f00  __covrec_1872965C19E53D15                           
00003f28  __covrec_989E188AB59A4933                           
00003f50  __covrec_4F3554549BE7A990                           
00003f78  __covrec_65AB55174D80D2AF                           
00003fa0  __covrec_1CC64667D520CF78                           
00003fc8  __covrec_EBD035310952A729                           
00003ff0  __covrec_8B3CE83DACB492A                            
00004018  __covrec_50F70A712A1FC762                           
00004040  __covrec_CA9DF116CBB1A635                           
00004068  __covrec_8376281344521E79                           
00004090  __covrec_5324740A855A9B1E                           
000040b8  __covrec_83A550955EC188C1                           
000040e0  __covrec_B20746D3061C8F72                           
00004108  __covrec_CF02246FCE39E01C                           
00004130  __covrec_2D5C314E3B4A5A86                           
00004158  __covrec_75AEF0F6C3117952                           
00004180  __covrec_B4FFCA34D0DB9625                           
000041a8  __covrec_B72C816B5DC64C76                           
000041d0  __covrec_547CF771662AC329                           
000041f8  __covrec_CBF63B7408916505                           
00004220  __covrec_31D56F96844B21BC                           
00004248  __covrec_868357C6DFC99EB4                           
00004270  __covrec_E69F771932B3CAAF                           
00004298  __covrec_95C3FA5BDD7FBE1E                           
000042c0  __covrec_59B2EB4A99A1CF85                           
000042e8  __covrec_BF81ED98AFD35D2                            
00004310  __covrec_C9BB88041811FC8                            
00004338  __covrec_A0F6C1420194C2B                            
00004360  __covrec_9849B267E2833B7E                           
00004388  __covrec_604B5A7A5E6479E                            
000043b0  __covrec_B66246C4D520B8D0                           
000043d8  __covrec_35CB88DD9E12F9FE                           
00004400  __covrec_4A96CE9EDA511E95                           
00004428  __covrec_DA54F99C0112192B                           
00004450  __covrec_18B090C97B6E0500                           
00004478  __covrec_7AF6560AB772BEDF                           
000044a0  __covrec_7EDA996C810A9B09                           
000044c8  __covrec_D1C0E243B9EA99EB                           
000044f0  __covrec_251446D4DB5BA0F                            
00004518  __covrec_B4825F892DB7D4B5                           
00004540  __covrec_1C54EF15B9D8B63D                           
00004568  __covrec_E2A39DB2C077EA47                           
00004590  __covrec_F8EBA7E180AADBE4                           
000045b8  __covrec_2BC20A3657257F58                           
000045e0  __covrec_4D13C2E09E5F4CE2                           
00004608  __covrec_AF996118ABDA76E6                           
00004630  __covrec_69532FF3D21A91FD                           
00004658  __covrec_BC665D9E69366950                           
00004680  __covrec_DAC5FB0FB5F0F2B2                           
000046a8  __covrec_A35C7BAC10FCAF84                           
000046d0  __covrec_5D5976B873566812                           
000046f8  __covrec_BB6485CAAE871F53                           
00004720  __covrec_6F247D0192E50EBD                           
00004748  __covrec_910961E56934863C                           
00004770  __covrec_67AC37F9F25470D5                           
00004798  __covrec_638A3AC729575531                           
000047c0  __covrec_91AE7CAD7CDA0B0D                           
000047e8  __covrec_3574F575841D40BF                           
00004810  __covrec_CB94E54873CF9CB0                           
00004838  __covrec_546D735B2FFCDEFC                           
00004860  __covrec_F3AB0AC93DE7FF4F                           
00004888  __covrec_F620C5AD896F293C                           
000048b0  __covrec_507F2F110A945A2D                           
000048d8  __covrec_4A2D448C730C8DE1                           
00004900  __covrec_99E7B2BA7FCE4224                           
00004928  __covrec_F5FBA72848F48492                           
00004950  __covrec_C5FA0E1470E7AAFD                           
00004978  __covrec_360BB3E8DEFA7DDF                           
000049a0  __covrec_C92FA8FD8D1B9400                           
000049c8  __covrec_92AAA9CF543DC84F                           
000049f0  __covrec_1B6039F89FCDB1DE                           
00004a18  __covrec_B029310EE9562AF1                           
00004a40  __covrec_5DFB9444F09D3C7                            
00004a68  __covrec_9EF57EFF4B02626D                           
00004a90  __covrec_AB99E6ACCBBDA525                           
00004ab8  __covrec_32FFC15AFCD6C07A                           
00004ae0  __covrec_8B37DB5F6DBC9759                           
00004b08  __covrec_93736800063F6B7                            
00004b30  __covrec_CEBEB8A49D09021F                           
00004b58  __covrec_101D7AD5CD1F21E7                           
00004b80  __covrec_6227AFE56FFF4D45                           
00004ba8  __covrec_8B6481C8A6B39313                           
00004bd0  __covrec_72FDFF4D7B599535                           
00004bf8  __covrec_B4430FF82EB9C6E1                           
00004c20  __covrec_40BE4EBA087C0A14                           
00004c48  __covrec_117BD7CDED6D0222                           
00004c70  __covrec_230C8126DDCE4055                           
00004c98  __covrec_D432E267BB611654                           
00004cc0  __covrec_1820A44D584DEF75                           
00004ce8  __covrec_6F23B8796C703558                           
00004d10  __covrec_8A4356745E9D807D                           
00004d38  __covrec_32463D3BCC41BC42                           
00004d60  __covrec_DBD4CD073AC16641                           
00004d88  __covrec_BBAF8238C17B890B                           
00004db0  __covrec_D0B5EDC08309A59D                           
00004dd8  __covrec_29F7FDEE528B646                            
00004e00  __covrec_EAC9B83280B676F                            
00004e28  __covrec_88199B73FA78983E                           
00004e50  __covrec_2E7537F3B4A4E91E                           
00004e78  __covrec_D8B659364D04439C                           
00004ea0  __covrec_E66DF9F174BA45FB                           
00004ec8  __covrec_397A9158C8CCCDBE                           
00004ef0  __covrec_644E138B7E858FF8                           
00004f18  __covrec_4F5AA496BB7072A4                           
00004f40  __covrec_1B62C2F7F2CFC0D6                           
00004f68  __covrec_F553C07364760769                           
00004f90  __covrec_668003C8E6357776                           
00004fb8  __covrec_BC64E39279738557                           
00004fe0  __covrec_EF8AAD4F00800A13                           
00005008  __covrec_6305186D5603F2B3                           
00005030  __covrec_D9343028F1A0B023                           
00005058  __covrec_692FE685B1AC1CE8                           
00005080  __covrec_F3B8D336CFF70300                           
000050a8  __covrec_1A31150D8176ABFA                           
000050d0  __covrec_3D094E70C24EC8FB                           
000050f8  __covrec_9F546977A4804BCC                           
00005120  __covrec_21B93DD5F55307D7                           
00005148  __covrec_8A8470CD74199380                           
00005170  __covrec_F686AABA09F6E844                           
00005198  __covrec_15E4CDCB5EB4F3D4                           
000051c0  __covrec_AB5761CD7A308398                           
000051e8  __covrec_947632A115E8241                            
00005210  __covrec_F35CFD41CFA29944                           
00005238  __covrec_B0D5D939C8C6905B                           
00005260  __covrec_384022D77EA5D9C3                           
00005288  __covrec_C9494CAE1273A347                           
000052b0  __covrec_524958ADC9233CAD                           
000052d8  __covrec_9F91596CE96F0879                           
00005300  __covrec_C4CAB47EDDA4C706                           
00005328  __covrec_7740CC9B6585C557                           
00005350  __covrec_B9D03A83939FDB4A                           
00005378  __covrec_1C74D0C9D64F6DD1                           
000053a0  __covrec_78AD29D61BFDBB9                            
000053c8  __covrec_D8E93D8253B5ED98                           
000053f0  __covrec_6C067A457A93D4AB                           
00005418  __covrec_F293E87DA0C26E2                            
00005440  __covrec_3E57519724A2D42B                           
00005468  __covrec_BAECC4317681A5E0                           
00005490  __covrec_90632DD2A15CBB99                           
000054b8  __covrec_AC98208652846A5E                           
000054e0  __covrec_63D9FD7E5A2A55A6                           
00005508  __covrec_BDD45B2AD6F20345                           
00005530  __covrec_F7AF3BB2F509D20                            
00005558  __covrec_2A8A9BB12950205                            
00005580  __covrec_6A0642C5970D4FB7                           
000055a8  __covrec_16798DAE29A6728C                           
000055d0  __covrec_B36C64511D841814                           
000055f8  __covrec_58B165E894510304                           
00005620  __covrec_EDCFF94A4FB9042C                           
00005648  __covrec_944B131ED2943DA                            
00005670  __covrec_845CC49CF4881322                           
00005698  __covrec_82652B84706C49B2                           
000056c0  __covrec_4134B07B45A07085                           
000056e8  __covrec_8D944B1D28D14D33                           
00005710  __covrec_556A541226515D5B                           
00005738  __covrec_DB1B7323EED2E617                           
00005760  __covrec_96181CAA1BF8F78F                           
00005788  __covrec_93BC64042E4A8808                           
000057b0  __covrec_3798CDC2881D9A1B                           
000057d8  __covrec_5666988480AD55F4                           
00005800  __covrec_97321DFE1285E1E3                           
00005828  __covrec_FA0D4A3E7DC31A46                           
00005850  __covrec_49DFD33FEF0D504C                           
00005878  __covrec_F38BB8D6F19C2DE0                           
000058a0  __covrec_CEAE119190830E66                           
000058c8  __covrec_E2833E0B93C7A137                           
000058f0  __covrec_8F5300284C3730D1                           
00005918  __covrec_D0F585CEACFAB342                           
00005940  __covrec_DBCD2E7FD95B5157                           
00005968  __covrec_2BB2097F3005F291                           
00005990  __covrec_75392995535578F6                           
000059b8  __covrec_6EF58BE13179E536                           
000059e0  __covrec_EAA72C3EBC7F2D33                           
00005a08  __covrec_51D7EECF6A60435C                           
00005a30  __covrec_59C8294039AD0690                           
00005a58  __covrec_A963D832DF3463D1                           
00005a80  __covrec_1270D38127654F8B                           
00005aa8  __covrec_335A8A3F65B33883                           
00005ad0  __covrec_BD306A2D3127DCC3                           
00005af8  __covrec_E4DEDF64B0693C43                           
00005b20  __covrec_371EB7211197BE84                           
00005b48  __covrec_1BFC824417740B44                           
00005b70  __covrec_ED619635B04F0A5C                           
00005b98  __covrec_B2E4BCF627C2BF82                           
00005bc0  __covrec_88EF917E78DC5F0F                           
00005be8  __covrec_2E805BA354DDE5F1                           
00005c10  __covrec_1824871B460CA334                           
00005c38  __covrec_129F94317DA7F30                            
00005c60  __covrec_3FAF1812B7100266                           
00005c88  __covrec_32FDE92D5F4FDAB3                           
00005cb0  __covrec_D0520A85A46D324                            
00005cd8  __covrec_AF68A90997F9541D                           
00005d00  __covrec_F7AFF5C1C479C5FB                           
00005d28  __covrec_69A49B199DFF337E                           
00005d50  __covrec_A48F7F0DE4D96153                           
00005d78  __covrec_6BD2AA277F149052                           
00005da0  __covrec_3FF19FD56A64467                            
00005dc8  __covrec_9E35EFAC80D05E48                           
00005df0  __covrec_14AA3B7ABB91D212                           
00005e18  __covrec_2EBD17F4D4A93A57                           
00005e40  __covrec_AA8A6519B6303396                           
00005e68  __covrec_3DF6DFDD358F435C                           
00005e90  __covrec_610335B3FAAB05D8                           
00005eb8  __covrec_C6BFBC2F454CB4BB                           
00005ee0  __covrec_7A4EC9B4CEBD8B5D                           
00005f08  __covrec_C7EC8F8B528C5465                           
00005f30  __covrec_5ED4EF00443A7DAB                           
00005f58  __covrec_6AE97663982E383E                           
00005f80  __covrec_BADFF9B3C99BBB61                           
00005fa8  __covrec_BCF5280D80FBBAE2                           
00005fd0  __covrec_45285314C707F78A                           
00005ff8  __covrec_2DA718EB5D26722E                           
00006020  __covrec_AF2AF2F95AEEFA0D                           
00006048  __covrec_EC18AFBAA43A4272                           
00006070  __covrec_633C91EE35199F1E                           
00006098  __covrec_DBB9A92BC50A4059                           
000060c0  __covrec_FE040D9492AB9F64                           
000060e8  __covrec_7E0B738386A8EF6A                           
00006110  __covrec_12D287B1D1EA8674                           
00006138  __covrec_C4B8C6B93533778D                           
00006160  __covrec_2AA255741AD002EC                           
00006188  __covrec_96DDCA793670F239                           
000061b0  __covrec_28A1F0E2E79273D5                           
000061d8  __covrec_9A3ADBC082E9AAC                            
00006200  __covrec_5E19B701DC81E242                           
00006228  __covrec_642E5B10B188A3D6                           
00006250  __covrec_6677360D49B494F9                           
00006278  __covrec_62E85A39B8187662                           
000062a0  __covrec_D4E976CA85E4AFB8                           
000062c8  __covrec_3388964050D04A99                           
000062f0  __covrec_6C4EACA3F39F0573                           
00006318  __covrec_E89612ACBD275F3F                           
00006340  __covrec_F2D3E6CA5D35E6E5                           
00006368  __covrec_8359E5331D998291                           
00006390  __covrec_FC988F68F547D17C                           
000063b8  __covrec_1F22DD1C959C91ED                           
000063e0  __covrec_AB5D6D9D1F4BA488                           
00006408  __covrec_23071AE42576F880                           
00006430  __covrec_14AD27DAB44290B3                           
00006458  __covrec_40EF6DA59BF1358B                           
00006480  __covrec_DDD4CC459ADDDF02                           
000064a8  __covrec_9B8615CF8B980EDC                           
000064d0  __covrec_C0B27CAE93174129                           
000064f8  __covrec_CD1D4D1319567F0B                           
00006520  __covrec_BDB761F95E41F4E7                           
00006548  __covrec_5E85F502574BB276                           
00006570  __covrec_15622BEB7C318D21                           
00006598  __covrec_80B0FFD7FCF98B69                           
000065c0  __covrec_94E47B32CF41F522                           
000065e8  __covrec_EEF9D7ADD7F58D6E                           
00006610  __covrec_562C75A9FC1A12E2                           
00006638  __covrec_629B12EC4A1F7134                           
00006660  __covrec_E9280544FA2A53A6                           
00006688  __covrec_DF151D8848F2CF6F                           
000066b0  __covrec_65194143DF55B5                             
000066d8  __covrec_FE5CC575FCF9BEBE                           
00006700  __covrec_2FB088ADD68FCE76                           
00006728  __covrec_4E1905FC878707E7                           
00006750  __covrec_68082437DBE18FE2                           
00006778  __covrec_4FF6CA47F8AECE41                           
000067a0  __covrec_AEAF03419A024DCC                           
000067c8  __covrec_C0D18844372CC162                           
000067f0  __covrec_65A80ACEC266624C                           
00006818  __covrec_10BC67A46C6BA4E1                           
00006840  __covrec_D24099E0BFBAF770                           
00006868  __covrec_C7357FC961E0E039                           
00006890  __covrec_ECA481CBBB9B0B43                           
000068b8  __covrec_76FC393EE723569B                           
000068e0  __covrec_1BE3021FE05BF3BD                           
00006908  __covrec_10A8EDBD7725E4C4                           
00006930  __covrec_8B0F850B93AA1929                           
00006958  __covrec_B14E836DB43667DA                           
00006980  __covrec_C2372178BF7E7BE6                           
000069a8  __covrec_4E80D2942CAA33D2                           
000069d0  __covrec_F645ECD6C53C862C                           
000069f8  __covrec_4526568532B8DD5F                           
00006a20  __covrec_77EEBEB7560D4AD5                           
00006a48  __covrec_294162901DC95F3D                           
00006a70  __covrec_32CE7735299A3E01                           
00006a98  __covrec_59F9C2B43996D1F5                           
00006ac0  __covrec_3B2AC0867AC33244                           
00006ae8  __covrec_8E17962CCD301CE3                           
00006b10  __covrec_4011F1AD3B6D1AF9                           
00006b38  __covrec_A3897EFF8A5AA8E3                           
00006b60  __covrec_79F31BF247F5B25A                           
00006b88  __covrec_8F5600A6DFA2DE56                           
00006bb0  __covrec_C90A19228FB8B4E7                           
00006bd8  __covrec_CF3E24FDCAE6DA8F                           
00006c00  __covrec_993FC46C13C3DA37                           
00006c28  __covrec_6D110EA2344CE9CD                           
00006c50  __covrec_E2B1C8B410BF8D49                           
00006c78  __covrec_3567F53A81292919                           
00006ca0  __covrec_A30573B40347360A                           
00006cc8  __covrec_2CB9BAC8D406BE26                           
00006cf0  __covrec_5E3383EE5F29A521                           
00006d18  __covrec_F12CB27E2D0C945E                           
00006d40  __covrec_3753C4328AF6B939                           
00006d68  __covrec_8CE55DE4106A73CB                           
00006d90  __covrec_899BDB20D7E53C76                           
00006db8  __covrec_E69D547CB69C39DD                           
00006de0  __covrec_FCC4A91F1253E5BE                           
00006e08  __covrec_20D8102C0F82A672                           
00006e30  __covrec_EED9E6510928A2DA                           
00006e58  __covrec_CE0AC87A12580A95                           
00006e80  __covrec_3E13E99A092E7E6D                           
00006ea8  __covrec_8B441CF08FAC73E1                           
00006ed0  __covrec_DCF4420C3ECB5B5B                           
00006ef8  __covrec_A9F1B910A90D3752                           
00006f20  __covrec_748BE3DC7FDE4285                           
00006f48  __covrec_719B926659E5F12F                           
00006f70  __covrec_D9BBC5BB541D75C                            
00006f98  __covrec_D1AD90C594B54226                           
00006fc0  __covrec_98F3CB07CCB3A119                           
00006fe8  __covrec_4A982DACBE37D45E                           
00007010  __covrec_EED85F399FD5AB                             
00007038  __covrec_DDD2030351D00E1F                           
00007060  __covrec_5CCE0DAF2FF9A4BD                           
00007088  __covrec_6454A920071C6A0B                           
000070b0  __covrec_FE32C88E62C7B418                           
000070d8  __covrec_647981CD8C894CA1                           
00007100  __covrec_B20494A214E52BCB                           
00007128  __covrec_32FD25CAFA2FA3F                            
00007150  __covrec_FEA12951888F146E                           
00007178  __covrec_DCB43A538F09BC2F                           
000071a0  __covrec_E5C53DE02F8AD5E8                           
000071c8  __covrec_99AAB5E44AF42363                           
000071f0  __covrec_C43EA65A45B557F6                           
00007218  __covrec_BFC09B27086B1C32                           
00007240  __covrec_5F39538DC454B643                           
00007268  __covrec_4B7C2EF6E8ABC076                           
00007290  __covrec_A440BA412367926E                           
000072b8  __covrec_3F388789CB10C043                           
000072e0  __covrec_C9BE04315B706DB9                           
00007308  __covrec_251AC1BAAF70978                            
00007330  __covrec_B481479CAAA464E8                           
00007358  __covrec_79BBD943383931C9                           
00007380  __covrec_8B89719C51E1CAF2                           
000073a8  __covrec_B9E5D6B7A73E1850                           
000073d0  __covrec_E85A719E3B0D2830                           
000073f8  __covrec_3141127DFCB0E5C1                           
00007420  __covrec_3127FC05412087DB                           
00007448  __covrec_E49FECB398A134DC                           
00007470  __covrec_9E0F484F81D00D11                           
00007498  __covrec_CE64DBF3B6E29F0F                           
000074c0  __covrec_62109F73A5C73E90                           
000074e8  __covrec_1E5603FECA1E1A8E                           
00007510  __covrec_97C7615129864BEE                           
00007538  __covrec_F81C47CA0E066BFB                           
00007560  __covrec_539B0AC17412CFC0                           
00007588  __covrec_2A44FCBDF20489DA                           
000075b0  __covrec_784344A264A5F2C5                           
000075d8  __covrec_38995153250C7179                           
00007600  __covrec_39FE66B094FDD29E                           
00007628  __covrec_2AD7D25310F1B76E                           
00007650  __covrec_96375EEC88E9CBBB                           
00007678  __covrec_AAF231E36C499115                           
000076a0  __covrec_20639EFE5768C3A2                           
000076c8  __covrec_42BBF155C16B0EB6                           
000076f0  __covrec_AD4A582F4726B565                           
00007718  __covrec_7C1C97CB2CEDB133                           
00007740  __covrec_A7938700FD860545                           
00007768  __covrec_2CE271A28D69F08D                           
00007790  __covrec_FA8566F1D1BD6B0A                           
000077b8  __covrec_2B0B4F27C457F058                           
000077e0  __covrec_56BF8361CA594FF1                           
00007808  __covrec_66C7D1F198349945                           
00007830  __covrec_9F677F6438BA43F8                           
00007858  __covrec_62D0EE8E23769238                           
00007880  __covrec_50F327C6B027E7ED                           
000078a8  __covrec_7BF47FC08D371B3A                           
000078d0  __covrec_D05A2902FCE7468F                           
000078f8  __covrec_3FD00206CB732DBD                           
00007920  __covrec_FF7F985CE7786E51                           
00007948  __covrec_378C1BDED5EB95E1                           
00007970  __covrec_762D03ED4FC2B723                           
00007998  __covrec_736CA3B71F3DA3E3                           
000079c0  __covrec_2D6D2A9BF384BBF8                           
000079e8  __covrec_AA2C44C4DEF02698                           
00007a10  __covrec_B6BB61E24DD822A5                           
00007a38  __covrec_6F468E21615A93E7                           
00007a60  __covrec_8DDD98D07AD708F0                           
00007a88  __covrec_90EAAF50B7930E3F                           
00007ab0  __covrec_59ABEF43FFBD3E28                           
00007ad8  __covrec_1EF97DE3B5D220E4                           
00007b00  __covrec_8A501F393B3E2F0B                           
00007b28  __covrec_6BC1860F28C4D927                           
00007b50  __covrec_DB121606D663AFC5                           
00007b78  __covrec_2F8E6571432A21BE                           
00007ba0  __covrec_4CAAEE63EAB944FE                           
00007bc8  __covrec_FE9BCF9AC9352598                           
00007bf0  __covrec_50692BC34D97A3D9                           
00007c18  __covrec_CEB69395AB9969A                            
00007c40  __covrec_868DF4CCF3B7589D                           
00007c68  __covrec_294C567624BF176F                           
00007c90  __covrec_91F601ADCC6C6D2B                           
00007cb8  __covrec_56BE841AAF3931FE                           
00007ce0  __covrec_2018D0000D49AFFA                           
00007d08  __covrec_EA6C30C3EADE80C1                           
00007d30  __covrec_DD9E688941DA5E19                           
00007d58  __covrec_EB2EB136EEB6656                            
00007d80  __covrec_DFF6420A97BE5B40                           
00007da8  __covrec_636834419B050CB0                           
00007dd0  __covrec_B9AF23C200693F6E                           
00007df8  __covrec_822128941F1018D1                           
00007e20  __covrec_F5587C360730E7D2                           
00007e48  __covrec_F0B92E01C329E03C                           
00007e70  __covrec_5C5C63072D7051F1                           
00007e98  __covrec_FE6247FAAEEEEE88                           
00007ec0  __covrec_EB412DFA7175BF70                           
00007ee8  __covrec_9E166ABC78C5A21                            
00007f10  __covrec_6B0199E73EFE5A21                           
00007f38  __covrec_A34080B9B2AB11FD                           
00007f60  __covrec_201BD6063BBF692E                           
00007f88  __covrec_2AEC527EE24ED251                           
00007fb0  __covrec_A84371268C3E46B                            
00007fd8  __covrec_BBC65D230AB5FF37                           
00008000  __covrec_4B7DC3C267BBC035                           
00008028  __covrec_555B0B68F98647AD                           
00008050  __covrec_949781C523B07F60                           
00008078  __covrec_C60D4E42E4E4E139                           
000080a0  __covrec_E3C6C3BA6C36A06F                           
000080c8  __covrec_EA5BF735887C1EE8                           
000080f0  __covrec_B1A12F32E2DE6586                           
00008118  __covrec_1317FD1781CC6A2C                           
00008140  __covrec_177C43FE745EB825                           
00008168  __covrec_390597126B89F69A                           
00008190  __covrec_5878F933F4CCC637                           
000081b8  __covrec_3E31EB6592D517FC                           
000081e0  __covrec_571D94D568232624                           
00008208  __covrec_A9EB8CB748D76AAA                           
00008230  __covrec_A1A7E0FA27524C6F                           
00008258  __covrec_67808FAEF32C458                            
00008280  __covrec_B7F9055DA9FF33E1                           
000082a8  __covrec_64D20BAB3E015BA9                           
000082d0  __covrec_63E90FF2AB73F056                           
000082f8  __covrec_DA26B9846FC12449                           
00008320  __covrec_C1EA9FB5AFD907C3                           
00008348  __covrec_39C302ABEC3DBE81                           
00008370  __covrec_A64CF965FA985336                           
00008398  __covrec_A74075BC1BEFD3CD                           
000083c0  __covrec_D015B07E6AD4E940                           
000083e8  __covrec_1038EB58730FD48B                           
00008410  __covrec_385AAA4BA32B2471                           
00008438  __covrec_C94BCF5FE46591F5                           
00008460  __covrec_D80ED5B49346C78B                           
00008488  __covrec_BDDD32A9D9ECF727                           
000084b0  __covrec_7F971562A8D23D9F                           
000084d8  __covrec_84F3BD520FE33ED6                           
00008500  __covrec_34C142EC699EC720                           
00008528  __covrec_C9B3F9A2C5F1A597                           
00008550  __covrec_B6733BDF5B5C76B9                           
00008578  __covrec_A37F1E936DE9FEFC                           
000085a0  __covrec_E5F82F94428B7B9F                           
000085c8  __covrec_6CB12BE091A67E69                           
000085f0  __covrec_8C04387BCC7E0C3E                           
00008618  __covrec_522771E5DAC7E127                           
00008640  __covrec_AF373CE6A2890484                           
00008668  __covrec_C348C4B6496C616A                           
00008690  __covrec_E5A722872A8D5624                           
000086b8  __covrec_636E8D8CEF6253BF                           
000086e0  __covrec_5D325AC923420321                           
00008708  __covrec_248CE10267CDF42E                           
00008730  __covrec_EE3F1D823EF96AA5                           
00008758  __covrec_9EFA8006973AC6FC                           
00008780  __covrec_3E0110DF0F0EC583                           
000087a8  __covrec_3D154E75A9AB5ABA                           
000087d0  __covrec_3B52A62B5B696508                           
000087f8  __covrec_A7D2106220741652                           
00008820  __covrec_1E125F2EDD4F5B10                           
00008848  __covrec_CC04FE68D91B4075                           
00008870  __covrec_6D77DB09D1620DB                            
00008898  __covrec_20A8AEAB0FB7E85F                           
000088c0  __covrec_C095468B7CCD95F2                           
000088e8  __covrec_3E7DF015DBC53AF9                           
00008910  __covrec_6456909145D8F599                           
00008938  __covrec_1A7F2303B42046F8                           
00008960  __covrec_F521DF2FF8846CDC                           
00008988  __covrec_5736DB34CBAF8EEB                           
000089b0  __covrec_6575FFA245A1E175                           
000089d8  __covrec_7671AB8D06A20227                           
00008a00  __covrec_224D6AD422EC06A9                           
00008a28  __covrec_804C17FC575CB0B8                           
00008a50  __covrec_377310A20F116092                           
00008a78  __covrec_27678FA5BC56B6BD                           
00008aa0  __covrec_D9BC94A769291BB6                           
00008ac8  __covrec_548A0E72AB0F802F                           
00008af0  __covrec_6A3CE61966D39FF9                           
00008b18  __covrec_C0C938CB2E82FF6E                           
00008b40  __covrec_1A646CA9748EDB0C                           
00008b68  __covrec_A09C6D9304083DC3                           
00008b90  __covrec_3451BE90EFC3DE9B                           
00008bb8  __covrec_E1794BB171F9F9C4                           
00008be0  __covrec_13B3010E9D4F59A0                           
00008c08  __covrec_9065D8E5341A221D                           
00008c30  __covrec_60A594F6F18A39A9                           
00008c58  __covrec_C002266B8BB6BECF                           
00008c80  __covrec_757997A262B541A6                           
00008ca8  __covrec_12D78B30B5B7617A                           
00008cd0  __covrec_E6960B5768173FED                           
00008cf8  __covrec_AA304BFAAA2ADEFD                           
00008d20  __covrec_6EFFFCD273F67852                           
00008d48  __covrec_42FC287338A248BD                           
00008d70  __covrec_DD629C7B682E0468                           
00008d98  __covrec_11B7661F647265EF                           
00008dc0  __covrec_7F678E3C386D5052                           
00008de8  __covrec_69A73A0E51BF03EC                           
00008e10  __covrec_99115F9F90954CC8                           
00008e38  __covrec_E955B564137ECBC7                           
00008e60  __covrec_9C9C0F23EFC035CB                           
00008e88  __covrec_F20836F3F58AB2D9                           
00008eb0  __covrec_C15312F4DAB97454                           
00008ed8  __covrec_4A1D07B2F4DAF5AE                           
00008f00  __covrec_3CB52B04804594EB                           
00008f28  __covrec_D4E24490ED74F654                           
00008f50  __covrec_F8DB58C0AE33507                            
00008f78  __covrec_962FAEEB7DB3AFC2                           
00008fa0  __covrec_37A1402F0EA571E0                           
00008fc8  __covrec_1E52F16D7720D4E7                           
00008ff0  __covrec_E4A88558A98C9414                           
00009018  __covrec_B38E19936F23CC20                           
00009040  __covrec_478C0FAA7E4CFCB3                           
00009068  __covrec_4526B0CBB3C28C05                           
00009090  __covrec_129D40AB2FC1D69A                           
000090b8  __covrec_4837DF2A71535D44                           
000090e0  __covrec_44AC10EC143B811C                           
00009108  __covrec_B70D30C2260E29B8                           
00009130  __covrec_61A6C052F194855B                           
00009158  __covrec_352ABEA6E975600C                           
00009180  __covrec_91FB8202B8D96313                           
000091a8  __covrec_7C95548AD104DFD8                           
000091d0  __covrec_4B3474E56418C3FE                           
000091f8  __covrec_6E2C96E9EEDCA321                           
00009220  __covrec_49AC53C749EDA5C1                           
00009248  __covrec_E6220BF848308A1E                           
00009270  __covrec_2A45F8922E45D8AE                           
00009298  __covrec_93CB117149ABD7CF                           
000092c0  __covrec_D1E4442F49EE73BE                           
000092e8  __covrec_ADDF7DAB18D240D0                           
00009310  __covrec_697FFC441CDB2D08                           
00009338  __covrec_4CB2D0D2FE3EEF3E                           
00009360  __covrec_F51C883C2FF97518                           
00009388  __covrec_E9EBB27F6CB6D8B3                           
000093b0  __covrec_63C4AEFF9F080181                           
000093d8  __covrec_53E68BD5D7682646                           
00009400  __covrec_D2DD04293F7041A9                           
00009428  __covrec_695334294E76D45D                           
00009450  __covrec_B06A29084267BD6A                           
00009478  __covrec_5BF09BA8B0F0C6C6                           
000094a0  __covrec_EC5F96D2837AC3CC                           
000094c8  __covrec_BA3529BAED2EED82                           
000094f0  __covrec_8846CE73CAC4C19D                           
00009518  __covrec_6937A188498916FE                           
00009540  __covrec_5B67C2F312B3440C                           
00009568  __covrec_286998E54EC7CE49                           
00009590  __covrec_629A9358A163118B                           
000095b8  __covrec_5F901A037720B408                           
000095e0  __covrec_496D2B7053B35B64                           
00009608  __covrec_ED24C604136902A7                           
00009630  __covrec_8ED1815E67653F17                           
00009658  __covrec_8A136986D23C2F96                           
00009680  __covrec_2B502882FFA47B28                           
000096a8  __covrec_CE7BECF74436DB3A                           
000096d0  __covrec_AA85F0DD68D937F9                           
000096f8  __covrec_7B19F13EF535868B                           
00009720  __covrec_461B97B92772FB6A                           
00009748  __covrec_F4C3D1DB1AA1D74E                           
00009770  __covrec_E58422357AC5992C                           
00009798  __covrec_E2D5B45E22BDE4CD                           
000097c0  __covrec_438D9DAD9736276C                           
000097e8  __covrec_75A9ADC78BB595AB                           
00009810  __covrec_2FE88CFBC82411B3                           
00009838  __covrec_63216C2DB060ACA7                           
00009860  __covrec_860A4A6FBDE0D933                           
00009888  __covrec_686469A801C23CB8                           
000098b0  __covrec_297B80CEAB36675B                           
000098d8  __covrec_85A6888E35372863                           
00009900  __covrec_65909571E28BCE1                            
00009928  __covrec_1DC54CDADD288D5C                           
00009950  __covrec_A1CF9A0473404F39                           
00009978  __covrec_50394FD87BBA1630                           
000099a0  __covrec_53930602A67EE197                           
000099c8  __covrec_A52A27668EB37C65                           
000099f0  __covrec_AC8BCBF9D28A7CBE                           
00009a18  __covrec_A9C0F2A9FF8B2993                           
00009a40  __covrec_30294E057B7E3A3E                           
00009a68  __covrec_ABF308DCBC301FDF                           
00009a90  __covrec_47F2DE9FDADD83E                            
00009ab8  __covrec_38171919BD9EA530                           
00009ae0  __covrec_2588EBE00D582DBD                           
00009b08  __covrec_2702C1420258A632                           
00009b30  __covrec_7E86E09A60EFD20A                           
00009b58  __covrec_CD4D7FAF5389999E                           
00009b80  __covrec_B521099FA550E481                           
00009ba8  __covrec_6992243A72A5DE55                           
00009bd0  __covrec_44D488810E3E579E                           
00009bf8  __covrec_9D76FF73BBC98ED6                           
00009c20  __covrec_40D0B7BA41150093                           
00009c48  __covrec_C64137FE321F63EC                           
00009c70  __covrec_FA94AA241F490B3C                           
00009c98  __covrec_34D0110B4BC4B15D                           
00009cc0  __covrec_3A5A2683C5ED654                            
00009ce8  __covrec_46D8FF4847FD7D1E                           
00009d10  __covrec_14A6DC76ABD3128C                           
00009d38  __covrec_EAA177794967A49E                           
00009d60  __covrec_41C69CD925CD8A1B                           
00009d88  __covrec_C345A94DC000612D                           
00009db0  __covrec_4290A1CA61C3EE4                            
00009dd8  __covrec_F21D6B07AD50688D                           
00009e00  __covrec_55C4A40800574A23                           
00009e28  __covrec_C4902A3C8FE4557E                           
00009e50  __covrec_5C4CA646B7675724                           
00009e78  __covrec_E93349D27E1BF2D4                           
00009ea0  __covrec_62E44F1B32C562CD                           
00009ec8  __covrec_65B70DF1000966EB                           
00009ef0  __covrec_6E4AA10E1BA0A4D7                           
00009f18  __covrec_268FED8287120A5F                           
00009f40  __covrec_35C10EA5484983A4                           
00009f68  __covrec_EB06D292BC30CC31                           
00009f90  __covrec_949EF2E7CC5B87D0                           
00009fb8  __covrec_BB2AFC71F2EF6CD9                           
00009fe0  __covrec_BB3442CE84DA6512                           
0000a008  __covrec_D1EF261E1DC719AA                           
0000a030  __covrec_FA0F70A6D7845FF4                           
0000a058  __covrec_BBA75AC1059AD9A5                           
0000a080  __covrec_AFC1481B2945B775                           
0000a0a8  __covrec_838EABA01914E9F6                           
0000a0d0  __covrec_9EA808AD373450A6                           
0000a0f8  __covrec_B7729C8220AEE3F2                           
0000a120  __covrec_A4E297F8CB9E7F67                           
0000a148  __covrec_E9CE782BE2CD22C5                           
0000a170  __covrec_DB16ACCC814A19EA                           
0000a198  __covrec_E86A579149628E06                           
0000a1c0  __covrec_23A46A9976AAC318                           
0000a1e8  __covrec_8C60226D7271C7B9                           
0000a210  __covrec_7B7B7F5E63C6852D                           
0000a238  __covrec_B117A58E40288055                           
0000a260  __covrec_B2E7AB548C753C5C                           
0000a288  __covrec_95E2C5D7CFE865DA                           
0000a2b0  __covrec_5C3180C4CCE799AB                           
0000a2d8  __covrec_CA497169AAC6A9F5                           
0000a300  __covrec_F5568F34A22AC2E                            
0000a328  __covrec_DCD33C3CC8933225                           
0000a350  __covrec_76A4D2C396D6FA29                           
0000a378  __covrec_6994B50692AA6259                           
0000a3a0  __covrec_C76E07DCE15D4490                           
0000a3c8  __covrec_F9DC41B08F4BA7A8                           
0000a3f0  __covrec_6AFC04CA9DC39C4B                           
0000a418  __covrec_897C71F8A1152CB                            
0000a440  __covrec_42D15EBB013A3D5D                           
0000a468  __covrec_39F417CAAFDBE167                           
0000a490  __covrec_E679F5F0612E6D24                           
0000a4b8  __covrec_2EE66B721E401316                           
0000a4e0  __covrec_8527805B2F2E4D0D                           
0000a508  __covrec_838D660945361D3D                           
0000a530  __covrec_BE18B82C693962F7                           
0000a558  __covrec_CFFC5180E5D452A2                           
0000a580  __covrec_35F5C0327EFD50F7                           
0000a5a8  __covrec_365C4CD56520F7C5                           
0000a5d0  __covrec_FED5F8744DCFA6F                            
0000a5f8  __covrec_97CFC592B556F598                           
0000a620  __covrec_4B659EDEC7EC6270                           
0000a648  __covrec_EB45870490C9DA4F                           
0000a670  __covrec_9D60915DC45DFF74                           
0000a698  __covrec_2399BFF2B2C79A27                           
0000a6c0  __covrec_C503E37C6799657D                           
0000a6e8  __covrec_4F6D7B641F46AE0A                           
0000a710  __covrec_7DBD191316F5EABA                           
0000a738  __covrec_1DCBF9D97AAE5C9C                           
0000a760  __covrec_6E55765A6A7CACDD                           
0000a788  __covrec_F569D9A26F31F8CE                           
0000a7b0  __covrec_6FB6455F1C834422                           
0000a7d8  __covrec_C7C14DCBE04F0703                           
0000a800  __covrec_5613CE184C254D2A                           
0000a828  __covrec_F0A55D9AC3EAE3AB                           
0000a850  __covrec_943D7004B5947658                           
0000a878  __covrec_E7544958D234856F                           
0000a8a0  __covrec_ABE1E57A66F0949C                           
0000a8c8  __covrec_15AE6051F35A213B                           
0000a8f0  __covrec_B8602C13A59B807F                           
0000a918  __covrec_F98D2C651C199082                           
0000a940  __covrec_A617B81D6ACC87E0                           
0000a968  __covrec_61A877EC0BBB6D7F                           
0000a990  __covrec_5307BFECDBF2BBE8                           
0000a9b8  __covrec_7EA4147E6C547E99                           
0000a9e0  __covrec_99E4D3F680DA961B                           
0000aa08  __covrec_42AC900BB7486493                           
0000aa30  __covrec_9EBB5DF1AA3C7CF3                           
0000aa58  __covrec_61BA743105179B9F                           
0000aa80  __covrec_AAAE1945B283DEA2                           
0000aaa8  __covrec_7F7A1280EC71DB3E                           
0000aad0  __covrec_94B954E8A688F672                           
0000aaf8  __covrec_306A2D95C2665BD4                           
0000ab20  __covrec_21E4DD6FCD2569FE                           
0000ab48  __covrec_49FB078994ECC0B2                           
0000ab70  __covrec_62001DCB53B20522                           
0000ab98  __covrec_2796CEB562E840FB                           
0000abc0  __covrec_C2CE05CE246A7AF5                           
0000abe8  __covrec_998EEA7759507861                           
0000ac10  __covrec_4B390B7866CD3A4D                           
0000ac38  __covrec_D0509F88C6E4AC0B                           
0000ac60  __covrec_6E8CDD6D58BE2A4A                           
0000ac88  __covrec_6C787EEE1E0BEE9E                           
0000acb0  __covrec_8B192BDB6E6F58A2                           
0000acd8  __covrec_CA0F2663CEC039D8                           
0000ad00  __covrec_23DFCA457C136F68                           
0000ad28  __covrec_1FF148111818E899                           
0000ad50  __covrec_239882757F2C71CD                           
0000ad78  __covrec_79FE1084C1217F51                           
0000ada0  __covrec_A99EA60A414C64C9                           
0000adc8  __covrec_72FC1F6525C1AD78                           
0000adf0  __covrec_65930080C4AED8BC                           
0000ae18  __covrec_5BF9C41A6B496BD5                           
0000ae40  __covrec_456DE4155BAF9DA9                           
0000ae68  __covrec_C8E97B71A497D67B                           
0000ae90  __covrec_9ACF57055C60C075                           
0000aeb8  __covrec_602A53F8769E198D                           
0000aee0  __covrec_DFB64F15E691D9DA                           
0000af08  __covrec_5B440AD5CE1FF207                           
0000af30  __covrec_CE98894FF628C031                           
0000af58  __covrec_24A738CF15DF1A1E                           
0000af80  __covrec_649F40C9A85B3A8C                           
0000afa8  __covrec_F728CA2398F1DD80                           
0000afd0  __covrec_3F7A4A41FFC9BE16                           
0000aff8  __covrec_ADD4ADE6AFF4463                            
0000b020  __covrec_E60B95791218FD24                           
0000b048  __covrec_7E92DF62825C5CFD                           
0000b070  __covrec_F271E9A72A4FD5BE                           
0000b098  __covrec_8068B0CBBE306F42                           
0000b0c0  __covrec_A67A622C3928DA47                           
0000b0e8  __covrec_6ACEF55C859DA560                           
0000b110  __covrec_6D1780077E71C50F                           
0000b138  __covrec_59CA964E9D3F27EE                           
0000b160  __covrec_F17D7C0B574D9144                           
0000b188  __covrec_B74456E990FC68CC                           
0000b1b0  __covrec_96F5C9E922F86CD3                           
0000b1d8  __covrec_21A906EE96F4D83                            
0000b200  __covrec_6DE9D33398D76EBC                           
0000b228  __covrec_4FC7B427B3B2CEC2                           
0000b250  __covrec_192B699B2B42C444                           
0000b278  __covrec_45EB13B81907E913                           
0000b2a0  __covrec_9B4689E7C7399820                           
0000b2c8  __covrec_80A2D283AB0EEC2B                           
0000b2f0  __covrec_66DB19B2A7EBF391                           
0000b318  __covrec_B31254F3CD11A45F                           
0000b340  __covrec_91CC60C21DCEBF24                           
0000b368  __covrec_7F72BD6B7003F342                           
0000b390  __covrec_FF4C1BEDC7C89759                           
0000b3b8  __covrec_70B281B5EC3E487                            
0000b3e0  __covrec_CDD3854C50E5FC87                           
0000b408  __covrec_B3E5DE3EAEF1C87B                           
0000b430  __covrec_C023A19CA3E3215C                           
0000b458  __covrec_EA9C2000B91D7A41                           
0000b480  __covrec_C5124DA1CB6B98FE                           
0000b4a8  __covrec_4AD3267B9EAE526                            
0000b4d0  __covrec_32DA69C8C0A759E6                           
0000b4f8  __covrec_E582F71D2B001301                           
0000b520  __covrec_F39B7444D544331E                           
0000b548  __covrec_2637454506591008                           
0000b570  __covrec_AF066B2BCAF46A36                           
0000b598  __covrec_6399B86B8B5945BE                           
0000b5c0  __covrec_CDE1669FB2936160                           
0000b5e8  __covrec_EADD23A0E35B47B1                           
0000b610  __covrec_6D35D64597EB4397                           
0000b638  __covrec_6A430024219B8D7E                           
0000b660  __covrec_FF58D167FB6E13C4                           
0000b688  __covrec_B233B91BBFF9318A                           
0000b6b0  __covrec_F225132387401830                           
0000b6d8  __covrec_C7F5D79A44C2E726                           
0000b700  __covrec_14DB6DEE3873BAB3                           
0000b728  __covrec_CC323FA63F4BC135                           
0000b750  __covrec_E2D9DD5DDAE186C6                           
0000b778  __covrec_5BA13EDCA92EE784                           
0000b7a0  __covrec_BC8E7927CDD7BFE1                           
0000b7c8  __covrec_96CB6E466B4D81E1                           
0000b7f0  __covrec_9EF7DBC35A3D937E                           
0000b818  __covrec_DCCFD167CB66BB96                           
0000b840  __covrec_AEB3A095BD6DD613                           
0000b868  __covrec_ACE9A9C00ECA350A                           
0000b890  __covrec_1D9749F129EAD7ED                           
0000b8b8  __covrec_7785D6C8B067B604                           
0000b8e0  __covrec_E7CB9D85C9C662E4                           
0000b908  __covrec_E48BC7B43E75DCE6                           
0000b930  __covrec_1356A4438101A4BA                           
0000b958  __covrec_8969EC415BCC4C1A                           
0000b980  __covrec_49F0ACD0342415F3                           
0000b9a8  __covrec_C588263F79B1890A                           
0000b9d0  __covrec_7619C5D1447F825F                           
0000b9f8  __covrec_E973D5EF210D265E                           
0000ba20  __covrec_1DB8EFF5C1EC663C                           
0000ba48  __covrec_73E180F067BE584B                           
0000ba70  __covrec_38B03CFE94535454                           
0000ba98  __covrec_EA05A92A1C32FBF7                           
0000bac0  __covrec_F563E6C432F703BA                           
0000bae8  __covrec_2572A5DE118464FB                           
0000bb10  __covrec_FD47005FD3C8CA5                            
0000bb38  __covrec_F7D7FD5423A6DD53                           
0000bb60  __covrec_9A1A0037E30755A2                           
0000bb88  __covrec_A07F69FCF8DAF544                           
0000bbb0  __covrec_FAEFC2751BB45494                           
0000bbd8  __covrec_9E38913A4BEC4AB3                           
0000bc00  __covrec_CECDA6825145949                            
0000bc28  __covrec_A0274C7D798628                             
0000bc50  __covrec_67DB0895E616FC9C                           
0000bc78  __covrec_FC29A5950D631E5D                           
0000bca0  __covrec_2336F440E54F8423                           
0000bcc8  __covrec_947797BC4FE7FDBA                           
0000bcf0  __covrec_DBEB5DF48CCEBD0D                           
0000bd18  __covrec_CBB11FF1CA262F6F                           
0000bd40  __covrec_4F645A26125D1C8B                           
0000bd68  __covrec_6ED322FDC4910103                           
0000bd90  __covrec_3C278B2EC4801F42                           
0000bdb8  __covrec_CAADD540A11809EA                           
0000bde0  __covrec_DABCB63F7BECDBE6                           
0000be08  __covrec_E7F49F0860281955                           
0000be30  __covrec_10C156195D5FF38D                           
0000be58  __covrec_6AF55650CCB77553                           
0000be80  __covrec_167C8B35F4ADBEFA                           
0000bea8  __covrec_B6C7B68C3D8F57B1                           
0000bed0  __covrec_36EEE970BFED3D2B                           
0000bef8  __covrec_474318727FA02B9C                           
0000bf20  __covrec_A3294448B34306F4                           
0000bf48  __covrec_63D73E7826C35CB3                           
0000bf70  __covrec_5EC86F398AB3CA6F                           
0000bf98  __covrec_C7AB083EBAE1AA55                           
0000bfc0  __covrec_2F8D50373C13A999                           
0000bfe8  __covrec_45E6723FAF3867BE                           
0000c010  __covrec_7CC2069F8BA9935E                           
0000c038  __covrec_2D19885EF7471B2                            
0000c060  __covrec_97F0427FF81A1B19                           
0000c088  __covrec_D554560F1B184DFA                           
0000c0b0  __covrec_3503171B9CE8B4A4                           
0000c0d8  __covrec_A10FB9E7BC747E05                           
0000c100  __covrec_BE1C859F4CF59297                           
0000c128  __covrec_374B40431E205167                           
0000c150  __covrec_AEF44B8D50D3810C                           
0000c178  __covrec_FC8723635095452                            
0000c1a0  __covrec_4392D9038D1D9659                           
0000c1c8  __covrec_8678D810F1DCED6F                           
0000c1f0  __covrec_6CB67D67B05AA3AE                           
0000c218  __covrec_4CC275C8A00CCEEB                           
0000c240  __covrec_5F64CA33BB839DBB                           
0000c268  __covrec_2967732FFBAA2755                           
0000c290  __covrec_74357F5711C27AD3                           
0000c2b8  __covrec_C579B42FFF2729F6                           
0000c2e0  __covrec_64D85B80E5F77A40                           
0000c308  __covrec_4177E95219D51969                           
0000c330  __covrec_349E460FEA63C8CD                           
0000c358  __covrec_339C0E79F05F94CE                           
0000c380  __covrec_1110D355F864FCE7                           
0000c3a8  __covrec_8569CD8C968D2C06                           
0000c3d0  __covrec_E7593404EBE11EDC                           
0000c3f8  __covrec_520E7B167105424E                           
0000c420  __covrec_E0B88D4F632FE2A5                           
0000c448  __covrec_99C1140A20E33D7F                           
0000c470  __covrec_B37654A6069E7993                           
0000c498  __covrec_535CD84CE08FE5C5                           
0000c4c0  __covrec_20DFD31670A46363                           
0000c4e8  __covrec_C3120B6A3386D81D                           
0000c510  __covrec_EEE4E39182D96AF2                           
0000c538  __covrec_AA76895E2ABEA2EC                           
0000c560  __covrec_28F32414B479DBD3                           
0000c588  __covrec_36DE61C794C3056D                           
0000c5b0  __covrec_BCF032E5D77571B1                           
0000c5d8  __covrec_D34E40FFC6540C3D                           
0000c600  __covrec_80FC681A8953ECB4                           
0000c628  __covrec_310FBA926274A0B                            
0000c650  __covrec_81A4E43B346ED3F5                           
0000c678  __covrec_DAF5EC757DDCD690                           
0000c6a0  __covrec_CD31E7F793B9B4CB                           
0000c6c8  __covrec_4091CD943CCF8C5B                           
0000c6f0  __covrec_D7E73D2C84D3838C                           
0000c718  __covrec_33DDC4726F6DEE9A                           
0000c740  __covrec_F10BAF815A6B12C8                           
0000c768  __covrec_8D7654C525AE6A49                           
0000c790  __covrec_3AA6352672FFD909                           
0000c7b8  __covrec_412AD9C75C1B51AC                           
0000c7e0  __covrec_BABC5360EAE56C7                            
0000c808  __covrec_DA2B3FA2014B2C64                           
0000c830  __covrec_3323E7FE3A211B8                            
0000c858  __covrec_53EE9BDE37683AB4                           
0000c880  __covrec_29258D52205E89C7                           
0000c8a8  __covrec_AA03FC70B178B3DE                           
0000c8d0  __covrec_90F939130AE6613B                           
0000c8f8  __covrec_3320931F9ED3D27B                           
0000c920  __covrec_6E1227FEB6BFE405                           
0000c948  __covrec_FB57D020BECB2495                           
0000c970  __covrec_2436C0B58D2C054A                           
0000c998  __covrec_FC4175469ED64A5F                           
0000c9c0  __covrec_C560D1E9BAC2332A                           
0000c9e8  __covrec_FC66CB3B1536098A                           
0000ca10  __covrec_CACDBD8613207AB3                           
0000ca38  __covrec_CA2721D5C34C012A                           
0000ca60  __covrec_DD5D0E9DED4D6871                           
0000ca88  __covrec_C83F46CEBC96C742                           
0000cab0  __covrec_54BAA0C2F5E450FA                           
0000cad8  __covrec_C5F4BFBAC104C809                           
0000cb00  __covrec_F7941DE436E5456C                           
0000cb28  __covrec_E5D59465076DD776                           
0000cb50  __covrec_2499694F1FAFF322                           
0000cb78  __covrec_47371E6A14F37019                           
0000cba0  __covrec_21D597CC8605C935                           
0000cbc8  __covrec_343E5E1292DB7B1E                           
0000cbf0  __covrec_72297716A701B796                           
0000cc18  __covrec_88C8AECF8C6FB5C8                           
0000cc40  __covrec_A913E064E4463229                           
0000cc68  __covrec_DD8AC1E108EFC928                           
0000cc90  __covrec_92DD0C1DC9242C31                           
0000ccb8  __covrec_D8944EDB6AF472EB                           
0000cce0  __covrec_5AFCAF44E34BB1DA                           
0000cd08  __covrec_4F54308AE2348CFD                           
0000cd30  __covrec_FCB2B7A5C089556A                           
0000cd58  __covrec_123EB8C578FD193B                           
0000cd80  __covrec_1E2E4201513B70B2                           
0000cda8  __covrec_80A356B7C274D80E                           
0000cdd0  __covrec_B9961F45651254BF                           
0000cdf8  __covrec_83056C9A0AF6F524                           
0000ce20  __covrec_8DFCB4F87D03431F                           
0000ce48  __covrec_1D58190537E3CFC3                           
0000ce70  __covrec_A24520B3176BF023                           
0000ce98  __covrec_AEB0179E7B63E241                           
0000cec0  __covrec_A703F7356269E9F8                           
0000cee8  __covrec_940D91F714D96096                           
0000cf10  __covrec_71CE4DBB7A214158                           
0000cf38  __covrec_CA8C2ADD2595D7F4                           
0000cf60  __covrec_1ADA6098EFAC29C8                           
0000cf88  __covrec_441CA2F0B18AF4C9                           
0000cfb0  __covrec_7BDF98DFF162BB55                           
0000cfd8  __covrec_28780F12580BD926                           
0000d000  __covrec_612B4EA79531F718                           
0000d028  __covrec_E7FF4411CAA0B73B                           
0000d050  __covrec_D0407209336DDD75                           
0000d078  __covrec_E07F116EB495258B                           
0000d0a0  __covrec_6493DB06BF22A45E                           
0000d0c8  __covrec_E0C07C118C235F68                           
0000d0f0  __covrec_2CB4FBDD458B5DD4                           
0000d118  __covrec_C30BF79348DB2C9B                           
0000d140  __covrec_9BF6013281A37883                           
0000d168  __covrec_A269246DA6E9D71F                           
0000d190  __covrec_6431399E81DB1F36                           
0000d1b8  __covrec_59D1F16991A42361                           
0000d1e0  __covrec_9845BA599AD877E1                           
0000d208  __covrec_FA5A8DAE1CE43F2B                           
0000d230  __covrec_7A5DDC8A48407DEC                           
0000d258  __covrec_46E46989C24F1DA6                           
0000d280  __covrec_82523A93A9718750                           
0000d2a8  __covrec_B995853542DE42AC                           
0000d2d0  __covrec_219190D4F77683FE                           
0000d2f8  __covrec_362D01790CBA8EFC                           
0000d320  __covrec_F702D89E20B6343E                           
0000d348  __covrec_45FD1A177C1DF800                           
0000d370  __covrec_923A49D5CA78422C                           
0000d398  __covrec_214B7FF2F70B9A96                           
0000d3c0  __covrec_17F8E9CABBEF06E7                           
0000d3e8  __covrec_4BB652AA23511ADF                           
0000d410  __covrec_AF163C0F8C39173E                           
0000d438  __covrec_13A722056043017C                           
0000d460  __covrec_4FB88B74DC9672C1                           
0000d488  __covrec_28C3515B27F2A28D                           
0000d4b0  __covrec_5A2CC4A90EDFD2FB                           
0000d4d8  __covrec_D0885F8BD8C07B5B                           
0000d500  __covrec_B128DA8C72BBB663                           
0000d528  __covrec_891832A50BD3BA81                           
0000d550  __covrec_9A75669352A1B988                           
0000d578  __covrec_9B220919F851F88                            
0000d5a0  __covrec_7B77F0DF3FF3B280                           
0000d5c8  __covrec_163DF186A631F368                           
0000d5f0  __covrec_D05CF5C781AD9932                           
0000d618  __covrec_B7B168F8D901474                            
0000d640  __covrec_A4CC2E08DEECC807                           
0000d668  __covrec_12FB7772134BB406                           
0000d690  __covrec_7B47829B3F40CF9F                           
0000d6b8  __covrec_DA415124BB27D5CD                           
0000d6e0  __covrec_529AC6DF93B13B03                           
0000d708  __covrec_B3C8F96D3D6A4D57                           
0000d730  __covrec_898B3298F8B6F736                           
0000d758  __covrec_726B40ADD07CF149                           
0000d780  __covrec_8029F7EE7AB2E6EE                           
0000d7a8  __covrec_7D918E535BE97F7C                           
0000d7d0  __covrec_81E95EA0E694E087                           
0000d7f8  __covrec_85314095522AF0A0                           
0000d820  __covrec_AE8092662BE88D07                           
0000d848  __covrec_6AF03B03A73AC51A                           
0000d870  __covrec_BB2F531F1F5E3759                           
0000d898  __covrec_A90C482AAF300E83                           
0000d8c0  __covrec_EC399C54F25821A4                           
0000d8e8  __covrec_C36A5949ABC24FD2                           
0000d910  __covrec_97438CBEC15F0018                           
0000d938  __covrec_4CB2AA2492BB0FC4                           
0000d960  __covrec_D44CABA7DD27BD8C                           
0000d988  __covrec_29DA12F55100078D                           
0000d9b0  __covrec_52DF949C3D283718                           
0000d9d8  __covrec_4DA4D50ABF717294                           
0000da00  __covrec_A9D3CD2EB06A9406                           
0000da28  __covrec_1BEE15CBA2D54933                           
0000da50  __covrec_E55C036C662D7F3B                           
0000da78  __covrec_D37D51BE139ECC93                           
0000daa0  __covrec_51ED15640AE1E781                           
0000dac8  __covrec_6E3B7BCBA8A6C71                            
0000daf0  __covrec_EA271E0329359325                           
0000db18  __covrec_E058F29488F4F97E                           
0000db40  __covrec_DC7AE572576373CA                           
0000db68  __covrec_110470EA4E630670                           
0000db90  __covrec_EF814479F03A43D5                           
0000dbb8  __covrec_EA8854337E9E7C30                           
0000dbe0  __covrec_1341E8EC7B05D348                           
0000dc08  __covrec_30B29D488904184C                           
0000dc30  __covrec_25A4B5D15264BBAB                           
0000dc58  __covrec_325D2F5D99314C74                           
0000dc80  __covrec_943451C9D8CE0662                           
0000dca8  __covrec_E2931BDA0029D665                           
0000dcd0  __covrec_C61023A3DC58D1B2                           
0000dcf8  __covrec_86340643F7607590                           
0000dd20  __covrec_6FF7E7D5165A2FF5                           
0000dd48  __covrec_2650CA825C881156                           
0000dd70  __covrec_120CDBEDF9A0A8FB                           
0000dd98  __covrec_C7F8E266118A60EF                           
0000ddc0  __covrec_557F0E0AA20FA293                           
0000dde8  __covrec_929D8AC9D8B44137                           
0000de10  __covrec_B509202E05024D6C                           
0000de38  __covrec_53242395682CDA28                           
0000de60  __covrec_20938AE362B3035                            
0000de88  __covrec_F407B61BFE124C6                            
0000deb0  __covrec_C50C61EEA3EF9068                           
0000ded8  __covrec_EDFD2025B89BCBE0                           
0000df00  __covrec_5F7EF9062611428D                           
0000df28  __covrec_75417E69DAE50DC3                           
0000df50  __covrec_A6B4C9F6FE0ADE9                            
0000df78  __covrec_57F4669B34129D61                           
0000dfa0  __covrec_520D3B7F0D75701B                           
0000dfc8  __covrec_CFD5FC3D680A447A                           
0000dff0  __covrec_38EAB6F0E107946F                           
0000e018  __covrec_91184F06CD2C09B8                           
0000e040  __covrec_8303F1BD18CA7E2                            
0000e068  __covrec_43B3809B98845D45                           
0000e090  __covrec_E358A0121F8D3E5D                           
0000e0b8  __covrec_BA937FB439C38EA                            
0000e0e0  __covrec_9BDB83D877172229                           
0000e108  __covrec_A58C8782C895B79F                           
0000e130  __covrec_E5D286313E048C40                           
0000e158  __covrec_D25B9F1D60A8EEC                            
0000e180  __covrec_DD62E50AD56793B7                           
0000e1a8  __covrec_EEEE76EF753B314C                           
0000e1d0  __covrec_FC985E002B21629B                           
0000e1f8  __covrec_5C8C5EDF38CBA048                           
0000e220  __covrec_771F41CEE9C459B3                           
0000e248  __covrec_ED641EB321AA653E                           
0000e270  __covrec_D69D3B2B6CDBDA26                           
0000e298  __covrec_7C95CDC63CCED9C7                           
0000e2c0  __covrec_6DECE7DF73AC4EA3                           
0000e2e8  __covrec_57ED4BD7DCE5205F                           
0000e310  __covrec_30C1C0142DDC3065                           
0000e338  __covrec_BF0526F43C4F2BD4                           
0000e360  __covrec_A85BF17043DA4D7B                           
0000e388  __covrec_7AEB782B80569839                           
0000e3b0  __covrec_215F044CC7672678                           
0000e3d8  __covrec_48436A6AA0909D8A                           
0000e400  __covrec_53BBB39562EA47FA                           
0000e428  __covrec_1C6519B00F9C4D5A                           
0000e450  __covrec_813EFD993AFF2BB7                           
0000e478  __covrec_6BC6E0CCC71075C9                           
0000e4a0  __covrec_93917DD3016E6C66                           
0000e4c8  __covrec_B368C86A040627F6                           
0000e4f0  __covrec_FAC69C2DCB043D49                           
0000e518  __covrec_BB6A1367069A2629                           
0000e540  __covrec_C2091612EE403313                           
0000e568  __covrec_4DE0902CEF077A51                           
0000e590  __covrec_3DC2345F50AE3C61                           
0000e5b8  __covrec_E65616AEE820A538                           
0000e5e0  __covrec_7BF97AA47FCE3C45                           
0000e608  __covrec_77D6A1E0981752A8                           
0000e630  __covrec_DAA5DD12438933C8                           
0000e658  __covrec_7C64F0B29D3CB7F6                           
0000e680  __covrec_2346BFE42F6F6558                           
0000e6a8  __covrec_1B69184597CDB5                             
0000e6d0  __covrec_4050672B6417F25                            
0000e6f8  __covrec_958BBF7AA03EB7A0                           
0000e720  __covrec_341A31158D840B4                            
0000e748  __covrec_B8E67EE6CD515CE3                           
0000e770  __covrec_1CEA2E328AA70A5B                           
0000e798  __covrec_11781F62243E51DE                           
0000e7c0  __covrec_9118E07B49802D66                           
0000e7e8  __covrec_A6BA3C4D92DF670C                           
0000e810  __covrec_4E936A1E4937C02E                           
0000e838  __covrec_5A28869C52158DDF                           
0000e860  __covrec_E19573573B1F644B                           
0000e888  __covrec_2A3036EF70882451                           
0000e8b0  __covrec_E4FCDA66FEC16F2E                           
0000e8d8  __covrec_1E71116FA83D460E                           
0000e900  __covrec_88AAE6497C627221                           
0000e928  __covrec_12229EF93006C0C6                           
0000e950  __covrec_DCF3219F7B130FAB                           
0000e978  __covrec_67FA65A34EB8AE6D                           
0000e9a0  __covrec_1F8F92C492321EC2                           
0000e9c8  __covrec_E0B66ACC49FD1050                           
0000e9f0  __covrec_17F963AB32CA4FE2                           
0000ea18  __covrec_2D86310FB40618D7                           
0000ea40  __covrec_19BCAF8D097C46DD                           
0000ea68  __covrec_D98EC82935938CB2                           
0000ea90  __covrec_F894C6D31849E39E                           
0000eab8  __covrec_D62549EAF19E41F9                           
0000eae0  __covrec_1F322E02CCAFCD19                           
0000eb08  __covrec_BD0745CD16C669CE                           
0000eb30  __covrec_AF655A66C0934649                           
0000eb58  __covrec_E369F0CB190CD9C1                           
0000eb80  __covrec_828BA11983CEF539                           
0000eba8  __covrec_9C56D3C95FB51600                           
0000ebd0  __covrec_F908321E8AA5874A                           
0000ebf8  __covrec_794E687C750D2B1E                           
0000ec20  __covrec_DBD7C44916D198B3                           
0000ec48  __covrec_E913BD7D98F4018A                           
0000ec70  __covrec_CD7D79E22D542124                           
0000ec98  __covrec_13B2AC272D44B342                           
0000ecc0  __covrec_6BA17DCFADDD8C2C                           
0000ece8  __covrec_ED5A028922C586FE                           
0000ed10  __covrec_D16BD70C7A919423                           
0000ed38  __covrec_60377C07FA1A383A                           
0000ed60  __covrec_4FDA9328639F3B51                           
0000ed88  __covrec_57A1D460024293C9                           
0000edb0  __covrec_3AD3BEBBF7BC593A                           
0000edd8  __covrec_80FE821732F5F2F5                           
0000ee00  __covrec_96E5FF034E57DECE                           
0000ee28  __covrec_B4DF6845378FFCB                            
0000ee50  __covrec_9C1583FB183F68E1                           
0000ee78  __covrec_2F88CF071FF75850                           
0000eea0  __covrec_A7444E32D70E0924                           
0000eec8  __covrec_2185F92B9C3E5BAF                           
0000eef0  __covrec_DDAFBAB80CDB34BC                           
0000ef18  __covrec_FADFE24B207C5E02                           
0000ef40  __covrec_2A33AEB69F56FB48                           
0000ef68  __covrec_E02A9872FDAA005A                           
0000ef90  __covrec_B17634A2D13532F8                           
0000efb8  __covrec_4F7091684DF0AC93                           
0000efe0  __covrec_32583FCAB5D1403E                           
0000f008  __covrec_AA038655C16600C1                           
0000f030  __covrec_12C0351F1D4A27D9                           
0000f058  __covrec_6BCBB6D2277E805F                           
0000f080  __covrec_DF24A48FFF25C87                            
0000f0a8  __covrec_AE55941D11F2D241                           
0000f0d0  __covrec_2779926C79411405                           
0000f0f8  __covrec_AB96553D2C199E4E                           
0000f120  __covrec_10C5D299B45023A7                           
0000f148  __covrec_1FB714EAEB0C2680                           
0000f170  __covrec_5B21C1A7A1ACB7EF                           
0000f198  __covrec_A991A84D3A11A700                           
0000f1c0  __covrec_539BCE9D24B3C01B                           
0000f1e8  __covrec_A81E66044A3EAE5D                           
0000f210  __covrec_8467CEA4CC190BD5                           
0000f238  __covrec_AB21666FC91B8577                           
0000f260  __covrec_C1BEE21E11912024                           
0000f288  __covrec_551237C83EEB791D                           
0000f2b0  __covrec_43072437AA45AA5                            
0000f2d8  __covrec_F9EC09D31E8C6514                           
0000f300  __covrec_E70DB66DFBE51AB0                           
0000f328  __covrec_B29A405F90BA9CFE                           
0000f350  __covrec_D7FECF3A90AEB0DB                           
0000f378  __covrec_ECF409E6E8936E63                           
0000f3a0  __covrec_639C819DF7D8F499                           
0000f3c8  __covrec_347C5946F375C19A                           
0000f3f0  __covrec_54096D3D1841465B                           
0000f418  __covrec_D075A0341881944                            
0000f440  __covrec_1D47A9FE18580AF8                           
0000f468  __covrec_CB3C59C97C42E3B4                           
0000f490  __covrec_2B9AC5C2B37A3405                           
0000f4b8  __covrec_2CCC94B071C61EE9                           
0000f4e0  __covrec_B970649D6E72BD0A                           
0000f508  __covrec_600C323FA3771342                           
0000f530  __covrec_8E398DB1B26C214E                           
0000f558  __covrec_D767CDD37517E387                           
0000f580  __covrec_33D3AA2E62E20E88                           
0000f5a8  __covrec_11EC53A6105E36FA                           
0000f5d0  __covrec_E0A89AEE12C4D715                           
0000f5f8  __covrec_4097419DD0362710                           
0000f620  __covrec_F1BBF2B9995D51E0                           
0000f648  __covrec_10FE96CA7F74C8D3                           
0000f670  __covrec_E031EFF7361EF491                           
0000f698  __covrec_59E6D7F6A0AC269E                           
0000f6c0  __covrec_553D47BC2A287267                           
0000f6e8  __covrec_ED34BD129CA432A3                           
0000f710  __covrec_AEC6767343826A66                           
0000f738  __covrec_E45EFAC1BDA20EA5                           
0000f760  __covrec_2D426BF12E84885D                           
0000f788  __covrec_428FD68580FEEB5E                           
0000f7b0  __covrec_4F5E6B4C74A005AB                           
0000f7d8  __covrec_F2BE587EB5826A47                           
0000f800  __covrec_9AC906CEA2EBFEE                            
0000f828  __covrec_D26EB161968A0779                           
0000f850  __covrec_A94AE4E8C2663F8                            
0000f878  __covrec_87DD226491B16B32                           
0000f8a0  __covrec_F48892829254C21                            
0000f8c8  __covrec_76F21A84664CB7FD                           
0000f8f0  __covrec_5A8082A56FA3FD2                            
0000f918  __covrec_123F45FD61E08121                           
0000f940  __covrec_8ECDFF7E9A533E7E                           
0000f968  __covrec_D019764425CF0EEB                           
0000f990  __covrec_7498C75F5C22A36E                           
0000f9b8  __covrec_3D3F43DBA8C21623                           
0000f9e0  __covrec_C9EC44FC86FE1516                           
0000fa08  __covrec_740B79B2BA53CB23                           
0000fa30  __covrec_284A9671018EDCF0                           
0000fa58  __covrec_9005E24FA24ACE37                           
0000fa80  __covrec_A64841128DF126F6                           
0000faa8  __covrec_E9ADB8A1A4D8516C                           
0000fad0  __covrec_5953D18C04591B18                           
0000faf8  __covrec_A5000CE3333A5D16                           
0000fb20  __covrec_D43C3AF3571C7C9C                           
0000fb48  __covrec_ECE1D85E07D8D3DA                           
0000fb70  __covrec_D4A3DE7D8D354365                           
0000fb98  __covrec_2DB82F50F5794C5                            
0000fbc0  __covrec_8103135527037AC2                           
0000fbe8  __covrec_80E789A36018789D                           
0000fc10  __covrec_C67256BCDE75C6F9                           
0000fc38  __covrec_3F610DF2673E5B69                           
0000fc60  __covrec_5699D94DD493658E                           
0000fc88  __covrec_884ACD7416367C8F                           
0000fcb0  __covrec_27FF9B63651F6939                           
0000fcd8  __covrec_71BA7274BDF77C25                           
0000fd00  __covrec_280AB4734E0EADD4                           
0000fd28  __covrec_731CC7973AAF501B                           
0000fd50  __covrec_DAF2BB1D75FECA31                           
0000fd78  __covrec_71BABAA98C456FDD                           
0000fda0  __covrec_3D8C418D848B7F99                           
0000fdc8  __covrec_3AF138D6801E8D4E                           
0000fdf0  __covrec_C19BC1DC4C5BC986                           
0000fe18  __covrec_F612575F31F8C40D                           
0000fe40  __covrec_5F7FA3C49E54DA77                           
0000fe68  __covrec_9D406A78C5BDE4DA                           
0000fe90  __covrec_A11593D5C9E68978                           
0000feb8  __covrec_EE9EACDEC17317F3                           
0000fee0  __covrec_3E229243C6DA21DE                           
0000ff08  __covrec_321BE6A6A3F0D5F2                           
0000ff30  __covrec_11DF4A44D85F4DF6                           
0000ff58  __covrec_C3D459CB3B1ABC27                           
0000ff80  __covrec_4FD8E8BD00701EF4                           
0000ffa8  __covrec_268EF44671D87F36                           
0000ffd0  __covrec_5D7741C831202454                           
0000fff8  __covrec_F34FDF5DD3F9B985                           
00010020  __covrec_EE2BE680317A35D9                           
00010048  __covrec_190629809904F076                           
00010070  __covrec_3F2E42F9D5543EE2                           
00010098  __covrec_FDCEBE0A76B9472                            
000100c0  __covrec_A95643ED5390910C                           
000100e8  __covrec_FC513C6DF3665B2E                           
00010110  __covrec_775E3C10B70E0995                           
00010138  __covrec_19A1896E038C7DD5                           
00010160  __covrec_A8B43A7C0E106A51                           
00010188  __covrec_BD8B9752508FBCDF                           
000101b0  __covrec_F98C74400953ABBA                           
000101d8  __covrec_D5B0A17C783C48D3                           
00010200  __covrec_D8DE6380B54FBDC0                           
00010228  __covrec_6E6F17F4D1864EA5                           
00010250  __covrec_2FF0C44A136F8E86                           
00010278  __covrec_EE3AABE13ED16EB                            
000102a0  __covrec_D03A0F7AAAD46AE1                           
000102c8  __covrec_F55D92BC40D2B6DC                           
000102f0  __covrec_17C744CC31D4D421                           
00010318  __covrec_7B0C5B6F9443C775                           
00010340  __covrec_91713B9B0102F5B                            
00010368  __covrec_7C2D7C8CB1A12C94                           
00010390  __covrec_8EEC972D70DC941F                           
000103b8  __covrec_2E6DD8667D2D7FF9                           
000103e0  __covrec_554AF6DE18854551                           
00010408  __covrec_30C9E50E62B697AF                           
00010430  __covrec_84476516E142F135                           
00010458  __covrec_FAC760843A24028E                           
00010480  __covrec_320DCC9EF3DE330A                           
000104a8  __covrec_E5D7A6038D672104                           
000104d0  __covrec_860D74F59FAA87CE                           
000104f8  __covrec_8D7B6850A2C89ABD                           
00010520  __covrec_6EB70948192748F9                           
00010548  __covrec_F5B2DE8329534D6                            
00010570  __covrec_9B90FF29076C5B56                           
00010598  __covrec_FAC9E94050BCF02F                           
000105c0  __covrec_FDFFF66EBD575475                           
000105e8  __covrec_E330A94A75B24172                           
00010610  __covrec_F63CC997F464336B                           
00010638  __covrec_D925A9740D6AC1A8                           
00010660  __covrec_D8898B8A3E5E4244                           
00010688  __covrec_D865ECAC9B4355E0                           
000106b0  __covrec_57548AABD9C2B31                            
000106d8  __covrec_DBA27023D731BEB8                           
00010700  __covrec_20FA208D99FB8250                           
00010728  __covrec_303EAEA524B4D6F4                           
00010750  __covrec_F506E90654BD1443                           
00010778  __covrec_27B8CECD2051FC44                           
000107a0  __covrec_D8F5B088CF2ABB39                           
000107c8  __covrec_114DF3CD24AB0DD6                           
000107f0  __covrec_DE97B367B2D1A843                           
00010818  __covrec_F4394A696CE2AB0B                           
00010840  __covrec_B2E47C30CCCB9591                           
00010868  __covrec_2D38881098A5E25F                           
00010890  __covrec_3D7FC52C2CB52C85                           
000108b8  __covrec_790A4CAE172E213E                           
000108e0  __covrec_C368329C56F35F07                           
00010908  __covrec_A824AA5FC56684E7                           
00010930  __covrec_83FEEA866112B28D                           
00010958  __covrec_85A23F6F9B907604                           
00010980  __covrec_A9503DC700D430D4                           
000109a8  __covrec_473CBFDE1859342C                           
000109d0  __covrec_6ACBA188EAA32EDB                           
000109f8  __covrec_2FF3E63A4BF6DB3                            
00010a20  __covrec_DC7A468BB8C79527                           
00010a48  __covrec_6C73DF94626DCD32                           
00010a70  __covrec_A6508225C645E1B8                           
00010a98  __covrec_A589256C3B2C80F4                           
00010ac0  __covrec_9026C1D51F698BAD                           
00010ae8  __covrec_8B83ACB8CA6AC34F                           
00010b10  __covrec_16A2F9143DB29852                           
00010b38  __covrec_C376972B34ADD085                           
00010b60  __covrec_6F0067B485E6C90A                           
00010b88  __covrec_C589582EF4DABB3B                           
00010bb0  __covrec_6222031EF1F0A122                           
00010bd8  __covrec_895AA7F08564DDEB                           
00010c00  __covrec_A48C06D9E192918                            
00010c28  __covrec_8FCEA764F7EA338D                           
00010c50  __covrec_9EC25EF3E1007841                           
00010c78  __covrec_BB7635914E90573                            
00010ca0  __covrec_6E855AFDE7A3DA25                           
00010cc8  __covrec_A6241685FE9D9181                           
00010cf0  __covrec_A47374CF4F2339F7                           
00010d18  __covrec_D4A788668F57F696                           
00010d40  __covrec_3A89560A09F90F6F                           
00010d68  __covrec_C16DA453696857CF                           
00010d90  __covrec_9613FC895708B7AE                           
00010db8  __covrec_2F3D45E1FE7BC132                           
00010de0  __covrec_9EBF38881E08EA58                           
00010e08  __covrec_E7D772880708A0C7                           
00010e30  __covrec_62EBE4627AED5F3D                           
00010e58  __covrec_A19510AE8044DCAB                           
00010e80  __covrec_6B6BEAE6621EC5D                            
00010ea8  __covrec_AEA997239452629A                           
00010ed0  __covrec_20D1F53B41F4F4F                            
00010ef8  __covrec_92437C497FF04B42                           
00010f20  __covrec_4AC01A0EFD1DFC6D                           
00010f48  __covrec_E112EBF7420C35B                            
00010f70  __covrec_11CCE926D1DAC2F9                           
00010f98  __covrec_FC0602A2C2AAA433                           
00010fc0  __covrec_4C29EC2D90811FE1                           
00010fe8  __covrec_396D1CA2D3AE48B9                           
00011010  __covrec_64B28E94CA62B999                           
00011038  __covrec_EB798AD32698F4F5                           
00011060  __covrec_B9B8B899A8C44CE8                           
00011088  __covrec_CC30F0C9D318825F                           
000110b0  __covrec_5FA8AD4D733E2A9                            
000110d8  __covrec_4CF68FD5C04600C8                           
00011100  __covrec_CC9CA19683CB7130                           
00011128  __covrec_952741BFEA8C02E1                           
00011150  __covrec_EBACB1818E85EC77                           
00011178  __covrec_CF10453952EE1176                           
000111a0  __covrec_C8701138D17301A7                           
000111c8  __covrec_4DA04D9995FAB0B4                           
000111f0  __covrec_4AE30FB410F4CFFA                           
00011218  __covrec_859A01F84CAE0E35                           
00011240  __covrec_A1F19C8C7CF9F2B7                           
00011268  __covrec_618A88735E1FD211                           
00011290  __covrec_76ECE4DA26F57C0B                           
000112b8  __covrec_2BFF562126C37FA8                           
000112e0  __covrec_200F03983A93B724                           
00011308  __covrec_68BBE23B4D3C0753                           
00011330  __covrec_C253A7B1B5DA7E3B                           
00011358  __covrec_9186AC0445C96962                           
00011380  __covrec_1EF06040FF9A6CE1                           
000113a8  __covrec_9BBA3968226CFBF6                           
000113d0  __covrec_438E6DA8340BF71D                           
000113f8  __covrec_A9A84BFD92185E0E                           
00011420  __covrec_4CB49906D4D8BD4F                           
00011448  __covrec_3653258C81805C5                            
00011470  __covrec_38CC7946FA93B6D9                           
00011498  __covrec_F3352E0AB30A5129                           
000114c0  __covrec_738AC0DBB08CF207                           
000114e8  __covrec_4EA73EDE03EA7AC9                           
00011510  __covrec_47239A68BB7AFCFF                           
00011538  __covrec_7684028E24EED307                           
00011560  __covrec_506705E9BCFFD96C                           
00011588  __covrec_38EFC8F3EFCE9709                           
000115b0  __covrec_A3AA4905E9A381E9                           
000115d8  __covrec_14D3A38ADC7E8368                           
00011600  __covrec_95EB6B6F60E47795                           
00011628  __covrec_773C6A25D12759BB                           
00011650  __covrec_825DFF6F1DC9CF00                           
00011678  __covrec_520CF33A215ABA3A                           
000116a0  __covrec_D23B7FE05552404F                           
000116c8  __covrec_BAC9BBCDA7243C66                           
000116f0  __covrec_C86F9250B7FEA6A0                           
00011718  __covrec_99CC28B6F6090FE6                           
00011740  __covrec_6911B6175FAF2F55                           
00011768  __covrec_9F4D0BDA4B7FC1F5                           
00011790  __covrec_1BB36A6A6DA4D17A                           
000117b8  __covrec_FC67E4F6E0C9BBDD                           
000117e0  __covrec_A07AC7DE06C6C393                           
00011808  __covrec_73C1F87D91773F33                           
00011830  __covrec_25831A646804D08                            
00011858  __covrec_58C1726F79092C49                           
00011880  __covrec_EC34D75B68394D6B                           
000118a8  __covrec_218A031C18D395B                            
000118d0  __covrec_7326BDC20F8512B4                           
000118f8  __covrec_CF8BCD91D43F0DF2                           
00011920  __covrec_C65C01CDF0901BA                            
00011948  __covrec_95345A2A021AE11A                           
00011970  __covrec_46EC7C9FF469415B                           
00011998  __covrec_39F23DDB23057AEB                           
000119c0  __covrec_C63C769C25F6A34F                           
000119e8  __covrec_9C028263D8227ADA                           
00011a10  __covrec_8BF9FCABA2E59FF2                           
00011a38  __covrec_C1C9672ACDD3C601                           
00011a60  __covrec_C5F6D5709484F7BD                           
00011a88  __covrec_C85F58435E621E6A                           
00011ab0  __covrec_8F447BE16C6CCA56                           
00011ad8  __covrec_30AE2001FCB36A5D                           
00011b00  __covrec_E55EDD8EC85963FA                           
00011b28  __covrec_51C02D29A061CFB8                           
00011b50  __covrec_8EA3766D98DFC6C2                           
00011b78  __covrec_97011F7D1E71EEF9                           
00011ba0  __covrec_7327204B5F967E6C                           
00011bc8  __covrec_5953CC495B7BFA2A                           
00011bf0  __covrec_D0F0BDAAFF25BA39                           
00011c18  __covrec_B786A3B30CA671B6                           
00011c40  __covrec_987C9FC2A4EC202F                           
00011c68  __covrec_A890097CFCCDAFC                            
00011c90  __covrec_98E02C24F4D059BB                           
00011cb8  __covrec_3141F1B3A1E2AE47                           
00011ce0  __covrec_E139A7BDEC263B35                           
00011d08  __covrec_2A70D24F190F6A5                            
00011d30  __covrec_CA03547188A2C242                           
00011d58  __covrec_9487C4761757EA20                           
00011d80  __covrec_6F2C280713D8795D                           
00011da8  __covrec_F1D0B4532F8CD4B4                           
00011dd0  __covrec_47076422E3EBB4B7                           
00011df8  __covrec_481BA3D35A4756EB                           
00011e20  __covrec_242B3053019705CC                           
00011e48  __covrec_4278A4CC7EA2B48F                           
00011e70  __covrec_131A8C62578FD3BF                           
00011e98  __covrec_1DFF9AD33F426A1E                           
00011ec0  __covrec_B563AD26DE980C96                           
00011ee8  __covrec_382B3DA03E10E0C7                           
00011f10  __covrec_8B37F97D8FF91917                           
00011f38  __covrec_E3B525079BA3291E                           
00011f60  __covrec_7B0FE06070DA9E1C                           
00011f88  __covrec_E8AD1C60B13ACF82                           
00011fb0  __covrec_80D5D6996CBC34A4                           
00011fd8  __covrec_F00DBF0BE0A4A4F7                           
00012000  __covrec_F076EC6ED344455F                           
00012028  __covrec_B049EFDAFA284D00                           
00012050  __covrec_31AD16A8EFB4319B                           
00012078  __covrec_3F76C64CAB73FA3F                           
000120a0  __covrec_DDA9CE7874CA2A9F                           
000120c8  __covrec_23B908501499F1C3                           
000120f0  __covrec_96A587A1F1B5FD8                            
00012118  __covrec_B4DCD35C6A88ED95                           
00012140  __covrec_68DF83EC3014848D                           
00012168  __covrec_FE984C7C4D90B9DF                           
00012190  __covrec_4E11EEECEF74531C                           
000121b8  __covrec_C6749AB042BB0941                           
000121e0  __covrec_A56DAC32A420E351                           
00012208  __covrec_F205BCA8A36D38D                            
00012230  __covrec_53E28DA262170E83                           
00012258  __covrec_C2D0EE486940342B                           
00012280  __covrec_405ABECFF4706CA7                           
000122a8  __covrec_4A2FA4057479893B                           
000122d0  __covrec_F1E6AF932789DF6F                           
000122f8  __covrec_F483DBD11B30011                            
00012320  __covrec_9F5205C349AEDB9F                           
00012348  __covrec_F5DECA8EA830D5C6                           
00012370  __covrec_EC0DA8AF4DB37BD3                           
00012398  __covrec_148D9A2319AC213B                           
000123c0  __covrec_E2426283E8A4D1                             
000123e8  __covrec_31B2CAED7F56A7D9                           
00012410  __covrec_833F0BC397767F2D                           
00012438  __covrec_A24043C8FC32E916                           
00012460  __covrec_D1F2CD3CBDC20C1C                           
00012488  __covrec_4B104A81B3C2F86A                           
000124b0  __covrec_BDA527D5B3100B7A                           
000124d8  __covrec_5281E5C04AE2CD59                           
00012500  __covrec_454FB1DFD974CCE6                           
00012528  __covrec_DD1C1D5652F6C108                           
00012550  __covrec_EE3B624BA76DF02u                           
00012580  __covrec_8A9FB042CC4F2B10u                          
000125c0  __covrec_347F5236CD6A8821u                          
00012650  __covrec_C7CF69551785A508u                          
00012688  __covrec_4E1A7F59973ACCB2u                          
000126d8  __covrec_BEEFAD7D9530066Eu                          
00012718  __covrec_57CDA72D04A5E694u                          
00012750  __covrec_DD2DAE6733804F42u                          
00012778  __covrec_6497BFE2A00B8653u                          
000127a0  __covrec_52DA6B89AFD9BEEFu                          
000127c8  __covrec_D7DFE1844D8B0F8Cu                          
00012800  __covrec_B44C2FD68F1F000Au                          
00012830  __covrec_9A4402462CFB25DF                           
00012858  __covrec_46BEBFAC6345CB29                           
00012880  __covrec_FF2F71DB13F48ED9                           
000128a8  __covrec_A817DEA7EA22BFD4                           
000128d0  __covrec_D7C7FD587CF7F27E                           
000128f8  __covrec_64798FC843A57EC4                           
00012920  __covrec_FF3F3C37D1ECEF0E                           
00012948  __covrec_365DCC393F100621                           
00012970  __covrec_C0751327896BCD4C                           
00012998  __covrec_4378EEF47529ACB7                           
000129c0  __covrec_4442015EC0C5EEBB                           
000129e8  __covrec_9672CC8BFCA5E55F                           
00012a10  __covrec_107802700ECD7C02                           
00012a38  __covrec_166C82B5B146B5D7                           
00012a60  __covrec_8833BE5CC8D8CD39                           
00012a88  __covrec_E570407CEC6CB7F0                           
00012ab0  __covrec_AE0BED86C6A7FF8E                           
00012ad8  __covrec_547CF9FBFA8DAB2                            
00012b00  __covrec_C9152F537137F215                           
00012b28  __covrec_78A6620B2B654D40                           
00012b50  __covrec_D68C7935EACE4A97                           
00012b78  __covrec_54BFE4BB339D82FA                           
00012ba0  __covrec_754324FB8D9A7A07                           
00012bc8  __covrec_3FD1311A037EBF95                           
00012bf0  __covrec_31B0598EDF1F8AA0                           
00012c18  __covrec_A04768BF98A46F04                           
00012c40  __covrec_2ADD8BD0BF6DAA7F                           
00012c68  __covrec_7E833D27BC76F69                            
00012c90  __covrec_1313DC5687DCCBE4                           
00012cb8  __covrec_A1138DE5EAE933DC                           
00012ce0  __covrec_75F1BF7FBDDFEB47                           
00012d08  __covrec_F6DE419292C4B531                           
00012d30  __covrec_6041B4936B66AE76                           
00012d58  __covrec_38A0CEE2744B092C                           
00012d80  __covrec_98A9B8719202C524                           
00012da8  __covrec_724B69EBC536E402                           
00012dd0  __covrec_8BB0E9BD6752B68F                           
00012df8  __covrec_D5B4CC8656A701E4                           
00012e20  __covrec_260485F951D8CFA2                           
00012e48  __covrec_831E1A4E4267625                            
00012e70  __covrec_8A64EB646297B7C9                           
00012e98  __covrec_4C80DA44FB3A96A9                           
00012ec0  __covrec_C637502431AE366C                           
00012ee8  __covrec_F87F2A62EAC8F4FB                           
00012f10  __covrec_DEECC6CD28815579                           
00012f38  __covrec_6772213A314354D1                           
00012f60  __covrec_5DF05A020DDAC415                           
00012f88  __covrec_8CC88C2980D5E8E7                           
00012fb0  __covrec_688EB108228CD2D5                           
00012fd8  __covrec_FB54D5102C521951                           
00013000  __covrec_B27A7CC7DFBAAB69                           
00013028  __covrec_2B9ED78528214928                           
00013050  __covrec_7A9D5D7B9AB5F84B                           
00013078  __covrec_F9850F6D40ADE08F                           
000130a0  __covrec_76904C01277EB08D                           
000130c8  __covrec_2429638F3104CEC6                           
000130f0  __covrec_FDD8526D2A93F33C                           
00013118  __covrec_9371DF3BA7A24845                           
00013140  __covrec_4A7ED0D2F2AEA5EE                           
00013168  __covrec_10D83D798DF85215                           
00013190  __covrec_E7E547A68226B4AD                           
000131b8  __covrec_22D092EAE16D02EF                           
000131e0  __covrec_3A26CCF0B62A8E89                           
00013208  __covrec_927B310F26D3C792                           
00013230  __covrec_5F8A9EEA556599FE                           
00013258  __covrec_B9537AAE86C9A6BD                           
00013280  __covrec_24D80F5FFDB3B16                            
000132a8  __covrec_C72CDDA90EDC4BAD                           
000132d0  __covrec_153C71C9353F6537                           
000132f8  __covrec_C165DBE4DFA429BB                           
00013320  __covrec_3C4C09DA7A2DAAD2                           
00013348  __covrec_F4D430A9AC32DC03                           
00013370  __covrec_6286C85827C38416                           
00013398  __covrec_172B59B25D72358A                           
000133c0  __covrec_B7020FE632FE5CBA                           
000133e8  __covrec_AC85984330425F4                            
00013410  __covrec_93B792D30284781D                           
00013438  __covrec_17F9955224B25587                           
00013460  __covrec_36AB183A395E4CAF                           
00013488  __covrec_D682D97A67E8CF22                           
000134b0  __covrec_1BC9AF92F5A17ABA                           
000134d8  __covrec_96B898C1AEF5ABFE                           
00013500  __covrec_7F5390900BC1E039                           
00013528  __covrec_76E4256734D158F0                           
00013550  __covrec_D41E15BD3C137045                           
00013578  __covrec_D4A58762ABE74B26                           
000135a0  __covrec_536847D883D87D6E                           
000135c8  __covrec_D2FBD09CF9175ADA                           
000135f0  __covrec_5C3E23360D9CC29D                           
00013618  __covrec_392FECAD18A74184                           
00013640  __covrec_EA38372D951F349C                           
00013668  __covrec_FEC5D3DE69CA8E17                           
00013690  __covrec_174915AB4E2EDF5C                           
000136b8  __covrec_39C130C9E557E548                           
000136e0  __covrec_8B65E50AD9B90CB2                           
00013708  __covrec_51BBACEB942ABDE0                           
00013730  __covrec_3325AABB0D89DD6E                           
00013758  __covrec_E8917193E5FEF053                           
00013780  __covrec_31B1F8CB4704B234                           
000137a8  __covrec_CD2ABFA5EBEDE95E                           
000137d0  __covrec_945B320FDD26C251                           
000137f8  __covrec_DC3FCB1CD0B907FA                           
00013820  __covrec_843E4D1E9BF6B555                           
00013848  __covrec_E6B1F129216596D                            
00013870  __covrec_E1A6791F0E05F114                           
00013898  __covrec_BC45A73D645FD3FC                           
000138c0  __covrec_7B0D1997C0B96950                           
000138e8  __covrec_4EC6A12FB13E3388                           
00013910  __covrec_F0BB4BC77CD8C0EB                           
00013938  __covrec_4600AE4381D2A14B                           
00013960  __covrec_ECF55B1F21E4B275                           
00013988  __covrec_B11B2EE5DD5BF989                           
000139b0  __covrec_9CE83C69FDCAB33F                           
000139d8  __covrec_8D041F01DCFF76E9                           
00013a00  __covrec_6BD34685A631A1D6                           
00013a28  __covrec_8C68376B81A654D                            
00013a50  __covrec_6C6F66E03D089E18                           
00013a78  __covrec_DB095F1DF7361C4                            
00013aa0  __covrec_17E07C5FF5F82422                           
00013ac8  __covrec_5C2CCE1E95C8ED88                           
00013af0  __covrec_68D7D6BD174BD691                           
00013b18  __covrec_1A3FA77D293B3485                           
00013b40  __covrec_6984BC0E4025AAAD                           
00013b68  __covrec_B9B5FC828B38D38D                           
00013b90  __covrec_3DC72BA4C9ECB1F9                           
00013bb8  __covrec_F65571CE4E3F88C                            
00013be0  __covrec_CC106C1DC2E570F1                           
00013c08  __covrec_A35E9CF26F2BDBBC                           
00013c30  __covrec_2A8B557658325237                           
00013c58  __covrec_338D56CED01B062B                           
00013c80  __covrec_9FD05553BDBB26A0                           
00013ca8  __covrec_45D841902927495C                           
00013cd0  __covrec_2D13BBFC3A449323                           
00013cf8  __covrec_D601B461E1A36E5E                           
00013d20  __covrec_753F40F7B964E92B                           
00013d48  __covrec_D94C1F618B4FD7E8                           
00013d70  __covrec_A582FD26365EDEB5                           
00013d98  __covrec_DF2ACD149E3EC26B                           
00013dc0  __covrec_BD0209660F1F417F                           
00013de8  __covrec_7A071E65D3316B74                           
00013e10  __covrec_9BED06F3F05054A7                           
00013e38  __covrec_97FE914C95D2847E                           
00013e60  __covrec_6A0D657EAAFA6D83                           
00013e88  __covrec_B99C443DB87550BB                           
00013eb0  __covrec_FBE2FAF21937296B                           
00013ed8  __covrec_826D827693E26F8E                           
00013f00  __covrec_982A03B6F4015226                           
00013f28  __covrec_1CC14C8A376E03E3                           
00013f50  __covrec_33562C81DF7B10BF                           
00013f78  __covrec_6BF83EE06BDBD2E2                           
00013fa0  __covrec_2A5F24567CA81B28                           
00013fc8  __covrec_E0EAD5EDA1401596                           
00013ff0  __covrec_AD57993B2D1B4ADD                           
00014018  __covrec_AFA442495C6D179E                           
00014040  __covrec_CC76C5EF96D89539                           
00014068  __covrec_F17DC41AD5655B1D                           
00014090  __covrec_C17BEFE86E29456D                           
000140b8  __covrec_E2F64C6B079FF5AB                           
000140e0  __covrec_A60CE06FA61792A8                           
00014108  __covrec_245CEEBD24015B1F                           
00014130  __covrec_16F02D052FF565BE                           
00014158  __covrec_5EF187E37416A4F9                           
00014180  __covrec_8B1AB1F5C66D6D39                           
000141a8  __covrec_AEF580CD966715F9                           
000141d0  __covrec_8ADC157C3BA0D74                            
000141f8  __covrec_E748C901CEE0C64                            
00014220  __covrec_36CAFF9A6A4269C6                           
00014248  __covrec_C66DD2C07ECA2C23                           
00014270  __covrec_A94C22CB595C43D7                           
00014298  __covrec_2356CFAA058BDA63                           
000142c0  __covrec_ACC0C4F85F9EECDE                           
000142e8  __covrec_FF79AF72E78DEE41                           
00014310  __covrec_C4A3B254D2D9F398                           
00014338  __covrec_51DD21FD505FE478                           
00014360  __covrec_3C422C657214FCF6                           
00014388  __covrec_E87D88B23CD18670                           
000143b0  __covrec_82D68F70652044A4                           
000143d8  __covrec_904ACE8D0D9342BF                           
00014400  __covrec_67DA54DDFC65307F                           
00014428  __covrec_8EF895267F5CDD60                           
00014450  __covrec_2D61228427B0BF14                           
00014478  __covrec_AD7F2294BFBEBDD6                           
000144a0  __covrec_C8956EA37A365FE5                           
000144c8  __covrec_5A3EEBA233C7FD36                           
000144f0  __covrec_5EEB11B587254FC6                           
00014518  __covrec_9D61967B1604A9FF                           
00014540  __covrec_759DA5659B0848DA                           
00014568  __covrec_51932377A8B429F2                           
00014590  __covrec_B4C2F0FEBCAF2F60                           
000145b8  __covrec_A23437AA47C4156F                           
000145e0  __covrec_DE76C20852CC2132                           
00014608  __covrec_614A14DB5C7FA19C                           
00014630  __covrec_5F54C48325B5A57F                           
00014658  __covrec_87C9BEA1359FC9A0                           
00014680  __covrec_99723926C2A9DDD1                           
000146a8  __covrec_2662EFE42B16DEE1                           
000146d0  __covrec_B24530735833F91C                           
000146f8  __covrec_C36BC5DC6B7BAC00                           
00014720  __covrec_AB53902A6CB08F7A                           
00014748  __covrec_9684DC37DE1EE5D0                           
00014770  __covrec_6FA5483804028977                           
00014798  __covrec_37752C52AA74DBFE                           
000147c0  __covrec_3B3A4AD98C182DE4                           
000147e8  __covrec_9F301B3FF3F09194                           
00014810  __covrec_D15FC9E9035023E4                           
00014838  __covrec_32F0D770382D1DA9                           
00014860  __covrec_333383517C1FF008                           
00014888  __covrec_C820D13AAADDFBF9                           
000148b0  __covrec_81193C19F1226052                           
000148d8  __covrec_F623BD0F22F6A4D                            
00014900  __covrec_CBFAAF6E85E67C2A                           
00014928  __covrec_3D0A3FF0C21D6472                           
00014950  __covrec_B1FB48C95F950150                           
00014978  __covrec_755B8BFE980A79C2                           
000149a0  __covrec_AD930365B8D74045                           
000149c8  __covrec_8546DDDFA9C4DAA6                           
000149f0  __covrec_74BCAFA8ECADE0A0                           
00014a18  __covrec_5F2C4E1FA0B9AA98                           
00014a40  __covrec_4BCFC91C4159B7BB                           
00014a68  __covrec_6BDA03C7088A51E1                           
00014a90  __covrec_8EE48BF767F05E71                           
00014ab8  __covrec_CBD9B5558060A720                           
00014ae0  __covrec_BEA364F8E4F6612A                           
00014b08  __covrec_24C869B71C1745EC                           
00014b30  __covrec_EEAE4C8C4CDDB260                           
00014b58  __covrec_F5BC47E50C3570B4                           
00014b80  __covrec_83FC5939804F48BE                           
00014ba8  __covrec_674309A670714414                           
00014bd0  __covrec_3A479AE32438F206                           
00014bf8  __covrec_511C8E60BD52A8FB                           
00014c20  __covrec_302F2AC2878AEE63                           
00014c48  __covrec_D55622F88F5226B7                           
00014c70  __covrec_449CAC6A58F3AD72                           
00014c98  __covrec_3EA0432BC3C9FA6C                           
00014cc0  __covrec_DFB5D1D33A87B86B                           
00014ce8  __covrec_4351608A646C6B0                            
00014d10  __covrec_51714BA3B36DEA32                           
00014d38  __covrec_B5B67982233FDBC                            
00014d60  __covrec_6DDBBF9D5036FD29                           
00014d88  __covrec_32E8DB488C68B78D                           
00014db0  __covrec_EC974998F0B94BAA                           
00014dd8  __covrec_FFA9859ECBCE5FF5                           
00014e00  __covrec_C19614860C5B3309                           
00014e28  __covrec_B3D5A60E04922FE                            
00014e50  __covrec_4665283335DF6F97                           
00014e78  __covrec_7462DC7A71D86840                           
00014ea0  __covrec_86BE7AAE5C9A1D91                           
00014ec8  __covrec_1AE60D0DA8D77CF0                           
00014ef0  __covrec_E076DE5CF10EA0F6                           
00014f18  __covrec_FBFF4A8CB46E08B0                           
00014f40  __covrec_7BB562F45E0D5B23                           
00014f68  __covrec_358682B259B0A962                           
00014f90  __covrec_73DD9FCB2CCA7C8E                           
00014fb8  __covrec_DED677DADB7BB886                           
00014fe0  __covrec_259FE72B02F982E3                           
00015008  __covrec_59FF2B4C942CC8BA                           
00015030  __covrec_3E5598E6C0B42553                           
00015058  __covrec_934A4CFD323FFCEA                           
00015080  __covrec_BE6EA14CE4CA1756                           
000150a8  __covrec_DC612321FB754968                           
000150d0  __covrec_2F298529E754A752                           
000150f8  __covrec_2DD25A1E0605CEF0                           
00015120  __covrec_80DCCF459AA832D6                           
00015148  __covrec_6EFB6DE4C2F58B43                           
00015170  __covrec_62C0A1F549FDA73                            
00015198  __covrec_CA08C308926F86A5                           
000151c0  __covrec_75AAF50C859E50CC                           
000151e8  __covrec_AB18DF03A4278F7C                           
00015210  __covrec_F0078734676383D6                           
00015238  __covrec_133E6E5754396960                           
00015260  __covrec_619272C7739451E2                           
00015288  __covrec_36371372719FAE20                           
000152b0  __covrec_F9448A84AD8185BA                           
000152d8  __covrec_68D88CCC12AD2A3F                           
00015300  __covrec_AA551E34D18F74A4                           
00015328  __covrec_831A63E7C251114F                           
00015350  __covrec_AFCA5308CBE5226                            
00015378  __covrec_C6E5A9332171B0BC                           
000153a0  __covrec_889A5AA5ACC834CB                           
000153c8  __covrec_823F1D2457AF8D4E                           
000153f0  __covrec_34D87877B62187C0                           
00015418  __covrec_BF2D601022292D70                           
00015440  __covrec_B6093B1DCE09925C                           
00015468  __covrec_2B9D588B68FFC9FD                           
00015490  __covrec_1F4169E57C49DBAC                           
000154b8  __covrec_6C58C8CB7A51E29B                           
000154e0  __covrec_583D9624CEFEF063                           
00015508  __covrec_AA6FBA67DEF67586                           
00015530  __covrec_7B4F680C24B702F2                           
00015558  __covrec_D996028D5A69C6F2                           
00015580  __covrec_60463F3D453FCBCE                           
000155a8  __covrec_AF5F32085D968C75                           
000155d0  __covrec_5E1546171B50C0C5                           
000155f8  __covrec_5AA5C0ECFAA2F10                            
00015620  __covrec_280C086A8D3E033A                           
00015648  __covrec_5749A9E4CCC687D1                           
00015670  __covrec_62A98C93F42CDCD3                           
00015698  __covrec_3B9AD5E448524FFF                           
000156c0  __covrec_B30841581A67FF30                           
000156e8  __covrec_DD7190B3978EBC39                           
00015710  __covrec_73B1F7479AB6411A                           
00015738  __covrec_FE88999DF0EAFFD6                           
00015760  __covrec_5959C51EAFB0B0AB                           
00015788  __covrec_E85969F560DDD631                           
000157b0  __covrec_BE863C686EAC33EF                           
000157d8  __covrec_C14829C5FDA5D6EA                           
00015800  __covrec_650B600441780F70                           
00015828  __covrec_3A36369733F8D5B6                           
00015850  __covrec_3CC05BCBB89EC8C0                           
00015878  __covrec_78AD70B3007626BA                           
000158a0  __covrec_58173AEB70F92F68                           
000158c8  __covrec_ACDEA53952D33B4F                           
000158f0  __covrec_E08A7D27AEA0B6C4                           
00015918  __covrec_D85940657E5DE4DF                           
00015940  __covrec_E67E7DC7B1601F23                           
00015968  __covrec_36CEC9582B8D65CF                           
00015990  __covrec_CBF2E73A32284FE9                           
000159b8  __covrec_A129DDC39A66AF54                           
000159e0  __covrec_5C20B4D769B6D32F                           
00015a08  __covrec_9637A9217038C34B                           
00015a30  __covrec_BDE4D2739B89D2E9                           
00015a58  __covrec_6471B342D16BEEB2                           
00015a80  __covrec_97A00561A864863A                           
00015aa8  __covrec_F65C7AC0F7EB18B5                           
00015ad0  __covrec_CE63BEA95B1AAA26                           
00015af8  __covrec_64CC73B6A273C4C6                           
00015b20  __covrec_9BB5C9E7D8F22F76                           
00015b48  __covrec_B52663DA78115B23                           
00015b70  __covrec_65CF7FB8BFC9DCA0                           
00015b98  __covrec_4B1752517A897C5                            
00015bc0  __covrec_D9D1CA770677649C                           
00015be8  __covrec_DA73F3FA2202180A                           
00015c10  __covrec_433BCD6A7AE9A476                           
00015c38  __covrec_E701EA8D7F416EB9                           
00015c60  __covrec_5333A61D2C451B71                           
00015c88  __covrec_910A6D471848A06A                           
00015cb0  __covrec_AA7C108880CD93D6                           
00015cd8  __covrec_93AB60BEB75C916D                           
00015d00  __covrec_A0DAA40F9ED6261A                           
00015d28  __covrec_657DCEB9CBC9A15                            
00015d50  __covrec_23A2723218FB953F                           
00015d78  __covrec_3BB04CDDF195DCC8                           
00015da0  __covrec_37BBD65DD58D473                            
00015dc8  __covrec_75F48255A7DB16EE                           
00015df0  __covrec_50443E9660573DAD                           
00015e18  __covrec_E960579F8AE392F0                           
00015e40  __covrec_B98076446EF295FD                           
00015e68  __covrec_CF07008B357FC16E                           
00015e90  __covrec_94E6AF6193706E7F                           
00015eb8  __covrec_BA9D085EEB283A31                           
00015ee0  __covrec_A1ADEE0AAE7AB6EF                           
00015f08  __covrec_887A079051E440D0                           
00015f30  __covrec_4F2301F1873D147E                           
00015f58  __covrec_F3F4BEC6FC4C603                            
00015f80  __covrec_8A1E5EF64B22B12B                           
00015fa8  __covrec_D0FDD256AE50233D                           
00015fd0  __covrec_4FE47ABC0D76B93E                           
00015ff8  __covrec_D9DF300B9FB82770                           
00016020  __covrec_EBD4B15D669FF5C6                           
00016048  __covrec_7092067BD5916200                           
00016070  __covrec_87E2C683173C05DA                           
00016098  __covrec_FAB52BFBB5CA2B3                            
000160c0  __covrec_B065FF55E74FCCD1                           
000160e8  __covrec_3BEB96B4128A074A                           
00016110  __covrec_E4B0626E416B19B5                           
00016138  __covrec_49838A933E918F6A                           
00016160  __covrec_735D7B941E383EA1                           
00016188  __covrec_DC44040CD5577CAF                           
000161b0  __covrec_4125B57286A5529                            
000161d8  __covrec_E98E4523C76567FC                           
00016200  __covrec_5284D5E45F2661CB                           
00016228  __covrec_3660EF20DA7A07C2                           
00016250  __covrec_A423D128DFA778BC                           
00016278  __covrec_25B72A3D7BD5840F                           
000162a0  __covrec_3A1D4C8225602426                           
000162c8  __covrec_4F98EC9A5D6C22FC                           
000162f0  __covrec_7E094802DB2C7872                           
00016318  __covrec_1B9CA30A65B78731                           
00016340  __covrec_B7F8AA0A75D437ED                           
00016368  __covrec_106C0A8F47E4EBF5                           
00016390  __covrec_7228F69D8F36EB6F                           
000163b8  __covrec_328AFB179A26404D                           
000163e0  __covrec_329ACE27EDB24189                           
00016408  __covrec_7B1BF4E8C50F2A0D                           
00016430  __covrec_78597822E22CC415                           
00016458  __covrec_BD5CC9630DBCBBE9                           
00016480  __covrec_41AEBAB8BD1FD2DB                           
000164a8  __covrec_5F8EB310E228C202                           
000164d0  __covrec_BA12879443A2327D                           
000164f8  __covrec_9329FD48AB2E1274                           
00016520  __covrec_9C5BA9E739FA244E                           
00016548  __covrec_E49524A10E027AC6                           
00016570  __covrec_E30F78146A77D9A7                           
00016598  __covrec_24DBDAA504A8EB                             
000165c0  __covrec_B158C101AA167696                           
000165e8  __covrec_25644B6D8D9339A2                           
00016610  __covrec_2E459FB28F5F2122                           
00016638  __covrec_140C87832FFAF923                           
00016660  __covrec_C6C59DFD81F45453                           
00016688  __covrec_70073D59154FBB90                           
000166b0  __covrec_9C553D2B368997E4                           
000166d8  __covrec_600121E2FBDF7D4E                           
00016700  __covrec_C0AA7AE1236408C6                           
00016728  __covrec_61EA836F28914C82                           
00016750  __covrec_5B5EF01BC99E5A86                           
00016778  __covrec_D46C6760916F836A                           
000167a0  __covrec_EBB9657C4CBDFB97                           
000167c8  __covrec_BE2747E0B77C11DC                           
000167f0  __covrec_754DE0ABC1699C52                           
00016818  __covrec_A5C15D890B087722                           
00016840  __covrec_8BE702C3BEFDEA81                           
00016868  __covrec_79080B738D71DCA0                           
00016890  __covrec_C03E22A2F6E2E4EF                           
000168b8  __covrec_E9006A34444A2A37                           
000168e0  __covrec_80EFDD160ECC63A5                           
00016908  __covrec_79177773D074D56A                           
00016930  __covrec_31FD0D502C5066BA                           
00016958  __covrec_6A1E7BC147A9A584                           
00016980  __covrec_FD6EFDF54A7E61F9                           
000169a8  __covrec_70EC87587136D382                           
000169d0  __covrec_6498EABD08FE2134                           
000169f8  __covrec_920260ADD4BAECEC                           
00016a20  __covrec_E96F6C670CC524BB                           
00016a48  __covrec_F1E83CA2B0CD6A20                           
00016a70  __covrec_A14E5249FF6D9B73                           
00016a98  __covrec_CF30B3F8389553FA                           
00016ac0  __covrec_D9BFBE2790C83171                           
00016ae8  __covrec_192A7CE8DD30AE20                           
00016b10  __covrec_3F3F06B0DE5DFDFD                           
00016b38  __covrec_9AC3CF09EF2C674                            
00016b60  __covrec_ABA022C0A714032                            
00016b88  __covrec_C93E92B492002ABF                           
00016bb0  __covrec_347D20A347D54D3B                           
00016bd8  __covrec_B26FE818C9BBF2BF                           
00016c00  __covrec_70226340E9DAF01A                           
00016c28  __covrec_36C64B2F466F1472                           
00016c50  __covrec_5DCBC94E2F239EF0                           
00016c78  __covrec_F2618F42DC968004                           
00016ca0  __covrec_F454D8ABE2DC2387                           
00016cc8  __covrec_2A736453A4775CC3                           
00016cf0  __covrec_79D6AA16F231D6E                            
00016d18  __covrec_F555D7D565E23141                           
00016d40  __covrec_6D31441440B2B830                           
00016d68  __covrec_44C5379EEB9C4                              
00016d90  __covrec_40835A27C3B3C9BC                           
00016db8  __covrec_D9B5BBF5883ABD67                           
00016de0  __covrec_E25E3C69A2C093FE                           
00016e08  __covrec_5B4547B2E6288EA9                           
00016e30  __covrec_601FDE1BE8C6AAE0                           
00016e58  __covrec_1D5453C0FE32606E                           
00016e80  __covrec_862F74E5EAEB7D2C                           
00016ea8  __covrec_B09D4FD458CDE129                           
00016ed0  __covrec_15599278F6628FD9                           
00016ef8  __covrec_E3CF855287A82BEC                           
00016f20  __covrec_174F15FCCDC74864                           
00016f48  __covrec_A78911E3D047929E                           
00016f70  __covrec_5B93A986E69D6689                           
00016f98  __covrec_9E844E7AE3CA768E                           
00016fc0  __covrec_C31D13C77667C7D8                           
00016fe8  __covrec_476992FF089351FB                           
00017010  __covrec_1DA2DF1D9481285F                           
00017038  __covrec_960AA1E8FBB5B563                           
00017060  __covrec_48B35313DF575FFA                           
00017088  __covrec_ADC012B52C9206AC                           
000170b0  __covrec_FDFA5CAFBD69AC08                           
000170d8  __covrec_B1C3981F9634D369                           
00017100  __covrec_322133A61A45AB4E                           
00017128  __covrec_697D5C899E463194                           
00017150  __covrec_FF6BB409FA34F363                           
00017178  __covrec_85D07076A9880596                           
000171a0  __covrec_E4D053578B19A849                           
000171c8  __covrec_33066D15E3040297                           
000171f0  __covrec_B3FCF4E02B6C0FD4                           
00017218  __covrec_EA2293814417AE2                            
00017240  __covrec_11E4D0BB9C3E8C30                           
00017268  __covrec_6C6D0F2F16F1F38D                           
00017290  __covrec_AD047280576A3B69                           
000172b8  __covrec_DE7AA2ACCED77C8                            
000172e0  __covrec_B15D06C22FEC71D9                           
00017308  __covrec_1707DC81A21DBC1C                           
00017330  __covrec_168493D43873B111                           
00017358  __covrec_5CDB53EB55DAC376                           
00017380  __covrec_929C3D7BA5E7A98D                           
000173a8  __covrec_4DE3D6A3E8BDB070                           
000173d0  __covrec_25E129209C6D6E08                           
000173f8  __covrec_6450FD0A03211B5F                           
00017420  __covrec_619C2FAE5D265277                           
00017448  __covrec_B253B33871D9C4D2                           
00017470  __covrec_858246B40FF97B3A                           
00017498  __covrec_D47BE27B68D57C53                           
000174c0  __covrec_47FB578411340773                           
000174e8  __covrec_9C2775F1FB7FD0B3                           
00017510  __covrec_4372B022B5546D6B                           
00017538  __covrec_5767CF3A670B399C                           
00017560  __covrec_48DB928E5EA29731                           
00017588  __covrec_3163B63F3B49E158                           
000175b0  __covrec_B63BB6869D812CAF                           
000175d8  __covrec_BF99175D50CA1867                           
00017600  __covrec_622C64949E26680D                           
00017628  __covrec_E77E74F8DA2AF574                           
00017650  __covrec_E8170BC21DBCAFEB                           
00017678  __covrec_D9DA8721215694F0                           
000176a0  __covrec_FBABB1CFAA0837B                            
000176c8  __covrec_8BA3D2C2EDECD73D                           
000176f0  __covrec_3838EAEF37C9B024                           
00017718  __covrec_2B07AC81363554B8                           
00017740  __covrec_AECF195AE0C883E0                           
00017768  __covrec_69790632A0BC140D                           
00017790  __covrec_17302E52AA89C0CD                           
000177b8  __covrec_18ACCAC5D58EF3D4                           
000177e0  __covrec_BC1E770725353BFE                           
00017808  __covrec_57DC8F9B3C4337A2                           
00017830  __covrec_9712907A002D60F7                           
00017858  __covrec_18ACAD82B94D6601                           
00017880  __covrec_CA8DBCD54A2B28B1                           
000178a8  __covrec_7B7E33D7E8902EE6                           
000178d0  __covrec_90C9B803289D8B5B                           
000178f8  __covrec_71DB72C3301D9EA2                           
00017920  __covrec_CAC374A65142BF09                           
00017948  __covrec_7E3C84C442B06ADC                           
00017970  __covrec_B7FE008276F99331                           
00017998  __covrec_1267B4521C0A50E3                           
000179c0  __covrec_14D1DCA4E67C18C5                           
000179e8  __covrec_79E89AE24E1E33A3                           
00017a10  __covrec_F6A64CBDA47317FD                           
00017a38  __covrec_8D4838020815225E                           
00017a60  __covrec_8040F2CFD3D473A4                           
00017a88  __covrec_BE5A92894152D5DE                           
00017ab0  __covrec_22AA610D5E826481                           
00017ad8  __covrec_BB50BDBE0E77D3AD                           
00017b00  __covrec_8E0F7C647D51BFD2                           
00017b28  __covrec_E1530E7A17298A76                           
00017b50  __covrec_D895D93EA590B5A1                           
00017b78  __covrec_6EE2BF9459318274                           
00017ba0  __covrec_C3A1DC3CF32D203A                           
00017bc8  __covrec_39BD400369155FF7                           
00017bf0  __covrec_9255662AF750EBBF                           
00017c18  __covrec_4474B8D0BC074C04                           
00017c40  __covrec_CFF4B1D49D637D05                           
00017c68  __covrec_BB9DB7256D55E22C                           
00017c90  __covrec_726A5C9D52F7F5E7                           
00017cb8  __covrec_40C3C35157F185E9                           
00017ce0  __covrec_BB43D7D806F4CBD6                           
00017d08  __covrec_66FCC1F75E2E4197                           
00017d30  __covrec_99992A15E457B36F                           
00017d58  __covrec_B8D875108F459ADA                           
00017d80  __covrec_8DFC72E8925CC73                            
00017da8  __covrec_8D1AA427298D1344                           
00017dd0  __covrec_BA1ECAA1A7696E1A                           
00017df8  __covrec_EB354C3B55D00E6E                           
00017e20  __covrec_6D66CFB74E90B79C                           
00017e48  __covrec_41838BAC8E2D2787                           
00017e70  __covrec_84E26731CB5A9EAC                           
00017e98  __covrec_27F653CEA4118248                           
00017ec0  __covrec_9455C9786A09CB57                           
00017ee8  __covrec_30ED4319F76DB893                           
00017f10  __covrec_EC14A2237089E2CD                           
00017f38  __covrec_B2DF3A96F478E43B                           
00017f60  __covrec_D5253C2D081AEC51                           
00017f88  __covrec_CD3F17D62E99D72F                           
00017fb0  __covrec_611766D475D70993                           
00017fd8  __covrec_778D7F40FA03F2E9                           
00018000  __covrec_406378224CE7840F                           
00018028  __covrec_2286D5FF0FC802ED                           
00018050  __covrec_CA685C0901188451                           
00018078  __covrec_B2E7260EC55D2713                           
000180a0  __covrec_E114898DAAA5BEF6                           
000180c8  __covrec_F4A6E46EEBB7430F                           
000180f0  __covrec_D163700B248786AA                           
00018118  __covrec_3D5160002BBF26F9                           
00018140  __covrec_436280033B12932A                           
00018168  __covrec_DE34EC45D2197840                           
00018190  __covrec_A178521A967058F3                           
000181b8  __covrec_B869702795BA3180                           
000181e0  __covrec_F86E8E4C58460891                           
00018208  __covrec_6100AF97F9A9E9F7                           
00018230  __covrec_96AA8D61B3A8DA35                           
00018258  __covrec_E3C48853351D961                            
00018280  __covrec_FB1D8691C0553F                             
000182a8  __covrec_23BDC91C28D00DEB                           
000182d0  __covrec_61840838A007A7EE                           
000182f8  __covrec_CF1DAB8B6A2AA843                           
00018320  __covrec_C8340AF3DD76DEA5                           
00018348  __covrec_5341AC3ACCD56D5A                           
00018370  __covrec_CE081AE001D392A7                           
00018398  __covrec_61C676D4F7B32687                           
000183c0  __covrec_65FB37FD3ECB0783                           
000183e8  __covrec_1F81DC0331A088EE                           
00018410  __covrec_EEEC5419627FC981                           
00018438  __covrec_D3BCCDBD67187C42                           
00018460  __covrec_46EDCBBEAFD38B16                           
00018488  __covrec_A72768145C3B258D                           
000184b0  __covrec_2597CFE535DF7925                           
000184d8  __covrec_C268EEC39DA3B21C                           
00018500  __covrec_D9DDA3EAD197CE88                           
00018528  __covrec_D1A6617A5EDDDD2C                           
00018550  __covrec_366594CABF5FBBE1                           
00018578  __covrec_FACA0D83EF2252D9                           
000185a0  __covrec_E5BADA89A063A7FE                           
000185c8  __covrec_ECA9C1C44D4A3387                           
000185f0  __covrec_E40BD4FBEC9475E                            
00018618  __covrec_8D17775B98F2D331                           
00018640  __covrec_F31B4D53596DC8E7                           
00018668  __covrec_E18B4A3D28292E1                            
00018690  __covrec_2E714EFCCE61715E                           
000186b8  __covrec_7ACF2422A306985E                           
000186e0  __covrec_B25D5E7D963D0469                           
00018708  __covrec_CD52D5354BACA035                           
00018730  __covrec_D0C19A2C829A1D55                           
00018758  __covrec_D70154E3E201FB1                            
00018780  __covrec_6CC6679ECBEE14F9                           
000187a8  __covrec_7291D6678338BC48                           
000187d0  __covrec_8EBE3C0B375841A4                           
000187f8  __covrec_BB7CDB87DF7DC393                           
00018820  __covrec_2B5FFCF4F8CB86BC                           
00018848  __covrec_D954D0998E13AAD4                           
00018870  __covrec_883C1BD346B3B6A7                           
00018898  __covrec_7BEAFE9253C2DC91                           
000188c0  __covrec_FEDB316D835D59CB                           
000188e8  __covrec_3D25EC3DE4E423F3                           
00018910  __covrec_8C3011EFB7930608                           
00018938  __covrec_E83844EB97E41293                           
00018960  __covrec_E34511D25E36A244                           
00018988  __covrec_831EB062A57A0618                           
000189b0  __covrec_63D016BC5F283A2B                           
000189d8  __covrec_F69D3E0B112353E9                           
00018a00  __covrec_5942973784CEEA25                           
00018a28  __covrec_3AF95226F44434B7                           
00018a50  __covrec_3CFE3402D2666528                           
00018a78  __covrec_A7959569B6A5A56F                           
00018aa0  __covrec_82D6940BA8D59531                           
00018ac8  __covrec_15E9C88B8913D74B                           
00018af0  __covrec_3AAA2A3C5CE52BA3                           
00018b18  __covrec_89DB25962A5EB408                           
00018b40  __covrec_66E9970543670AE8                           
00018b68  __covrec_E65B615C74CEBB96                           
00018b90  __covrec_EABD2DB4D7FE38C3                           
00018bb8  __covrec_BF6A0C809C015679                           
00018be0  __covrec_59EA745BFA1ABDC0                           
00018c08  __covrec_78426C8A160B6351                           
00018c30  __covrec_4B5ADC67ED6C8790                           
00018c58  __covrec_C9E60D5E928F5EEC                           
00018c80  __covrec_E9CD8EC02240DD72                           
00018ca8  __covrec_6769A1B6579C1917                           
00018cd0  __covrec_9C93726BBC48186D                           
00018cf8  __covrec_92B52E0B3366C97                            
00018d20  __covrec_22F1260B2ECCC08F                           
00018d48  __covrec_1D8009E1123EFE18                           
00018d70  __covrec_B329A0B3FCA532E3                           
00018d98  __covrec_810D579CAA1E6A5D                           
00018dc0  __covrec_D35B061DD72A8133                           
00018de8  __covrec_208E88AD446ED6FF                           
00018e10  __covrec_8656F45CC3A9BD8D                           
00018e38  __covrec_AE6F1168B53990C8                           
00018e60  __covrec_ED5378248E071109                           
00018e88  __covrec_7C1807FD8A2400E0                           
00018eb0  __covrec_D8357A951D6CC3AD                           
00018ed8  __covrec_67345CC240590D89                           
00018f00  __covrec_E0575EF810248D3C                           
00018f28  __covrec_86EFB8D70E3195D9                           
00018f50  __covrec_20502D4EF27C8C51                           
00018f78  __covrec_BAFF080CE41F419B                           
00018fa0  __covrec_50E1A630398A4DB2                           
00018fc8  __covrec_D0F6FDA3D53C6FE4                           
00018ff0  __covrec_6EEA99F60149DC25                           
00019018  __covrec_217DB9DBC67C1EFE                           
00019040  __covrec_2C5B3AD84DE89A09                           
00019068  __covrec_331725AF5DF50438                           
00019090  __covrec_29CB61A807DB331C                           
000190b8  __covrec_EB884DF891B7C0B5                           
000190e0  __covrec_AB271BB12C7B2E99                           
00019108  __covrec_FBDF9DFB9E695E89                           
00019130  __covrec_78E44053E051208B                           
00019158  __covrec_1409994ABADCA9DB                           
00019180  __covrec_80FFFF73B4ABC887                           
000191a8  __covrec_10D7C14A5E1269A                            
000191d0  __covrec_230E01EBA14683DA                           
000191f8  __covrec_75E3E8E045B77C3                            
00019220  __covrec_9CDBAE3A4C8F2B61                           
00019248  __covrec_EB5AED9D23042DB4                           
00019270  __covrec_61449AE38B530A4                            
00019298  __covrec_E2BACE41E30617A9                           
000192c0  __covrec_572E084EA8EAC4C5                           
000192e8  __covrec_10ACAC719BF92A02                           
00019310  __covrec_A0EDF6B61594B5D2                           
00019338  __covrec_525C3DF9C95B7EC                            
00019360  __covrec_5A2DEE3595B11481                           
00019388  __covrec_ADDF4235E39AF004                           
000193b0  __covrec_43D8C40C41906745                           
000193d8  __covrec_6FC2A34653C7B741                           
00019400  __covrec_538F62B599A02D85                           
00019428  __covrec_E4610D219A4ED31                            
00019450  __covrec_C18C03D15A8F8D51                           
00019478  __covrec_1528E95DCB01A67C                           
000194a0  __covrec_2D0041D38F4C7BA8                           
000194c8  __covrec_53274C6784AC6740                           
000194f0  __covrec_5CFAB2D619F63C5                            
00019518  __covrec_C4CB3B4E9E7F3A34                           
00019540  __covrec_650D813178C6FBA0                           
00019568  __covrec_1881D5B34314DF64                           
00019590  __covrec_F0026EB50F7B8029                           
000195b8  __covrec_E343A047350791DF                           
000195e0  __covrec_C2EA69130D5DE4D6                           
00019608  __covrec_4EFD1DA62AB1D0E3                           
00019630  __covrec_D7983C05E0832327                           
00019658  __covrec_D171F092417D4735                           
00019680  __covrec_F13A8066761C463B                           
000196a8  __covrec_7970AA4372F62F23                           
000196d0  __covrec_149ACD14E0572626                           
000196f8  __covrec_7BCFB99D45157AF6                           
00019720  __covrec_B23169270BEA3591                           
00019748  __covrec_1317F30DAB07CEFD                           
00019770  __covrec_A8A70DDF5F2056BA                           
00019798  __covrec_31F7B8F147936BE1                           
000197c0  __covrec_7D5CB73C05FC6F34                           
000197e8  __covrec_500923B66EDC1559                           
00019810  __covrec_C8F4E67F540B3236                           
00019838  __covrec_D998495D77F56213                           
00019860  __covrec_56994D288387D9E1                           
00019888  __covrec_2E3C982E9C9C353                            
000198b0  __covrec_CB401E04B85A55F6                           
000198d8  __covrec_A80BD7A623AB578                            
00019900  __covrec_F573A0ADEA913771                           
00019928  __covrec_F2C38226B0B6E63B                           
00019950  __covrec_D04DC704886886C6                           
00019978  __covrec_D149E6B126AFF09E                           
000199a0  __covrec_DB2B422DD9C5F163                           
000199c8  __covrec_642A5D35D62CCC35                           
000199f0  __covrec_2B68E5DDE2E9662B                           
00019a18  __covrec_644EE4DEA57C92BA                           
00019a40  __covrec_9189174E9CA856EE                           
00019a68  __covrec_1CA1AE9514CE36B4                           
00019a90  __covrec_96AE1425C6CA1E9C                           
00019ab8  __covrec_3129FF84AE3F76E2                           
00019ae0  __covrec_AF0B549003A6C852                           
00019b08  __covrec_483E582084ED31BD                           
00019b30  __covrec_182EBC3292D8B057                           
00019b58  __covrec_9E55FF8E109C4C33                           
00019b80  __covrec_1930B2CB90352D46                           
00019ba8  __covrec_8D6FF92E7B672D3F                           
00019bd0  __covrec_DCFDECC609924E0D                           
00019bf8  __covrec_AB7956570CA67670                           
00019c20  __covrec_18DDFB0FE08ED969                           
00019c48  __covrec_BD20025876B40285                           
00019c70  __covrec_341863ACF88CD371                           
00019c98  __covrec_76D4C9D79366C347                           
00019cc0  __covrec_6964C0ABD1B3D33E                           
00019ce8  __covrec_E8E82BD5A06CBDFD                           
00019d10  __covrec_3435C80BC3722BAD                           
00019d38  __covrec_46453BBBC5316FD3                           
00019d60  __covrec_79483E28CA94B7B7                           
00019d88  __covrec_AB304C8261FDEB8F                           
00019db0  __covrec_4D32569C34B2D696                           
00019dd8  __covrec_8BE10D2019571717                           
00019e00  __covrec_BC56D22003F30EB                            
00019e28  __covrec_707AD4A7445FB443                           
00019e50  __covrec_51A09EDC84208728                           
00019e78  __covrec_191831FA0CEE1893                           
00019ea0  __covrec_352F9E2440E9C139                           
00019ec8  __covrec_6280E7CD83141F1B                           
00019ef0  __covrec_859E28C748FFE64C                           
00019f18  __covrec_DA78BB48445AA633                           
00019f40  __covrec_1CE8FD9CC832CE68                           
00019f68  __covrec_BB37BA4602A701B5                           
00019f90  __covrec_2239F1A9CC961427                           
00019fb8  __covrec_BC620F117425D53                            
00019fe0  __covrec_DD4A0C4B99122703                           
0001a008  __covrec_D3555C4264598523                           
0001a030  __covrec_B0D24101139E4F24                           
0001a058  __covrec_16A0659A24000E67                           
0001a080  __covrec_DC3FF53EE745C134                           
0001a0a8  __covrec_981A9F8688DAB97D                           
0001a0d0  __covrec_DD8F3F4BB452940E                           
0001a0f8  __covrec_6A6362E7A2077239                           
0001a120  __covrec_24DC5A464E150DEB                           
0001a148  __covrec_A0759E883AB3A266                           
0001a170  __covrec_9E26C402F00A2F32                           
0001a198  __covrec_88AFBC48C36297DD                           
0001a1c0  __covrec_16D434825183503F                           
0001a1e8  __covrec_AC783881F1762401                           
0001a210  __covrec_8FA27FFC6507F02D                           
0001a238  __covrec_91A85A47E46E837B                           
0001a260  __covrec_E322092842F7340                            
0001a288  __covrec_7267E5B89742BDEF                           
0001a2b0  __covrec_9DD34F2822473557                           
0001a2d8  __covrec_CA8C60D3EA5362E1                           
0001a300  __covrec_B4A7C58ED4F2BBE5                           
0001a328  __covrec_A56E213FAEA092D9                           
0001a350  __covrec_B1CE96BC945B0CBF                           
0001a378  __covrec_3F67DCC65271B3FF                           
0001a3a0  __covrec_F1B36A5B4773B81                            
0001a3c8  __covrec_60CD53922E0964B6                           
0001a3f0  __covrec_EA87A98CE1D84D5D                           
0001a418  __covrec_5B7AB3B015354B82                           
0001a440  __covrec_30B7C7B021FF32BD                           
0001a468  __covrec_B871D12F39A6AF36                           
0001a490  __covrec_C14519F9FADE6C9A                           
0001a4b8  __covrec_6A20DA2468D71674                           
0001a4e0  __covrec_889B730B19F33BB5                           
0001a508  __covrec_DD47B775D2BA38FC                           
0001a530  __covrec_AB5B451F3E10B919                           
0001a558  __covrec_1B0D2750B34B1703                           
0001a580  __covrec_E2CB17AF898C3228                           
0001a5a8  __covrec_14C92017E2A5AC67                           
0001a5d0  __covrec_18C79462758238BA                           
0001a5f8  __covrec_57A66E83E0547B4C                           
0001a620  __covrec_E0574A7F6C7FE9EB                           
0001a648  __covrec_C3F7D722BD7A26A9                           
0001a670  __covrec_C7DC5231AA70BA0F                           
0001a698  __covrec_CEFB9F7F6D63820E                           
0001a6c0  __covrec_CDBF3A5FF7EE087                            
0001a6e8  __covrec_15EBD46F714DA966                           
0001a710  __covrec_4FF6C882AEFBE71                            
0001a738  __covrec_FFFB116B4E183B3A                           
0001a760  __covrec_638756E0999BF942                           
0001a788  __covrec_B7F5FFCDF30CB218                           
0001a7b0  __covrec_13150132607A5180                           
0001a7d8  __covrec_1F323AB5CF4D4A72                           
0001a800  __covrec_8196FC9DDEF99D32                           
0001a828  __covrec_608554DE1C9501C7                           
0001a850  __covrec_F97C6C392C8944F3                           
0001a878  __covrec_B9AB8834A2237901                           
0001a8a0  __covrec_E7E7144D5ECBBB5                            
0001a8c8  __covrec_BB3928FABB4339BB                           
0001a8f0  __covrec_E3518C62E0440A85                           
0001a918  __covrec_67F252814530E1AE                           
0001a940  __covrec_C8E89BD540C9114F                           
0001a968  __covrec_F42DCE2D205E9019                           
0001a990  __covrec_74BF17EF8000DDA7                           
0001a9b8  __covrec_CD808DC22BF44FE8                           
0001a9e0  __covrec_17E08951EDF009B4                           
0001aa08  __covrec_CE07E47036E86558                           
0001aa30  __covrec_2DF772145F02FC49                           
0001aa58  __covrec_FDAA4CDD67C3D058                           
0001aa80  __covrec_40C30177E58A8F00                           
0001aaa8  __covrec_4891A72BFF7F5031                           
0001aad0  __covrec_E801FF57F7B8F56C                           
0001aaf8  __covrec_643F4F8E75138635                           
0001ab20  __covrec_5FFD77205848B964                           
0001ab48  __covrec_133B487217BB2E5A                           
0001ab70  __covrec_512002C148919CFE                           
0001ab98  __covrec_8B3C2D954ED0BA75                           
0001abc0  __covrec_C71D83EEEEBD25C5                           
0001abe8  __covrec_1AFE76699DCE6D3D                           
0001ac10  __covrec_BA973D6E4001920E                           
0001ac38  __covrec_F5AFEB1EEA354D61                           
0001ac60  __covrec_B441970F37224737                           
0001ac88  __covrec_D70EA4A8A98751CE                           
0001acb0  __covrec_C047E60BD8866964                           
0001acd8  __covrec_C634E91CD196F85E                           
0001ad00  __covrec_C28518340856F2B0                           
0001ad28  __covrec_5DCE58CE14EFB2DE                           
0001ad50  __covrec_9B85596B8A1AE901                           
0001ad78  __covrec_E72B77A267908E6C                           
0001ada0  __covrec_8F06D388B748E7A8                           
0001adc8  __covrec_78368865D6205216                           
0001adf0  __covrec_B1A9F6BF4A203553                           
0001ae18  __covrec_A4F309C69DE758AC                           
0001ae40  __covrec_BFAFD22F7BF690C5                           
0001ae68  __covrec_12A84A218C9DEA06                           
0001ae90  __covrec_6C743F583DE17023                           
0001aeb8  __covrec_473C66096BA722FD                           
0001aee0  __covrec_ACF4230EF393C5BA                           
0001af08  __covrec_C4D78141AF2572F5                           
0001af30  __covrec_76FA1361CF01BDA3                           
0001af58  __covrec_95D71764A59AEC27                           
0001af80  __covrec_CCE8587A3277B01F                           
0001afa8  __covrec_8813AE4156258C77                           
0001afd0  __covrec_BAB821C194D33E0C                           
0001aff8  __covrec_C6E5746A589295D1                           
0001b020  __covrec_FB91A69921C0AA0                            
0001b048  __covrec_14465F9D45D58042                           
0001b070  __covrec_60C4F50F13ECC26                            
0001b098  __covrec_FEC7313548E6B0A0                           
0001b0c0  __covrec_5543982661761F02                           
0001b0e8  __covrec_EDDFCB24481343C8                           
0001b110  __covrec_A142625DB4946496                           
0001b138  __covrec_D384089B6507668C                           
0001b160  __covrec_47BE7FD010B31ACF                           
0001b188  __covrec_A6F91C9DE4E92CCF                           
0001b1b0  __covrec_9EDD55D5C8BE933C                           
0001b1d8  __covrec_3E1568D9541C8352                           
0001b200  __covrec_75A8DE6340DA4CB3                           
0001b228  __covrec_967BFC98B61002E2                           
0001b250  __covrec_5540FB3D09913541                           
0001b278  __covrec_18A4EB207556A42C                           
0001b2a0  __covrec_F95EAA333DB23898                           
0001b2c8  __covrec_8DA516C1E6826A9E                           
0001b2f0  __covrec_69C8694219275654                           
0001b318  __covrec_1A22B483B14D442                            
0001b340  __covrec_CBC9F45CB78F8B90                           
0001b368  __covrec_1D1393F256C668B4                           
0001b390  __covrec_E88140DB696B12FA                           
0001b3b8  __covrec_5431C2A10E3AF27F                           
0001b3e0  __covrec_D98E6A74FFF9D8A                            
0001b408  __covrec_9E7667E7EBD723A3                           
0001b430  __covrec_B1FA2164EC3E6151                           
0001b458  __covrec_F6DAA592595F28C                            
0001b480  __covrec_548397170303D112                           
0001b4a8  __covrec_1908F0908D2CBF18                           
0001b4d0  __covrec_EE0F6CF5ED5E776E                           
0001b4f8  __covrec_8BCACFC8A7CAB002                           
0001b520  __covrec_9CB452459D1C403B                           
0001b548  __covrec_DAB8E868E50A27CF                           
0001b570  __covrec_33495A652304E49                            
0001b598  __covrec_7D0DD1100E5C3292                           
0001b5c0  __covrec_C470FE3D8AEB00D9                           
0001b5e8  __covrec_6F87E0D31011FA87                           
0001b610  __covrec_D4AC32A10CD7CB0F                           
0001b638  __covrec_7E4E238AD334240D                           
0001b660  __covrec_97BE04EE290C2F02                           
0001b688  __covrec_3D0817C7DF21F89F                           
0001b6b0  __covrec_6335E4F87C82DFDD                           
0001b6d8  __covrec_F0ACEBB6D32F523D                           
0001b700  __covrec_B359F814EED190EC                           
0001b728  __covrec_AA520EFB2821E557                           
0001b750  __covrec_2BE6C0B46C211135                           
0001b778  __covrec_AC39529A12F08E6B                           
0001b7a0  __covrec_59E40C65BB4D18F7                           
0001b7c8  __covrec_A4D349F83946625F                           
0001b7f0  __covrec_CFDB817D939AB454                           
0001b818  __covrec_1AF6215EE93D46D6                           
0001b840  __covrec_3B097A2085B9CD1E                           
0001b868  __covrec_3B1FE69DF6A41D79                           
0001b890  __covrec_F299FB8EC8B5A98D                           
0001b8b8  __covrec_55C345FCDBE2932D                           
0001b8e0  __covrec_FA6A73CFC94A4F8F                           
0001b908  __covrec_954D554981613485                           
0001b930  __covrec_60CE23351F0BB0C5                           
0001b958  __covrec_A0D214D928BC709E                           
0001b980  __covrec_BB204FB54CD4EFC                            
0001b9a8  __covrec_6357598EEBCB078A                           
0001b9d0  __covrec_984F02E3E0699504                           
0001b9f8  __covrec_83A7E935CDCDEF7A                           
0001ba20  __covrec_E0842A3A8957D10D                           
0001ba48  __covrec_856B515851EDB492                           
0001ba70  __covrec_4749F46D3908955F                           
0001ba98  __covrec_16D70E5A69A3760A                           
0001bac0  __covrec_A9DA2B99CE47AF13                           
0001bae8  __covrec_34AF19AADA685B0E                           
0001bb10  __covrec_3886213F5ECF5BC5                           
0001bb38  __covrec_60422E52F6D7CCB4                           
0001bb60  __covrec_C24C11236C197783                           
0001bb88  __covrec_89030C179EB9C81C                           
0001bbb0  __covrec_E1DBE843867CF66E                           
0001bbd8  __covrec_DD7A9DE99C6C5AF4                           
0001bc00  __covrec_40C2045D2339AE27                           
0001bc28  __covrec_163C92947DFA7B45                           
0001bc50  __covrec_B77E9FAD3DF35EBE                           
0001bc78  __covrec_F8EC7E727BB49656                           
0001bca0  __covrec_15A6988EB176291B                           
0001bcc8  __covrec_8B4A5432F640F7CC                           
0001bcf0  __covrec_E4C40D5C5CFA6531                           
0001bd18  __covrec_6F6B58E351921A4C                           
0001bd40  __covrec_C3B2B1E927D2AED0                           
0001bd68  __covrec_E619CCC955A6862B                           
0001bd90  __covrec_A06516C97CF745F                            
0001bdb8  __covrec_614E3FACC915D745                           
0001bde0  __covrec_D6C0ECB4343048C3                           
0001be08  __covrec_948B551B6988013C                           
0001be30  __covrec_70CF8CA989011034                           
0001be58  __covrec_7D42ED8A1849121                            
0001be80  __covrec_8A1F9CA0D4334F06                           
0001bea8  __covrec_4F658069E82642B3                           
0001bed0  __covrec_BC7A07810C2A4EA5                           
0001bef8  __covrec_17F1308C877F8432                           
0001bf20  __covrec_BB175E3871FD845                            
0001bf48  __covrec_B599D5FE34962FCD                           
0001bf70  __covrec_9A40F604B5DC964B                           
0001bf98  __covrec_825B61DE411E2061                           
0001bfc0  __covrec_61126BC06481CB11                           
0001bfe8  __covrec_219DAFA81AFAA2FB                           
0001c010  __covrec_55C646F71E54567                            
0001c038  __covrec_91CF93C22BDB4813                           
0001c060  __covrec_656B3D9D6026034                            
0001c088  __covrec_56B780A4FDEE900D                           
0001c0b0  __covrec_1F9CF73C50D6AB19                           
0001c0d8  __covrec_9852984F812F872E                           
0001c100  __covrec_B0584FEB9BE7B098                           
0001c128  __covrec_C49D033DE3A9AFB9                           
0001c150  __covrec_CC0E79F34BDE50C1                           
0001c178  __covrec_AFF8EA2E9F42EA4D                           
0001c1a0  __covrec_7642F55933F834AD                           
0001c1c8  __covrec_FFDFE8E406984E9A                           
0001c1f0  __covrec_813E893FC027E207                           
0001c218  __covrec_2D3B4279E82844EA                           
0001c240  __covrec_9E7D8352594DED0C                           
0001c268  __covrec_5BD32E00C445D602                           
0001c290  __covrec_FCDCDFD15AC0E740                           
0001c2b8  __covrec_30FBE63F83B9D1D                            
0001c2e0  __covrec_DD46D3C4DEFB9C99                           
0001c308  __covrec_890AAC5CB222EC4D                           
0001c330  __covrec_FB7CF8B94050C947                           
0001c358  __covrec_98CE03280FE13541                           
0001c380  __covrec_D166DCE98F6D0E9C                           
0001c3a8  __covrec_162CFD0A1B796938                           
0001c3d0  __covrec_E1B2D1FEB13F85A6                           
0001c3f8  __covrec_60E01FB0FEA6B10F                           
0001c420  __covrec_60B82B20ADF3A6C9                           
0001c448  __covrec_20F4440F1638C2A5                           
0001c470  __covrec_64C631C3419D8497                           
0001c498  __covrec_1A6E887ACACAFF76                           
0001c4c0  __covrec_DDD36BF1BDB7AA08                           
0001c4e8  __covrec_DD1D58311D02EABE                           
0001c510  __covrec_A892DA4DF516689A                           
0001c538  __covrec_73146D47C2268B40                           
0001c560  __covrec_7A9B0D8ED1CC3EDE                           
0001c588  __covrec_CF4FC1E32151C594                           
0001c5b0  __covrec_F29AB24D20F7541B                           
0001c5d8  __covrec_A9C81912A7BBEE                             
0001c600  __covrec_16EB4AA73251958E                           
0001c628  __covrec_D30E084174151E21                           
0001c650  __covrec_3C99A72BDFB45697                           
0001c678  __covrec_D98016B2FE4D3D31                           
0001c6a0  __covrec_9A82C2E58801D4EB                           
0001c6c8  __covrec_9E940468EF94664F                           
0001c6f0  __covrec_52B97E8CA708B350                           
0001c718  __covrec_F85390884DDE2EF8                           
0001c740  __covrec_B39D9BE678C85D9F                           
0001c768  __covrec_77EC49B74F3623B4                           
0001c790  __covrec_DB471C349C709A12                           
0001c7b8  __covrec_74B4AAA5875A1A40                           
0001c7e0  __covrec_3971B1944E0C574C                           
0001c808  __covrec_EE26B27D7B570B3D                           
0001c830  __covrec_D13E1DD0A904D1EC                           
0001c858  __covrec_C0D2729B0E6DF1B7                           
0001c880  __covrec_20C5FBED395A9EDE                           
0001c8a8  __covrec_8CC132A12E67D303                           
0001c8d0  __covrec_7E376119588B9530                           
0001c8f8  __covrec_97505DF3A3ED9895                           
0001c920  __covrec_A8A28DA9DA2B412D                           
0001c948  __covrec_19FA784ADD838849                           
0001c970  __covrec_A6542DEDB8EB9879                           
0001c998  __covrec_848A2C0F944BCCE0                           
0001c9c0  __covrec_982466CC2ACC15EC                           
0001c9e8  __covrec_D508958877B7CDD7                           
0001ca10  __covrec_91615256E6397B28                           
0001ca38  __covrec_F5588139E339EF27                           
0001ca60  __covrec_6CFE6451EC9C52F9                           
0001ca88  __covrec_C13AD5850545AB0D                           
0001cab0  __covrec_3B8B8236C02173C2                           
0001cad8  __covrec_66884EF09B90C267                           
0001cb00  __covrec_2D99555663CB507E                           
0001cb28  __covrec_DF7E3D1C5554EC59                           
0001cb50  __covrec_FBCE000054D77117                           
0001cb78  __covrec_C55313E71DA0C3B9                           
0001cba0  __covrec_BE5179F5A57B6AE2                           
0001cbc8  __covrec_BE65544DFD0F9AD8                           
0001cbf0  __covrec_81467A257584C92B                           
0001cc18  __covrec_892CE1FEF10A5D0D                           
0001cc40  __covrec_80A35A396107311D                           
0001cc68  __covrec_DCB964463AE10E6B                           
0001cc90  __covrec_A8B2B5CC8DBF4800                           
0001ccb8  __covrec_670FD0ADF37D7A4F                           
0001cce0  __covrec_51C74FFAA225D32A                           
0001cd08  __covrec_94FC025036BEDEC0                           
0001cd30  __covrec_60B6B884D1017516                           
0001cd58  __covrec_9592186C0C7D6FA5                           
0001cd80  __covrec_22F2AD01BBE54AC3                           
0001cda8  __covrec_6E1A44D3C8BC259D                           
0001cdd0  __covrec_DC679B92F1EE3E32                           
0001cdf8  __covrec_E1D05ED567AD88B3                           
0001ce20  __covrec_DAD4941A63D99853                           
0001ce48  __covrec_5AD07ACFA2247082                           
0001ce70  __covrec_325BB6249AC215ED                           
0001ce98  __covrec_72D21F5906349DB2                           
0001cec0  __covrec_D4D6FC7683C95E7A                           
0001cee8  __covrec_4920BE8E09645FFF                           
0001cf10  __covrec_8F284A69A811272                            
0001cf38  __covrec_AC6538EBC735DD0C                           
0001cf60  __covrec_79B455E75A91963                            
0001cf88  __covrec_8CCB7565812889A7                           
0001cfb0  __covrec_6EF8002856E4CBFC                           
0001cfd8  __covrec_DF83ECEE727A5DD6                           
0001d000  __covrec_B8DFCB0E91A6A538                           
0001d028  __covrec_2DA3C7F5F3A1833F                           
0001d050  __covrec_988A11D4D2F16FBF                           
0001d078  __covrec_9ED94584C2643908                           
0001d0a0  __covrec_6ADB0BC98E99DF0C                           
0001d0c8  __covrec_B9BBACA01A41B6C8                           
0001d0f0  __covrec_E2E834B6629CE320                           
0001d118  __covrec_8E12A2008EF3ABE8                           
0001d140  __covrec_67EBF9464B1739FF                           
0001d168  __covrec_7849C203D9D4558A                           
0001d190  __covrec_DE0C383DAC236695                           
0001d1b8  __covrec_FCA71EE4D37F88C6                           
0001d1e0  __covrec_656CD7E4E614AD16                           
0001d208  __covrec_E4BC5C1C9B522724                           
0001d230  __covrec_6BC92AC9CC41220E                           
0001d258  __covrec_73921255196ED739                           
0001d280  __covrec_55266747A4570DA1                           
0001d2a8  __covrec_947018608C3D9167                           
0001d2d0  __covrec_F9407E25A3F45B0C                           
0001d2f8  __covrec_969B534D19665BDF                           
0001d320  __covrec_8D824999EFBDB130                           
0001d348  __covrec_43CA149CDA99F19C                           
0001d370  __covrec_4EFB28BC93277616                           
0001d398  __covrec_479B15013490219A                           
0001d3c0  __covrec_9256D4F3A2C9619B                           
0001d3e8  __covrec_C9EA72700DD2DA54                           
0001d410  __covrec_1067EFD43AC4737C                           
0001d438  __covrec_BA25A56B15309134                           
0001d460  __covrec_616CE32FFC7272F1                           
0001d488  __covrec_A7E144897978C90C                           
0001d4b0  __covrec_5D2E7F106E151629                           
0001d4d8  __covrec_C1B2B1A0B6EC290F                           
0001d500  __covrec_17DAEC6AFA72F54C                           
0001d528  __covrec_A92884B33FF83C3F                           
0001d550  __covrec_D6CA4E27A30329FF                           
0001d578  __covrec_1740AFC189A8EDA2                           
0001d5a0  __covrec_A3F69F3D1A174B83                           
0001d5c8  __covrec_87F49CE40477D202                           
0001d5f0  __covrec_107B128032F6DB3F                           
0001d618  __covrec_C2BB13DE1AE343CB                           
0001d640  __covrec_1BD34071CFA619DA                           
0001d668  __covrec_F6E4D297C5804202                           
0001d690  __covrec_945ECCD4F2946F36                           
0001d6b8  __covrec_AA70E0B980B5AC70                           
0001d6e0  __covrec_D5424533F9D0A94B                           
0001d708  __covrec_F743C000ABE7980A                           
0001d730  __covrec_D1D10A4F101AAA4                            
0001d758  __covrec_4AF143174640E56D                           
0001d780  __covrec_A3E9BABFF30D1406                           
0001d7a8  __covrec_A232361CAB162550                           
0001d7d0  __covrec_F5B52FC120DCEFF6                           
0001d7f8  __covrec_751C6A39772D4981                           
0001d820  __covrec_24D4168F36768F8A                           
0001d848  __covrec_9AAB0F09D0C7B1A3                           
0001d870  __covrec_2E6EC07223ED40B7                           
0001d898  __covrec_C8BD44ABF6512FBA                           
0001d8c0  __covrec_716AB83B32900FE5                           
0001d8e8  __covrec_DE53C8C4FE5CC688                           
0001d910  __covrec_C284900A3BECEF9F                           
0001d938  __covrec_7DEA2A08886235ED                           
0001d960  __covrec_E5004354570D679                            
0001d988  __covrec_F623366B7B1875EF                           
0001d9b0  __covrec_24CD7D1265135F07                           
0001d9d8  __covrec_A2445591609CD347                           
0001da00  __covrec_63DD24C70A829FA0                           
0001da28  __covrec_F6F7419BF1DFF9CE                           
0001da50  __covrec_A525F0238C786183                           
0001da78  __covrec_FB7ED0D421C87335                           
0001daa0  __covrec_1EF1FB822FC56A69                           
0001dac8  __covrec_811ED8DACF2F0A4C                           
0001daf0  __covrec_1658A1CFEC8A9371                           
0001db18  __covrec_8589C79F6871C223                           
0001db40  __covrec_EB4E39EF1EA17CA5                           
0001db68  __covrec_8D9CC3D5970D5F2                            
0001db90  __covrec_EF506552D1D7BE22                           
0001dbb8  __covrec_2A1CAF1263274BD9                           
0001dbe0  __covrec_8A5792BFD162766B                           
0001dc08  __covrec_9071575618984415                           
0001dc30  __covrec_59674A5A4E18485A                           
0001dc58  __covrec_C15F2CF5A53F36D6                           
0001dc80  __covrec_161C5CCBB18E3472                           
0001dca8  __covrec_1796D1C61F0D17A8                           
0001dcd0  __covrec_30FFD4E1DBF1C36F                           
0001dcf8  __covrec_F06D606E3FF7FEB2                           
0001dd20  __covrec_6A1A64384C549626                           
0001dd48  __covrec_FE189E8205BFE13F                           
0001dd70  __covrec_AE75ACC2669723B3                           
0001dd98  __covrec_575DC9889DF6949E                           
0001ddc0  __covrec_A807F26F4DECD342                           
0001dde8  __covrec_AFF99C21C3C36C23                           
0001de10  __covrec_FFEA5922A8E15BB8                           
0001de38  __covrec_8863A4DB3AC090CF                           
0001de60  __covrec_C4CD8A127B42E748                           
0001de88  __covrec_8073F98D4C5CB220                           
0001deb0  __covrec_5E08C98A59626A7F                           
0001ded8  __covrec_A11EC3781DB0FEF3                           
0001df00  __covrec_70AB79C230504C55                           
0001df28  __covrec_74C599A820D7E755                           
0001df50  __covrec_F8915E7F9ECEA84A                           
0001df78  __covrec_9613F930BEF71DDD                           
0001dfa0  __covrec_E747975BDCB68B72                           
0001dfc8  __covrec_171317B20F4BC1DB                           
0001dff0  __covrec_CD4A8BBF42B93D9D                           
0001e018  __covrec_F6F0D555DD9571C2                           
0001e040  __covrec_A5A75A50A6681C5C                           
0001e068  __covrec_D7A5E186EC53EB7C                           
0001e090  __covrec_212223448B5B81B9                           
0001e0b8  __covrec_49B99623CFA970C2                           
0001e0e0  __covrec_90D55D76C1B40953                           
0001e108  __covrec_4718A562B567B04C                           
0001e130  __covrec_FE8AC5C2C53B8D86                           
0001e158  __covrec_45436CBF3A4CA093                           
0001e180  __covrec_861ECA2F7740943D                           
0001e1a8  __covrec_DAE8D5ADDB41B37                            
0001e1d0  __covrec_CCBC4573637DA55F                           
0001e1f8  __covrec_28CAF5403BA112D7                           
0001e220  __covrec_F10A23C35B517DD2                           
0001e248  __covrec_1607E55D10EC504D                           
0001e270  __covrec_7D68043D64CDCF90                           
0001e298  __covrec_69F779B385F91D45                           
0001e2c0  __covrec_9DA8AA09702AC6CE                           
0001e2e8  __covrec_6B1D995AB962F0B2                           
0001e310  __covrec_8AE8A728D35176EE                           
0001e338  __covrec_5BE8C1F5F9F49C79                           
0001e360  __covrec_FD7AD1BDA795009C                           
0001e388  __covrec_586FB34E967A1C01                           
0001e3b0  __covrec_A7B0855D94B2B621                           
0001e3d8  __covrec_299EDB45E19271B                            
0001e400  __covrec_80A20283D33EB74C                           
0001e428  __covrec_37E4676AA453B73A                           
0001e450  __covrec_CCE2B14552749412                           
0001e478  __covrec_91268A0619F1717E                           
0001e4a0  __covrec_E0DF7F5D25D80AD9                           
0001e4c8  __covrec_92053EA39EF00CBD                           
0001e4f0  __covrec_4EB0839C474D2F33                           
0001e518  __covrec_9DCFB323BA939264                           
0001e540  __covrec_3AFB7D729C4BABB0                           
0001e568  __covrec_746E139C881AA4DE                           
0001e590  __covrec_3DCF74A11C3A8FF3                           
0001e5b8  __covrec_81F4A0B0F22321B5                           
0001e5e0  __covrec_FFC75160907BE257                           
0001e608  __covrec_80FAC2C06823F74B                           
0001e630  __covrec_5CEF60968AFEBE0C                           
0001e658  __covrec_245EBA72A5A0F5EB                           
0001e680  __covrec_EB3CD7B477E32A81                           
0001e6a8  __covrec_C5BCF3911B560B66                           
0001e6d0  __covrec_7AF5297569FCAA08                           
0001e6f8  __covrec_E4B890F76048E996                           
0001e720  __covrec_55810F3EB635025A                           
0001e748  __covrec_1BFF9732B2DAF38C                           
0001e770  __covrec_671D097439EB28D6                           
0001e798  __covrec_9446C51CC8E8E80F                           
0001e7c0  __covrec_AABEAADEEB5F4E6E                           
0001e7e8  __covrec_3060B93F85E68B18                           
0001e810  __covrec_757DFFBA2ED8856A                           
0001e838  __covrec_5CA635E71B7D840A                           
0001e860  __covrec_5698EC3DDF5C0D44                           
0001e888  __covrec_7D4D287D0E89CC67                           
0001e8b0  __covrec_C6AB4526964850E8                           
0001e8d8  __covrec_E6A145D181120995                           
0001e900  __covrec_D959A60138CD433E                           
0001e928  __covrec_FA02E2CA7F81E3AF                           
0001e950  __covrec_39FF74C6619FBAEE                           
0001e978  __covrec_3DDAFC730FA6812                            
0001e9a0  __covrec_15B0477F91E5A15B                           
0001e9c8  __covrec_228B4DCEDE67C9E2                           
0001e9f0  __covrec_C360429D1CA00A11                           
0001ea18  __covrec_BA38EBDE4E634B4D                           
0001ea40  __covrec_C47257D07254FED2                           
0001ea68  __covrec_324DA2EC0B259559                           
0001ea90  __covrec_6DCA04C94E6C21D3                           
0001eab8  __covrec_BC100AC494729832                           
0001eae0  __covrec_A13F1F077C7FDC3                            
0001eb08  __covrec_37961B0C63A935F4                           
0001eb30  __covrec_BEEF592826313069                           
0001eb58  __covrec_639B738A714F9727                           
0001eb80  __covrec_6382BE4728128A7B                           
0001eba8  __covrec_DDF81D9F2B5DCDD2                           
0001ebd0  __covrec_2B3D97B203BD5320                           
0001ebf8  __covrec_430272C77074C92                            
0001ec20  __covrec_EAA690377138D9D7                           
0001ec48  __covrec_B1327D09E22FBFCD                           
0001ec70  __covrec_563C36D078652BFB                           
0001ec98  __covrec_1129F9D0907743CC                           
0001ecc0  __covrec_528F08850A5A6AA                            
0001ece8  __covrec_5425D9490B6AD1D3                           
0001ed10  __covrec_DA16BD1FEC470510                           
0001ed38  __covrec_967F9D7DA7B29977                           
0001ed60  __covrec_3443F015958810F5                           
0001ed88  __covrec_757BBA318B051CC4                           
0001edb0  __covrec_3E27CE08F0E438A7                           
0001edd8  __covrec_EA1E48C3488CC0E4                           
0001ee00  __covrec_564B00DAE5D93552                           
0001ee28  __covrec_EC1CAADB898CC6AE                           
0001ee50  __covrec_5683CC655E710871                           
0001ee78  __covrec_12B33D9FCAB5C7F6                           
0001eea0  __covrec_53A77370C248305E                           
0001eec8  __covrec_CA7C0417F799A12C                           
0001eef0  __covrec_BAC215A305CB6BB2                           
0001ef18  __covrec_D4074637B149442C                           
0001ef40  __covrec_746721CCAF0ACA8E                           
0001ef68  __covrec_D2934CB964BCC507                           
0001ef90  __covrec_F09CDBF34DB339AD                           
0001efb8  __covrec_BC5C2824B87BC903                           
0001efe0  __covrec_3C024D0166B213F1                           
0001f008  __covrec_7AC6F1147BA12A69                           
0001f030  __covrec_F317C3F6F2F95EE3                           
0001f058  __covrec_8B74CFDA35A78F8A                           
0001f080  __covrec_F01F43B2AB69C7                             
0001f0a8  __covrec_3E9B067C2AF7B980                           
0001f0d0  __covrec_132818003A70A7AF                           
0001f0f8  __covrec_321A183A8097BE95                           
0001f120  __covrec_729FBAB722BFBBA7                           
0001f148  __covrec_CF883BE42879D27C                           
0001f170  __covrec_12BA5CE176C32DDC                           
0001f198  __covrec_8C7B9AC84A1290D6                           
0001f1c0  __covrec_45E0153103EFF78C                           
0001f1e8  __covrec_A74A9BBECDE04B5E                           
0001f210  __covrec_FE7D9684EFE6977B                           
0001f238  __covrec_19B8727C1D4ABDAE                           
0001f260  __covrec_581FA69547FF1789                           
0001f288  __covrec_5D7FBF201AF53977                           
0001f2b0  __covrec_3440A467A910C969                           
0001f2d8  __covrec_4DC7EBBFBBF2C80C                           
0001f300  __covrec_DBE35451CF19422                            
0001f328  __covrec_B552D37472D35192                           
0001f350  __covrec_5A717D53595AA9DE                           
0001f378  __covrec_991F8D3FEEE781EF                           
0001f3a0  __covrec_C239BA51ED9EC8C                            
0001f3c8  __covrec_822640F61646CC5D                           
0001f3f0  __covrec_F0CF892F63A7F7F2                           
0001f418  __covrec_98E619A5BCB11368                           
0001f440  __covrec_35A409F0E6C93C4C                           
0001f468  __covrec_87B54D9AAE31261B                           
0001f490  __covrec_AAEDD5461DEC88D2                           
0001f4b8  __covrec_AC9CB004A666D213                           
0001f4e0  __covrec_BEF4D4CCDE60C523                           
0001f508  __covrec_CB6A11825FEC0147                           
0001f530  __covrec_96777DB40E8EF14                            
0001f558  __covrec_DF80A5B790AC171A                           
0001f580  __covrec_2AFC953AB3BFA4B3                           
0001f5a8  __covrec_A6927DC5BF881DDC                           
0001f5d0  __covrec_4C2163C5B5E62E0A                           
0001f5f8  __covrec_497DA2F3E5D93472                           
0001f620  __covrec_18C7DFC85F74DF88                           
0001f648  __covrec_1E5D0BA266A05409                           
0001f670  __covrec_A2C00EFD24BAB1B8                           
0001f698  __covrec_430FD1DD48650ACE                           
0001f6c0  __covrec_66203DD865386CF4                           
0001f6e8  __covrec_34960821BB303171                           
0001f710  __covrec_2175477B7920D59E                           
0001f738  __covrec_1FC1559D82C02D42                           
0001f760  __covrec_9384DA28BA881739                           
0001f788  __covrec_58550788DEC90388                           
0001f7b0  __covrec_E788ABFEAD96B1B3                           
0001f7d8  __covrec_B055CE97798BAEE5                           
0001f800  __covrec_EF06C3EF94148348                           
0001f828  __covrec_119935E492C58911                           
0001f850  __covrec_CCFBAF14A6C959A5                           
0001f878  __covrec_FED7286FD0A0846C                           
0001f8a0  __covrec_9D65C69103DC9EE1                           
0001f8c8  __covrec_F3809CC4BFBFDA24                           
0001f8f0  __covrec_BA37DB786B6EA1B4                           
0001f918  __covrec_51997A82F632E9B6                           
0001f940  __covrec_9B5D5C9A185C05A3                           
0001f968  __covrec_BBCC8B4742E2744A                           
0001f990  __covrec_600D5DFBC7E8E0D1                           
0001f9b8  __covrec_9F3C201AFBFC7771                           
0001f9e0  __covrec_38889281C354E797                           
0001fa08  __covrec_8E0D2AC8B7B51C20                           
0001fa30  __covrec_17309D8202C86DB3                           
0001fa58  __covrec_EDFD3659CF8A198E                           
0001fa80  __covrec_A55C214A5FC44544                           
0001faa8  __covrec_B6061734BA369469                           
0001fad0  __covrec_1DBD55CB071CE798                           
0001faf8  __covrec_31384D9C1FCD85B5                           
0001fb20  __covrec_65091D5E19CE7236                           
0001fb48  __covrec_8334D045F180AF32                           
0001fb70  __covrec_C29C540C64A8C99C                           
0001fb98  __covrec_89A03468FB70BAED                           
0001fbc0  __covrec_817DA88F4397C3F0                           
0001fbe8  __covrec_988B02AB6E77D263                           
0001fc10  __covrec_81D9214AFD4BDAC9                           
0001fc38  __covrec_C307A6F1EDD2DFB6                           
0001fc60  __covrec_48CBB17F0CCCA98C                           
0001fc88  __covrec_7BF25F52501F5463                           
0001fcb0  __covrec_D22CAAC6655B0C37                           
0001fcd8  __covrec_914E974F02E5E35B                           
0001fd00  __covrec_FC508B703A037D2C                           
0001fd28  __covrec_1EB10222D35B87B9                           
0001fd50  __covrec_D28992F781DD20D5                           
0001fd78  __covrec_80440FC7E70A608E                           
0001fda0  __covrec_328C937DCC0945C6                           
0001fdc8  __covrec_D67633C8BBEFBD55                           
0001fdf0  __covrec_117A6AE779833FFF                           
0001fe18  __covrec_763DF4557E4E5E72                           
0001fe40  __covrec_485836BA7ADA70E7                           
0001fe68  __covrec_AC68201571F3FB9B                           
0001fe90  __covrec_5DB286C142F2FC00                           
0001feb8  __covrec_E176DE7F78C356A8                           
0001fee0  __covrec_2D7A7904D991C2E0                           
0001ff08  __covrec_3D01C64E096BB6C9                           
0001ff30  __covrec_46EDE5804B593543                           
0001ff58  __covrec_6204ED5D4EDC7D02                           
0001ff80  __covrec_475CA32B2C2CE266                           
0001ffa8  __covrec_5693A03265561EA1                           
0001ffd0  __covrec_78BBAA4C0B416C21                           
0001fff8  __covrec_EDB3AA564B5BB202                           
00020020  __covrec_754FB894AEB3A2B4                           
00020048  __covrec_15699B8DF7CF109F                           
00020070  __covrec_C4BF6877E3DA2AE6                           
00020098  __covrec_216718CA83AD3AF2                           
000200c0  __covrec_AD93EC839DDCEE0E                           
000200e8  __covrec_5792CDB37B0EB554                           
00020110  __covrec_31DC7ECBF26839AC                           
00020138  __covrec_B1EB7085F74D8687                           
00020160  __covrec_B68CBA3DB0144E60                           
00020188  __covrec_F84035B684B27B21                           
000201b0  __covrec_2DDC7AACECA4585A                           
000201d8  __covrec_331B394963683510                           
00020200  __covrec_1179DC1F40DF19BB                           
00020228  __covrec_AF320D236265B896                           
00020250  __covrec_21D48F08684C7774                           
00020278  __covrec_B3657841B1675CD2                           
000202a0  __covrec_F1D5AE02B00D28                             
000202c8  __covrec_8DFE773213DB51DE                           
000202f0  __covrec_CA537B5FD783D60B                           
00020318  __covrec_2046BE57FB3E054C                           
00020340  __covrec_E248C48590FF7B21                           
00020368  __covrec_D3387D696F34035B                           
00020390  __covrec_61DF9CC8984FB629                           
000203b8  __covrec_9DBD17518F4E29C3                           
000203e0  __covrec_40D646295DAC752                            
00020408  __covrec_1E967D82AE57104C                           
00020430  __covrec_C4BFDCB78073AB38                           
00020458  __covrec_65452D93FF7AE6CE                           
00020480  __covrec_E8D50A624AF1499A                           
000204a8  __covrec_5DF83C55D6E82DD6                           
000204d0  __covrec_79B4F91832129CA6                           
000204f8  __covrec_FB615516353485F1                           
00020520  __covrec_30B5CF75E7DDB3BE                           
00020548  __covrec_3CD7868FF6D37CF3                           
00020570  __covrec_DF19DB5FF8AA4536                           
00020598  __covrec_45806013A668158C                           
000205c0  __covrec_B6F3E3BAD089DBAE                           
000205e8  __covrec_623CC9784B4121C1                           
00020610  __covrec_75FF3BCF01AD1DCE                           
00020638  __covrec_1CD6F65EDB220D52                           
00020660  __covrec_E468212A7A4C64E3                           
00020688  __covrec_633024824CBAEE71                           
000206b0  __covrec_D023413EC1FF36D0                           
000206d8  __covrec_4013210C481D0A23                           
00020700  __covrec_AAEED63D1029DA46                           
00020728  __covrec_905E63600D3955D3                           
00020750  __covrec_8E0C3A5E8D1D8B34                           
00020778  __covrec_780EF97DE54A250A                           
000207a0  __covrec_932E0709331E6B6B                           
000207c8  __covrec_10824BD04F6231E0                           
000207f0  __covrec_A7B287DE04B3E03                            
00020818  __covrec_3AA23B4CA70BF4D8                           
00020840  __covrec_14FA4B69117446C1                           
00020868  __covrec_6E5290F4B1AC7C97                           
00020890  __covrec_14FF88AAFCD7D57D                           
000208b8  __covrec_397D89BAB9602260                           
000208e0  __covrec_ECF40B9B8A4306F9                           
00020908  __covrec_F35691FD0BB8A7B8                           
00020930  __covrec_91246371028CE229                           
00020958  __covrec_AFEBE9C6828061A1                           
00020980  __covrec_99389F241C65C1B8                           
000209a8  __covrec_B44AEF7925B0EBA                            
000209d0  __covrec_B967147E74E51FAD                           
000209f8  __covrec_94630ABCD1F71558                           
00020a20  __covrec_1D69454E4585F9FA                           
00020a48  __covrec_3AC1DBF81307EA6C                           
00020a70  __covrec_5775237149682687                           
00020a98  __covrec_69C2D9C3FFABDF1E                           
00020ac0  __covrec_1EE4D15989A2B4E4                           
00020ae8  __covrec_4E427332E8382E46                           
00020b10  __covrec_D5409A4D6856EF55                           
00020b38  __covrec_90DCF7F79E49CAAC                           
00020b60  __covrec_E82325860AD548EB                           
00020b88  __covrec_84D04A2932D868E1                           
00020bb0  __covrec_B05388EBD8752329                           
00020bd8  __covrec_C81DAEE90F8696CC                           
00020c00  __covrec_7F39F8D4F7AA2194                           
00020c28  __covrec_6F902A328862CA3C                           
00020c50  __covrec_A509FC975E3FE1D                            
00020c78  __covrec_6FC781AA1F8A0AF6                           
00020ca0  __covrec_601D8438B0B370FE                           
00020cc8  __covrec_E6EDFEBC4DC305A2                           
00020cf0  __covrec_DB846B1F611511E2                           
00020d18  __covrec_F0C5C704EF22E445                           
00020d40  __covrec_8D95D35639606030                           
00020d68  __covrec_77AFE7D5BE45A231                           
00020d90  __covrec_50F46F04ABA816B1                           
00020db8  __covrec_8F001A8FBE0D0EA1                           
00020de0  __covrec_D7D2A99D60ACB32C                           
00020e08  __covrec_F5F30506630A8A6A                           
00020e30  __covrec_4E1DBE19647923AA                           
00020e58  __covrec_E253D24803A745F8                           
00020e80  __covrec_811F42F540BF9F2A                           
00020ea8  __covrec_6442263EB4C4ECE0                           
00020ed0  __covrec_347833257255D714                           
00020ef8  __covrec_F7136B9270F615B7                           
00020f20  __covrec_832A43C86DB40C1D                           
00020f48  __covrec_E9F6566CE2924DCD                           
00020f70  __covrec_AA329F79BA5D4AEB                           
00020f98  __covrec_7CE52103876A38E8                           
00020fc0  __covrec_E85C8D29E7F6CB1F                           
00020fe8  __covrec_DC69E42406D125B8                           
00021010  __covrec_3BF2B88451504C58                           
00021038  __covrec_84B49415AF1868AF                           
00021060  __covrec_965CD31C1298714E                           
00021088  __covrec_ECC1E88C41748830                           
000210b0  __covrec_D2A160C7D91897                             
000210d8  __covrec_CDBCE9076F882CD6                           
00021100  __covrec_9C7E4780112F9DD4                           
00021128  __covrec_82FF712195CADFA0                           
00021150  __covrec_31723A59EE01CB6F                           
00021178  __covrec_9F2BD20A1D192943                           
000211a0  __covrec_E7450405C7F6F39C                           
000211c8  __covrec_FA3CF57E57B39F53                           
000211f0  __covrec_DBC4F0F97B3DA53C                           
00021218  __covrec_E893E960D0B12CDC                           
00021240  __covrec_74AD938A5BA92A7E                           
00021268  __covrec_AFDAEBE1B0D952AD                           
00021290  __covrec_C73A30597B6CE2DC                           
000212b8  __covrec_F277D89E3DFFF5DD                           
000212e0  __covrec_7AA1C05CED579EC5                           
00021308  __covrec_14C7D3D01E57A504                           
00021330  __covrec_B179A17659FF2C11                           
00021358  __covrec_EDA7DA81A150E038                           
00021380  __covrec_9517842FD8D805A0                           
000213a8  __covrec_710DEE95B1A70540                           
000213d0  __covrec_DA9A9D536ADFC90B                           
000213f8  __covrec_6314EB5485BC7F25                           
00021420  __covrec_7DA2BD1290B5E601                           
00021448  __covrec_DC0FA30D02EF7B58                           
00021470  __covrec_B978B224B473938F                           
00021498  __covrec_343940E2870E9B0E                           
000214c0  __covrec_7A067878B7FDE586                           
000214e8  __covrec_EDDEF903D67BFC06                           
00021510  __covrec_3F79BDA4008A8933                           
00021538  __covrec_3B24D5353F7BB6D1                           
00021560  __covrec_6AEE3ED1AB86CC6C                           
00021588  __covrec_6F20C2D7023DB8E8                           
000215b0  __covrec_D2007C2CBD0F9E4D                           
000215d8  __covrec_4698FA8E637FED05                           
00021600  __covrec_30FFBF09B05F3927                           
00021628  __covrec_DF36CD3867E449BC                           
00021650  __covrec_8EB22456CBE7DB26                           
00021678  __covrec_D6089EA6A03C1DFE                           
000216a0  __covrec_50652C5F2DE678E3                           
000216c8  __covrec_B09F79FD8EF659EE                           
000216f0  __covrec_B78EF92F49E0058B                           
00021718  __covrec_2D1E6856B3061151                           
00021740  __covrec_19E75B9307F97AB0                           
00021768  __covrec_A90175A665803D3A                           
00021790  __covrec_EBCEB31F8A3D685C                           
000217b8  __covrec_78F30011E96A5C42                           
000217e0  __covrec_81785CEA135AD10E                           
00021808  __covrec_D13B5C531F5197CD                           
00021830  __covrec_9C873B56BD4E64FA                           
00021858  __covrec_FDC1FA3BFCE27CA3                           
00021880  __covrec_E77647DCFED80E9                            
000218a8  __covrec_E9D0B9A106B570B2                           
000218d0  __covrec_CB3C47A7D249D04                            
000218f8  __covrec_935E5F4BC12023D3                           
00021920  __covrec_44B12D8825409BC2                           
00021948  __covrec_1AFE6ECE1BD6F5C2                           
00021970  __covrec_B1652563AEC5544B                           
00021998  __covrec_4B154ED39D9AF395                           
000219c0  __covrec_C2BBD9F4FD1A81B5                           
000219e8  __covrec_84B2FD790164F848                           
00021a10  __covrec_69DE4DF1890DADB7                           
00021a38  __covrec_F7F273F985C06D9C                           
00021a60  __covrec_C17285F0F24EF078                           
00021a88  __covrec_3B4669D912F6CCFB                           
00021ab0  __covrec_597B766BDF97E9A4                           
00021ad8  __covrec_7EF36698A1E34789                           
00021b00  __covrec_F6B56496C33FA558                           
00021b28  __covrec_41D355DEE93F316                            
00021b50  __covrec_FC6C86B71CC34A40                           
00021b78  __covrec_30A6073BD61E816A                           
00021ba0  __covrec_5406CB2E1C44728                            
00021bc8  __covrec_FFA0CFE7D81EDE77                           
00021bf0  __covrec_D57E84B1A2601E15                           
00021c18  __covrec_E8236E0C4E17C5AD                           
00021c40  __covrec_69DE16BA85A71611                           
00021c68  __covrec_780F2DA8DE31FC9E                           
00021c90  __covrec_786C1CC0E1F24C6C                           
00021cb8  __covrec_E4A1E387ECAC3A2D                           
00021ce0  __covrec_9ECBD043067646A3                           
00021d08  __covrec_74794AE17B5C57B9                           
00021d30  __covrec_7139FD0F045F9185                           
00021d58  __covrec_2D8A3E6347FF950C                           
00021d80  __covrec_19F06ABB5A28AA72                           
00021da8  __covrec_5F86F943AF231A95                           
00021dd0  __covrec_9CDCF4ABBCDB66CE                           
00021df8  __covrec_B03F31128199A7A5                           
00021e20  __covrec_8EA5F89D745F0C6A                           
00021e48  __covrec_6F0FAD3458A6C65F                           
00021e70  __covrec_5FF2A874BA51D671                           
00021e98  __covrec_6EBA548D6F415BA1                           
00021ec0  __covrec_16BDE21014ED2C1                            
00021ee8  __covrec_F1CA3058F4C0F3B1                           
00021f10  __covrec_10DD02304F236F5B                           
00021f38  __covrec_F83A171A8DE1F8B3                           
00021f60  __covrec_9971090978BE6753                           
00021f88  __covrec_C78B4A6A98D02577                           
00021fb0  __covrec_5AD6145C62BED28F                           
00021fd8  __covrec_1EC243A73359BD5F                           
00022000  __covrec_42C38FC99BBB9DEE                           
00022028  __covrec_9FD435B6EDB75583                           
00022050  __covrec_EEC19C275E247D9D                           
00022078  __covrec_8BDFCF1999B7FA38                           
000220a0  __covrec_FCB920B883F15C5B                           
000220c8  __covrec_2DECA8561F707322                           
000220f0  __covrec_42B1FA5D2A28E44C                           
00022118  __covrec_E54F38072A567845                           
00022140  __covrec_73735C19FACE89E4                           
00022168  __covrec_6313EF3067172709                           
00022190  __covrec_BF4EA921547B71EE                           
000221b8  __covrec_DF9BB6D34120A97B                           
000221e0  __covrec_7B424DF0B25FFF2D                           
00022208  __covrec_48BFA1C093CFE041                           
00022230  __covrec_3F5C1E56D1753C63                           
00022258  __covrec_3F515E8DEDCFDB3C                           
00022280  __covrec_EA2B3784EFBDE16B                           
000222a8  __covrec_1F54DD07CE6E3CC3                           
000222d0  __covrec_F8E27A2D33292F4B                           
000222f8  __covrec_A926C2DA317B08A4                           
00022320  __covrec_6732255AC3A1FA23                           
00022348  __covrec_E58267904E30DEFA                           
00022370  __covrec_26F7BD59BDABA46                            
00022398  __covrec_986C114E42E8D05C                           
000223c0  __covrec_4FC04B3E518F0361                           
000223e8  __covrec_FB10B5C5DB7D0EAB                           
00022410  __covrec_1D03C489628EC74D                           
00022438  __covrec_18ABC13FAC28025C                           
00022460  __covrec_E672E4C139CF37B5                           
00022488  __covrec_80FD584348984E04                           
000224b0  __covrec_7F52CB605BDD2FE                            
000224d8  __covrec_8DCACE79A3C220A9                           
00022500  __covrec_D706DB4BB573BB3D                           
00022528  __covrec_B3659197FDC20C4B                           
00022550  __covrec_F99B5A9295D4E4A4                           
00022578  __covrec_9C5548CB9C402249                           
000225a0  __covrec_60BB75E91683A620                           
000225c8  __covrec_3DBD25D85CE95350                           
000225f0  __covrec_A012943D946C7220                           
00022618  __covrec_3F10DB2D12771804                           
00022640  __covrec_A01FF74824829A64                           
00022668  __covrec_90CD5B778C8D157F                           
00022690  __covrec_CD770DF23638413B                           
000226b8  __covrec_4A70D883AED610D6                           
000226e0  __covrec_4CF1F17A7E634135                           
00022708  __covrec_C1B12A6B3A138DC9                           
00022730  __covrec_ED88A247DEB1B920                           
00022758  __covrec_F6C47C4FF9C0768B                           
00022780  __covrec_CB3FF3F526A2F00C                           
000227a8  __covrec_16674943AE982D61                           
000227d0  __covrec_D3E0CC8EE8B7B5EB                           
000227f8  __covrec_8A28EF8B3F240F7D                           
00022820  __covrec_BCE304DA2995D59D                           
00022848  __covrec_54DEC94B3D73D88D                           
00022870  __covrec_E6E84AC0AB1FA6F                            
00022898  __covrec_3CCD0FBCDE385140                           
000228c0  __covrec_5A37A076E8C9BBDA                           
000228e8  __covrec_67B70B543A763C65                           
00022910  __covrec_E4EE63A78EBD9E96                           
00022938  __covrec_3EEF78312BD96C34                           
00022960  __covrec_30F8FDE14BEBA5C3                           
00022988  __covrec_7D622BAF5C1DD492                           
000229b0  __covrec_825BEE18E61FC99A                           
000229d8  __covrec_9BDFC8677807B4A8                           
00022a00  __covrec_64AAD3E48D70B9                             
00022a28  __covrec_7549A71CC7241F46                           
00022a50  __covrec_D3BD8053F86E41DE                           
00022a78  __covrec_E8750E338B985971                           
00022aa0  __covrec_B3A396CC62A90D9D                           
00022ac8  __covrec_3B8712F8CC28A7DB                           
00022af0  __covrec_9B8C2CA9195D8A89                           
00022b18  __covrec_F7CCB73360C44C19                           
00022b40  __covrec_C4B01E72A10B79FE                           
00022b68  __covrec_4726466DEFBBB981                           
00022b90  __covrec_201277E0AA6EE9F3                           
00022bb8  __covrec_845FD839DBC7C1AF                           
00022be0  __covrec_608E1EBDE4771F04                           
00022c08  __covrec_BE9D5D41A4A00A13                           
00022c30  __covrec_CC6EB3AA84257997                           
00022c58  __covrec_8B753A5C478F8754                           
00022c80  __covrec_23BA94AFA28E8B44                           
00022ca8  __covrec_B924B179892F5543                           
00022cd0  __covrec_150B89D347BC7E6E                           
00022cf8  __covrec_7E8D5D9947CB4DEB                           
00022d20  __covrec_EFE4358F82272623                           
00022d48  __covrec_AFB7312F1F304372                           
00022d70  __covrec_2F22268672A76EE3                           
00022d98  __covrec_D07EA17EA69B8479                           
00022dc0  __covrec_2EB222C72903A525                           
00022de8  __covrec_18AC38AE70A94599                           
00022e10  __covrec_A72580571A0F056D                           
00022e38  __covrec_986BD29BFA975C74                           
00022e60  __covrec_D6A18F6B0143D735                           
00022e88  __covrec_35368D2270EB9D54                           
00022eb0  __covrec_AFFEE0267C35E1C9                           
00022ed8  __covrec_5B2EF3F713A9AD4C                           
00022f00  __covrec_26BDD9085FF96DA5                           
00022f28  __covrec_1540C2C144B9922B                           
00022f50  __covrec_DACD33E1AF0DED55                           
00022f78  __covrec_F9263E8B0B2360BF                           
00022fa0  __covrec_22E2236BC99304F9                           
00022fc8  __covrec_922DA92A28304F0F                           
00022ff0  __covrec_ABBB0DCCFB7B4AA9                           
00023018  __covrec_3E9B0EF1AFDE6C23                           
00023040  __covrec_D19EE980B71AEC43                           
00023068  __covrec_4F1EDF961F9F9089                           
00023090  __covrec_993A6E8B0790B7DA                           
000230b8  __covrec_BD68002B29E6FA                             
000230e0  __covrec_609D0681607B0888                           
00023108  __covrec_6858C8E5B39CEB34                           
00023130  __covrec_CB298777B5BBC7AD                           
00023158  __covrec_753AC122F5322A9A                           
00023180  __covrec_1ED2390858C3EB64                           
000231a8  __covrec_617E8FCBAE7597D0                           
000231d0  __covrec_6884C285E245124A                           
000231f8  __covrec_F5013732295CEBE5                           
00023220  __covrec_BEB1D8468371349B                           
00023248  __covrec_DDCA764F6F979673                           
00023270  __covrec_EFD1C49295F7E42E                           
00023298  __covrec_2A658EA1206C62D6                           
000232c0  __covrec_B451A5983A07C08F                           
000232e8  __covrec_303E360AA0461E56                           
00023310  __covrec_EB81A68135E0DDA4                           
00023338  __covrec_75B4464203626D69                           
00023360  __covrec_96FA237B6317939A                           
00023388  __covrec_589F986B7592F53B                           
000233b0  __covrec_3E1A6E5850148636                           
000233d8  __covrec_695B846627E823D1                           
00023400  __covrec_9BF50A7EEF665123                           
00023428  __covrec_81F37EBCBF637F88                           
00023450  __covrec_D7386B0EE8FE1AA8                           
00023478  __covrec_88D20376481FF100                           
000234a0  __covrec_F88B33E70F89E09                            
000234c8  __covrec_13672E230F457DC9                           
000234f0  __covrec_2C177686F2932C2C                           
00023518  __covrec_E7F6FCCA4F212604                           
00023540  __covrec_BAE55637B2915732                           
00023568  __covrec_916FF1DCA6C18374                           
00023590  __covrec_25D863D26F29F221                           
000235b8  __covrec_7A0EA898D56D0CFC                           
000235e0  __covrec_39B0DFCD7DF2AB37                           
00023608  __covrec_3DE34E8EF07EF7FD                           
00023630  __covrec_5EA71F0DEB9B9AE1                           
00023658  __covrec_A8498A117B23AFC8                           
00023680  __covrec_D66F26331EE7175B                           
000236a8  __covrec_68010FB294048503                           
000236d0  __covrec_8B9A3DF1DFB13D5                            
000236f8  __covrec_2D4D821B616E6924                           
00023720  __covrec_6352F0854902E882                           
00023748  __covrec_30C72D90FAAB52FA                           
00023770  __covrec_11548A0C371099D9                           
00023798  __covrec_405D48D0FC02CE4                            
000237c0  __covrec_5AA4C50A3572C884                           
000237e8  __covrec_3BEEED776316E3D8                           
00023810  __covrec_A43679B7CAE7663                            
00023838  __covrec_8D90CBB889ED1FE5                           
00023860  __covrec_784B640CB8E108BA                           
00023888  __covrec_F7E26B3CC76FBD79                           
000238b0  __covrec_1A0F7EC2AC44F654                           
000238d8  __covrec_2D723378264E6A7                            
00023900  __covrec_307BB5214E98EBCB                           
00023928  __covrec_DFFFDF448C6D309                            
00023950  __covrec_31DC30DDC7036A3C                           
00023978  __covrec_C7D3229704260BFE                           
000239a0  __covrec_B9C3540C3AC1D54F                           
000239c8  __covrec_FFDBAA12E3B6E83D                           
000239f0  __covrec_E7095CEEB5EADC68                           
00023a18  __covrec_FB989D4CBC1E077                            
00023a40  __covrec_278B19F5D60C3947                           
00023a68  __covrec_A085E9CD601672CE                           
00023a90  __covrec_8D541966D9D56E19                           
00023ab8  __covrec_A820663F94339109                           
00023ae0  __covrec_29FD4C6F37BB673F                           
00023b08  __covrec_87AAEC4718B9F8AC                           
00023b30  __covrec_A3C077298A1EE38                            
00023b58  __covrec_AA52FE737418A4EA                           
00023b80  __covrec_F04D21C3157E4AF3                           
00023ba8  __covrec_C7C205F37933D1CA                           
00023bd0  __covrec_67F0E0E2F00783DA                           
00023bf8  __covrec_CFCCF873B7181C91                           
00023c20  __covrec_99409FA97391397F                           
00023c48  __covrec_AB2A380F7C8F9FB2                           
00023c70  __covrec_A0DBB38BB4760AA5                           
00023c98  __covrec_7C742A04106EA598                           
00023cc0  __covrec_30E2ED287923C2A1                           
00023ce8  __covrec_3AAA503472040552                           
00023d10  __covrec_CD5C2F4CD8490DB3                           
00023d38  __covrec_5FAB5DB66DF3F6B1                           
00023d60  __covrec_A9C700E1C71561D6                           
00023d88  __covrec_9C82DD3C630C958E                           
00023db0  __covrec_C617E7C9DBB1B5DC                           
00023dd8  __covrec_6230355C4154A2EB                           
00023e00  __covrec_157321A8C10AC04E                           
00023e28  __covrec_80F12DDB53016D40                           
00023e50  __covrec_7149D062015CF471                           
00023e78  __covrec_FEEDC4A55B8BFBDD                           
00023ea0  __covrec_DEE1C41A02EED5C4                           
00023ec8  __covrec_A52E9CCCE269F017                           
00023ef0  __covrec_59F98C605AC61246                           
00023f18  __covrec_ADE3F00B66E34EBB                           
00023f40  __covrec_F977D804E2DE5C3E                           
00023f68  __covrec_2D2B2BAF1BAC8BDA                           
00023f90  __covrec_1A4544BED21CEB2C                           
00023fb8  __covrec_5F9688E4D5455A4F                           
00023fe0  __covrec_DFE73B7B1021BC7A                           
00024008  __covrec_1CABCD001BB8A2D4                           
00024030  __covrec_BE4C15D3B32B067C                           
00024058  __covrec_FD9DA43F75BC40F9                           
00024080  __covrec_A867A2AB552AD431                           
000240a8  __covrec_AA40C52F613ED07F                           
000240d0  __covrec_A18395C77B6C122B                           
000240f8  __covrec_80A470E2383756C7                           
00024120  __covrec_41297A6DA905A84F                           
00024148  __covrec_134F21299CF91075                           
00024170  __covrec_871145ED86CD1F0                            
00024198  __covrec_BE385D0749AA9AC6                           
000241c0  __covrec_5B3116183A6F0466                           
000241e8  __covrec_D4626EC386D868E0                           
00024210  __covrec_731B204584E19236                           
00024238  __covrec_13941B1E936B73E2                           
00024260  __covrec_9D8BCDECE7C49ABE                           
00024288  __covrec_4DAE465C3086FC76                           
000242b0  __covrec_2A91C3E5F45518F9                           
000242d8  __covrec_11F13472B68456                             
00024300  __covrec_7B0291F67719FE1E                           
00024328  __covrec_6822925391E24728                           
00024350  __covrec_9BE0DEA223C84842                           
00024378  __covrec_A974A80756D49DB9                           
000243a0  __covrec_E1A5B2CA3303A7AC                           
000243c8  __covrec_CECC738F131939BC                           
000243f0  __covrec_2548E4241C41D4AC                           
00024418  __covrec_D586C93DA51AE2EF                           
00024440  __covrec_9D7FE2815054410B                           
00024468  __covrec_BF0525D0545F407D                           
00024490  __covrec_CED9A24C87C67E33                           
000244b8  __covrec_BBC1B71FF0D6E9B7                           
000244e0  __covrec_E66B7ADE829927E1                           
00024508  __covrec_CCA1F12623A87E34                           
00024530  __covrec_693DE5C38757BCA9                           
00024558  __covrec_276B3C7F132E7949                           
00024580  __covrec_A359454EB6553D3C                           
000245a8  __covrec_AC331E4603C5064F                           
000245d0  __covrec_6B6CF2E8B51150E7                           
000245f8  __covrec_FC4C0F69166A5CA                            
00024620  __covrec_9988F745693DE43F                           
00024648  __covrec_F2FDFE424BC57950                           
00024670  __covrec_D946AFFF68D80E46                           
00024698  __covrec_77E8D9E82E558C56                           
000246c0  __covrec_E6BC0395B465B060                           
000246e8  __covrec_B5717455E0C92E77                           
00024710  __covrec_7BCD1EAB9F4C3537                           
00024738  __covrec_4636F542C7B57A00                           
00024760  __covrec_7D40DEB2329FBEA7                           
00024788  __covrec_812471B10D40FFA1                           
000247b0  __covrec_8348022D202C8AC0                           
000247d8  __covrec_CDBEC65CA76225B3                           
00024800  __covrec_74886A0737907A5C                           
00024828  __covrec_676F8970FE61FFB9                           
00024850  __covrec_4436F28390350551                           
00024878  __covrec_346C6355D054AFA7                           
000248a0  __covrec_222CA9EC1B745CD9                           
000248c8  __covrec_C37F4325D39AA6F4                           
000248f0  __covrec_AD1A311A8594BE7E                           
00024918  __covrec_C1879FA7C346EBC                            
00024940  __covrec_749663B955003AA6                           
00024968  __covrec_D65B84EB5603889D                           
00024990  __covrec_A3B838279DB1FA53                           
000249b8  __covrec_15D8AD984765CE7C                           
000249e0  __covrec_12B18424C859DF9D                           
00024a08  __covrec_913EA166209F947B                           
00024a30  __covrec_1759666B8765F80D                           
00024a58  __covrec_3218CEAEDF4FBA00                           
00024a80  __covrec_1BEE14838B08B7EA                           
00024aa8  __covrec_60E17CA99ACCDE1D                           
00024ad0  __covrec_9C1F00C8590A33A7                           
00024af8  __covrec_E3820D34BA47BB77                           
00024b20  __covrec_F442D8DCEFB37265                           
00024b48  __covrec_63D8F0E07CCD453E                           
00024b70  __covrec_87407FA9A44A40A2u                          
00024ba0  __covrec_708B7A7D79BBA6F8u                          
10000000  interruptVectors                                    
10000121  SYSCFG_DL_initPower                                 
100001e1  memcpy                                              
1000027d  main                                                
100002f9  SYSCFG_DL_GPIO_init                                 
10000373  SYSCFG_DL_SYSCTL_init                               
100003e9  __TI_decompress_lzss                                
1000045d  __TI_auto_init_nobinit_nopinit                      
10000495  SYSCFG_DL_init                                      
100004bd  _c_int00_noargs                                     
100004e1  Reset_Handler                                       
100004fd  ADC0_DCOMP_IRQHandler                               
100004fd  ADC0_SEQ0_IRQHandler                                
100004fd  ADC0_SEQ1_IRQHandler                                
100004fd  ADC0_SEQ2_IRQHandler                                
100004fd  ADC0_SEQ3_IRQHandler                                
100004fd  ADC1_DCOMP_IRQHandler                               
100004fd  ADC1_SEQ0_IRQHandler                                
100004fd  ADC1_SEQ1_IRQHandler                                
100004fd  ADC1_SEQ2_IRQHandler                                
100004fd  ADC1_SEQ3_IRQHandler                                
100004fd  AESADVHP_IRQHandler                                 
100004fd  CANFD0_IRQHandler                                   
100004fd  CANFD1_IRQHandler                                   
100004fd  COMP0_IRQHandler                                    
100004fd  COMP1_IRQHandler                                    
100004fd  DEBUGSS_IRQHandler                                  
100004fd  DMA0_IRQHandler                                     
100004fd  DMA1_IRQHandler                                     
100004fd  Default_Handler                                     
100004fd  FLASHCTL_IRQHandler                                 
100004fd  GPIOA_IRQHandler                                    
100004fd  GPIOB_IRQHandler                                    
100004fd  GPIOC_IRQHandler                                    
100004fd  HardFault_Handler                                   
100004fd  I2S0_IRQHandler                                     
100004fd  I2S1_IRQHandler                                     
100004fd  LFSS_IRQHandler                                     
100004fd  NMI_Handler                                         
100004fd  PKA_IRQHandler                                      
100004fd  PendSV_Handler                                      
100004fd  QSPI_IRQHandler                                     
100004fd  SHAW_IRQHandler                                     
100004fd  SVC_Handler                                         
100004fd  SYSCTL_IRQHandler                                   
100004fd  SysTick_Handler                                     
100004fd  TIMA0_0_IRQHandler                                  
100004fd  TIMA0_1_IRQHandler                                  
100004fd  TIMG12_0_IRQHandler                                 
100004fd  TIMG4_0_IRQHandler                                  
100004fd  TIMG4_1_IRQHandler                                  
100004fd  TIMG4_2_IRQHandler                                  
100004fd  TIMG4_3_IRQHandler                                  
100004fd  TIMG8_0_IRQHandler                                  
100004fd  TIMG8_1_IRQHandler                                  
100004fd  TRNG_IRQHandler                                     
100004fd  UC0_IRQHandler                                      
100004fd  UC10_IRQHandler                                     
100004fd  UC1_IRQHandler                                      
100004fd  UC2_IRQHandler                                      
100004fd  UC3_IRQHandler                                      
100004fd  UC4_IRQHandler                                      
100004fd  UC5_IRQHandler                                      
100004fd  UC6_IRQHandler                                      
100004fd  UC7_IRQHandler                                      
100004fd  UC8_IRQHandler                                      
100004fd  UC9_IRQHandler                                      
100004fd  WWDT0_IRQHandler                                    
10000517  DL_Common_delayCycles                               
1000052b  __TI_decompress_none                                
10000539  abort                                               
1000053e  C$$EXIT                                             
1000053f  HOSTexit                                            
10000545  __aeabi_memcpy                                      
10000545  __aeabi_memcpy4                                     
10000545  __aeabi_memcpy8                                     
10000549  _system_pre_init                                    
10000550  __TI_static_base__                                  
1000055c  __TI_Handler_Table_Base                             
10000564  __TI_CINIT_Base                                     
10000564  __TI_Handler_Table_Limit                            
1000056c  __TI_CINIT_Limit                                    
1000056c  __TI_CINIT_Warm                                     
30000000  __profc_Default_Handler                             
30000000  __start___llvm_prf_bits                             
30000000  __start___llvm_prf_cnts                             
30000000  __stop___llvm_prf_bits                              
30000020  __profc_Reset_Handler                               
30000028  __profc_SYSCFG_DL_GPIO_init                         
30000030  __profc_SYSCFG_DL_SYSCTL_init                       
30000038  __profc_SYSCFG_DL_init                              
30000040  __profc_SYSCFG_DL_initPower                         
30000098  __stop___llvm_prf_cnts                              
3003fef8  __stack                                             
3003fff8  __STACK_END                                         
ffffffff  __TI_pprof_out_hndl                                 
ffffffff  __TI_prof_data_size                                 
ffffffff  __TI_prof_data_start                                
ffffffff  __binit__                                           
ffffffff  binit                                               
UNDEFED   __mpu_init                                          
UNDEFED   _system_post_cinit                                  

[3880 symbols]
