******************************************************************************
            TI ARM Clang Linker PC v4.0.3                      
******************************************************************************
>> Linked Fri Oct 31 11:35:37 2025

OUTPUT FILE NAME:   <spi_controller_register_format_LP_MSPM33C321A_nortos_ticlang.out>
ENTRY POINT SYMBOL: "_c_int00_noargs"  address: 1002cee9


MEMORY CONFIGURATION

         name            origin    length      used     unused   attr    fill
----------------------  --------  ---------  --------  --------  ----  --------
  FLASH                 10000000   000fffff  0002cfd0  000d302f  R  X
  SRAM                  30000000   0003ffff  00025b08  0001a4f7  RW X
  DATA                  80000000   00007fff  00000000  00007fff  R   
  BCR_CONFIG            80101800   000003ff  00000000  000003ff  R   
  BSL_CONFIG            80101c00   000003ff  00000000  000003ff  R   


SEGMENT ALLOCATION MAP

run origin  load origin   length   init length attrs members
----------  ----------- ---------- ----------- ----- -------
10000000    10000000    0002cfd0   0002cfd0    r-x
  10000000    10000000    00000120   00000120    r-- .intvecs
  10000120    10000120    00025830   00025830    r-- .rodata
  10025950    10025950    00007650   00007650    r-x .text
  1002cfa0    1002cfa0    00000030   00000030    r-- .cinit
30000000    30000000    00025a08   00000000    rw-
  30000000    30000000    00025800   00000000    rw- .bss
  30025800    30025800    00000208   00000000    rw- __llvm_prf_cnts
3003fef8    3003fef8    00000100   00000000    rw-
  3003fef8    3003fef8    00000100   00000000    rw- .stack


SECTION ALLOCATION MAP

 output                                  attributes/
section   page    origin      length       input sections
--------  ----  ----------  ----------   ----------------
.intvecs   0    10000000    00000120     
                  10000000    00000114     startup_mspm33c321x_ticlang.o (.intvecs)
                  10000114    0000000c     --HOLE-- [fill = 0]

.text      0    10025950    00007650     
                  10025950    000064b2     tft_frame_buffer_image.o (.text.TFT_Init)
                  1002be02    00000002     --HOLE-- [fill = 0]
                  1002be04    00000648     tft_frame_buffer_image.o (.text.TFT_updateScreen)
                  1002c44c    00000244     tft_frame_buffer_image.o (.text.TFT_WriteDataBulk)
                  1002c690    000001e6     tft_frame_buffer_image.o (.text.main)
                  1002c876    0000014e     ti_msp_dl_config.o (.text.SYSCFG_DL_initPower)
                  1002c9c4    0000012a     ti_msp_dl_config.o (.text.SYSCFG_DL_GPIO_init)
                  1002caee    000000ca     ti_msp_dl_config.o (.text.SYSCFG_DL_SPI_1_init)
                  1002cbb8    000000b2     ti_msp_dl_config.o (.text.SYSCFG_DL_SYSCTL_init)
                  1002cc6a    0000009c     libc.a : memcpy_t2.S.obj (.text:memcpy)
                  1002cd06    00000074            : copy_decompress_lzss.c.obj (.text:decompress:lzss)
                  1002cd7a    00000072            : memset_t2.S.obj (.text:memset)
                  1002cdec    00000046     driverlib.a : dl_unicommspi.o (.text.DL_SPI_init)
                  1002ce32    00000002     --HOLE-- [fill = 0]
                  1002ce34    00000038     libc.a : autoinit.c.obj (.text:__TI_auto_init_nobinit_nopinit)
                  1002ce6c    0000002c     ti_msp_dl_config.o (.text.SYSCFG_DL_init)
                  1002ce98    00000028     driverlib.a : dl_unicommspi.o (.text.DL_Common_updateReg)
                  1002cec0    00000026                 : dl_unicommspi.o (.text.DL_SPI_setClockConfig)
                  1002cee6    00000002     --HOLE-- [fill = 0]
                  1002cee8    00000024     libc.a : boot_cortex_m.c.obj (.text:_c_int00_noargs)
                  1002cf0c    0000001c     startup_mspm33c321x_ticlang.o (.text.Reset_Handler)
                  1002cf28    0000001a     startup_mspm33c321x_ticlang.o (.text.Default_Handler)
                  1002cf42    00000014     driverlib.a : dl_common.o (.text.DL_Common_delayCycles)
                  1002cf56    00000010     libc.a : copy_zero_init.c.obj (.text:decompress:ZI)
                  1002cf66    0000000e            : copy_decompress_none.c.obj (.text:decompress:none)
                  1002cf74    0000000a     libclang_rt.builtins.a : aeabi_memset.S.obj (.text.__aeabi_memset)
                  1002cf7e    00000002     --HOLE-- [fill = 0]
                  1002cf80    00000008                            : aeabi_memset.S.obj (.text.__aeabi_memclr)
                  1002cf88    00000006     libc.a : exit.c.obj (.text:abort)
                  1002cf8e    00000004     libsysbm.a : hostexit.c.obj (.text.HOSTexit)
                  1002cf92    00000002     --HOLE-- [fill = 0]
                  1002cf94    00000004     libclang_rt.builtins.a : aeabi_memcpy.S.obj (.text.__aeabi_memcpy)
                  1002cf98    00000004     libc.a : pre_init.c.obj (.text._system_pre_init)
                  1002cf9c    00000004     --HOLE-- [fill = 0]

.cinit     0    1002cfa0    00000030     
                  1002cfa0    0000000c     (__TI_handler_table)
                  1002cfac    00000009     (.cinit.__llvm_prf_cnts.load) [load image, compression = lzss]
                  1002cfb5    00000003     --HOLE-- [fill = 0]
                  1002cfb8    00000008     (.cinit..bss.load) [load image, compression = zero_init]
                  1002cfc0    00000010     (__TI_cinit_table)

.rodata    0    10000120    00025830     
                  10000120    00025800     tft_frame_buffer_image.o (.rodata.reLogo)
                  10025920    00000018     ti_msp_dl_config.o (.rodata.UC6_Inst)
                  10025938    0000000a     ti_msp_dl_config.o (.rodata.gSPI_1_config)
                  10025942    00000004     ti_msp_dl_config.o (.rodata.gSPI_1_clockConfig)
                  10025946    0000000a     --HOLE-- [fill = 0]

.init_array 
*          0    10000000    00000000     UNINITIALIZED

.binit     0    10000000    00000000     

.bss       0    30000000    00025800     UNINITIALIZED
                  30000000    00025800     tft_frame_buffer_image.o (.bss.frameBuffer)

__llvm_prf_bits 
*          0    30000000    00000000     UNINITIALIZED

.stack     0    3003fef8    00000100     UNINITIALIZED
                  3003fef8    00000004     libc.a : boot_cortex_m.c.obj (.stack)
                  3003fefc    000000fc     --HOLE--

__llvm_prf_cnts 
*          0    30025800    00000208     UNINITIALIZED
                  30025800    00000048     tft_frame_buffer_image.o (__llvm_prf_cnts.__profc_TFT_drawImage)
                  30025848    00000010     startup_mspm33c321x_ticlang.o (__llvm_prf_cnts.__profc_Default_Handler)
                  30025858    00000010     tft_frame_buffer_image.o (__llvm_prf_cnts.__profc_TFT_clearScreen)
                  30025868    00000010     tft_frame_buffer_image.o (__llvm_prf_cnts.__profc_TFT_updateScreen)
                  30025878    00000010     tft_frame_buffer_image.o (__llvm_prf_cnts.__profc_main)
                  30025888    00000010     tft_frame_buffer_image.o (__llvm_prf_cnts.__profc_tft_frame_buffer_image.c_SPI_WriteByte)
                  30025898    00000010     tft_frame_buffer_image.o (__llvm_prf_cnts.__profc_tft_frame_buffer_image.c_TFT_WriteDataBulk)
                  300258a8    00000010     ti_msp_dl_config.o (__llvm_prf_cnts.__profc_ti_msp_dl_config.c_DL_SPI_enablePower)
                  300258b8    00000008     startup_mspm33c321x_ticlang.o (__llvm_prf_cnts.__profc_Reset_Handler)
                  300258c0    00000008     ti_msp_dl_config.o (__llvm_prf_cnts.__profc_SYSCFG_DL_GPIO_init)
                  300258c8    00000008     ti_msp_dl_config.o (__llvm_prf_cnts.__profc_SYSCFG_DL_SPI_1_init)
                  300258d0    00000008     ti_msp_dl_config.o (__llvm_prf_cnts.__profc_SYSCFG_DL_SYSCTL_init)
                  300258d8    00000008     ti_msp_dl_config.o (__llvm_prf_cnts.__profc_SYSCFG_DL_init)
                  300258e0    00000008     ti_msp_dl_config.o (__llvm_prf_cnts.__profc_SYSCFG_DL_initPower)
                  300258e8    00000008     tft_frame_buffer_image.o (__llvm_prf_cnts.__profc_TFT_Init)
                  300258f0    00000008     tft_frame_buffer_image.o (__llvm_prf_cnts.__profc_TFT_drawImageCentered)
                  300258f8    00000008     tft_frame_buffer_image.o (__llvm_prf_cnts.__profc_tft_frame_buffer_image.c_CS_High)
                  30025900    00000008     tft_frame_buffer_image.o (__llvm_prf_cnts.__profc_tft_frame_buffer_image.c_CS_Low)
                  30025908    00000008     tft_frame_buffer_image.o (__llvm_prf_cnts.__profc_tft_frame_buffer_image.c_DC_Command)
                  30025910    00000008     tft_frame_buffer_image.o (__llvm_prf_cnts.__profc_tft_frame_buffer_image.c_DC_Data)
                  30025918    00000008     tft_frame_buffer_image.o (__llvm_prf_cnts.__profc_tft_frame_buffer_image.c_DL_Common_updateReg)
                  30025920    00000008     tft_frame_buffer_image.o (__llvm_prf_cnts.__profc_tft_frame_buffer_image.c_DL_GPIO_clearPins)
                  30025928    00000008     tft_frame_buffer_image.o (__llvm_prf_cnts.__profc_tft_frame_buffer_image.c_DL_GPIO_setPins)
                  30025930    00000008     tft_frame_buffer_image.o (__llvm_prf_cnts.__profc_tft_frame_buffer_image.c_DL_SPI_enable)
                  30025938    00000008     tft_frame_buffer_image.o (__llvm_prf_cnts.__profc_tft_frame_buffer_image.c_DL_SPI_isBusy)
                  30025940    00000008     tft_frame_buffer_image.o (__llvm_prf_cnts.__profc_tft_frame_buffer_image.c_DL_SPI_setBitRateSerialClockDivider)
                  30025948    00000008     tft_frame_buffer_image.o (__llvm_prf_cnts.__profc_tft_frame_buffer_image.c_DL_SPI_transmitData8)
                  30025950    00000008     tft_frame_buffer_image.o (__llvm_prf_cnts.__profc_tft_frame_buffer_image.c_TFT_HardwareReset)
                  30025958    00000008     tft_frame_buffer_image.o (__llvm_prf_cnts.__profc_tft_frame_buffer_image.c_TFT_SetAddressWindow)
                  30025960    00000008     tft_frame_buffer_image.o (__llvm_prf_cnts.__profc_tft_frame_buffer_image.c_TFT_WriteCommand)
                  30025968    00000008     tft_frame_buffer_image.o (__llvm_prf_cnts.__profc_tft_frame_buffer_image.c_TFT_WriteData)
                  30025970    00000008     ti_msp_dl_config.o (__llvm_prf_cnts.__profc_ti_msp_dl_config.c_DL_Common_updateReg)
                  30025978    00000008     ti_msp_dl_config.o (__llvm_prf_cnts.__profc_ti_msp_dl_config.c_DL_GPIO_clearPins)
                  30025980    00000008     ti_msp_dl_config.o (__llvm_prf_cnts.__profc_ti_msp_dl_config.c_DL_GPIO_enableOutput)
                  30025988    00000008     ti_msp_dl_config.o (__llvm_prf_cnts.__profc_ti_msp_dl_config.c_DL_GPIO_enablePower)
                  30025990    00000008     ti_msp_dl_config.o (__llvm_prf_cnts.__profc_ti_msp_dl_config.c_DL_GPIO_initDigitalOutput)
                  30025998    00000008     ti_msp_dl_config.o (__llvm_prf_cnts.__profc_ti_msp_dl_config.c_DL_GPIO_initPeripheralInputFunction)
                  300259a0    00000008     ti_msp_dl_config.o (__llvm_prf_cnts.__profc_ti_msp_dl_config.c_DL_GPIO_initPeripheralOutputFunction)
                  300259a8    00000008     ti_msp_dl_config.o (__llvm_prf_cnts.__profc_ti_msp_dl_config.c_DL_GPIO_reset)
                  300259b0    00000008     ti_msp_dl_config.o (__llvm_prf_cnts.__profc_ti_msp_dl_config.c_DL_SPI_enable)
                  300259b8    00000008     ti_msp_dl_config.o (__llvm_prf_cnts.__profc_ti_msp_dl_config.c_DL_SPI_reset)
                  300259c0    00000008     ti_msp_dl_config.o (__llvm_prf_cnts.__profc_ti_msp_dl_config.c_DL_SPI_setBitRateSerialClockDivider)
                  300259c8    00000008     ti_msp_dl_config.o (__llvm_prf_cnts.__profc_ti_msp_dl_config.c_DL_SPI_setFIFOThreshold)
                  300259d0    00000008     ti_msp_dl_config.o (__llvm_prf_cnts.__profc_ti_msp_dl_config.c_DL_SYSCTL_disableHFXT)
                  300259d8    00000008     ti_msp_dl_config.o (__llvm_prf_cnts.__profc_ti_msp_dl_config.c_DL_SYSCTL_disableSYSPLL)
                  300259e0    00000008     ti_msp_dl_config.o (__llvm_prf_cnts.__profc_ti_msp_dl_config.c_DL_SYSCTL_setBORThreshold)
                  300259e8    00000008     ti_msp_dl_config.o (__llvm_prf_cnts.__profc_ti_msp_dl_config.c_DL_SYSCTL_setSYSOSCFreq)
                  300259f0    00000008     ti_msp_dl_config.o (__llvm_prf_cnts.__profc_ti_msp_dl_config.c_DL_UNICOMM_enablePower)
                  300259f8    00000008     ti_msp_dl_config.o (__llvm_prf_cnts.__profc_ti_msp_dl_config.c_DL_UNICOMM_reset)
                  30025a00    00000008     ti_msp_dl_config.o (__llvm_prf_cnts.__profc_ti_msp_dl_config.c_DL_UNICOMM_setIPMode)

MODULE SUMMARY

       Module                          code    ro data   rw data
       ------                          ----    -------   -------
    .\
       tft_frame_buffer_image.o        28452   153600    153888 
       ti_msp_dl_config.o              1056    38        208    
       startup_mspm33c321x_ticlang.o   54      276       24     
    +--+-------------------------------+-------+---------+---------+
       Total:                          29562   153914    154120 
                                                                
    C:/ti/mspm33_sdk_1_00_00_00_internal/source/ti/driverlib/lib/ticlang/m33/mspm33c321x/driverlib.a
       dl_unicommspi.o                 148     0         0      
       dl_common.o                     20      0         0      
    +--+-------------------------------+-------+---------+---------+
       Total:                          168     0         0      
                                                                
    C:\ti\ccs2030\ccs\tools\compiler\ti-cgt-armllvm_4.0.3.LTS\lib\armv8m.main-ti-none-eabi/c/libc.a
       memcpy_t2.S.obj                 156     0         0      
       copy_decompress_lzss.c.obj      116     0         0      
       memset_t2.S.obj                 114     0         0      
       autoinit.c.obj                  56      0         0      
       boot_cortex_m.c.obj             36      0         0      
       copy_zero_init.c.obj            16      0         0      
       copy_decompress_none.c.obj      14      0         0      
       exit.c.obj                      6       0         0      
       pre_init.c.obj                  4       0         0      
    +--+-------------------------------+-------+---------+---------+
       Total:                          518     0         0      
                                                                
    C:\ti\ccs2030\ccs\tools\compiler\ti-cgt-armllvm_4.0.3.LTS\lib\armv8m.main-ti-none-eabi/c/libsysbm.a
       hostexit.c.obj                  4       0         0      
    +--+-------------------------------+-------+---------+---------+
       Total:                          4       0         0      
                                                                
    C:\ti\ccs2030\ccs\tools\compiler\ti-cgt-armllvm_4.0.3.LTS\lib\armv8m.main-ti-none-eabi/libclang_rt.builtins.a
       aeabi_memset.S.obj              18      0         0      
       aeabi_memcpy.S.obj              4       0         0      
    +--+-------------------------------+-------+---------+---------+
       Total:                          22      0         0      
                                                                
       Stack:                          0       0         256    
       Linker Generated:               0       45        0      
    +--+-------------------------------+-------+---------+---------+
       Grand Total:                    30274   153959    154376 


LINKER GENERATED COPY TABLES

__TI_cinit_table @ 1002cfc0 records: 2, size/record: 8, table size: 16
	__llvm_prf_cnts: load addr=1002cfac, load size=00000009 bytes, run addr=30025800, run size=00000208 bytes, compression=lzss
	.bss: load addr=1002cfb8, load size=00000008 bytes, run addr=30000000, run size=00025800 bytes, compression=zero_init


LINKER GENERATED HANDLER TABLE

__TI_handler_table @ 1002cfa0 records: 3, size/record: 4, table size: 12
	index: 0, handler: __TI_zero_init
	index: 1, handler: __TI_decompress_lzss
	index: 2, handler: __TI_decompress_none


GLOBAL SYMBOLS: SORTED ALPHABETICALLY BY Name 

address   name                                                                
-------   ----                                                                
1002cf29  ADC0_DCOMP_IRQHandler                                               
1002cf29  ADC0_SEQ0_IRQHandler                                                
1002cf29  ADC0_SEQ1_IRQHandler                                                
1002cf29  ADC0_SEQ2_IRQHandler                                                
1002cf29  ADC0_SEQ3_IRQHandler                                                
1002cf29  ADC1_DCOMP_IRQHandler                                               
1002cf29  ADC1_SEQ0_IRQHandler                                                
1002cf29  ADC1_SEQ1_IRQHandler                                                
1002cf29  ADC1_SEQ2_IRQHandler                                                
1002cf29  ADC1_SEQ3_IRQHandler                                                
1002cf29  AESADVHP_IRQHandler                                                 
1002cf8e  C$$EXIT                                                             
1002cf29  CANFD0_IRQHandler                                                   
1002cf29  CANFD1_IRQHandler                                                   
1002cf29  COMP0_IRQHandler                                                    
1002cf29  COMP1_IRQHandler                                                    
1002cf29  DEBUGSS_IRQHandler                                                  
1002cf43  DL_Common_delayCycles                                               
1002cded  DL_SPI_init                                                         
1002cec1  DL_SPI_setClockConfig                                               
1002cf29  DMA0_IRQHandler                                                     
1002cf29  DMA1_IRQHandler                                                     
1002cf29  Default_Handler                                                     
1002cf29  FLASHCTL_IRQHandler                                                 
1002cf29  GPIOA_IRQHandler                                                    
1002cf29  GPIOB_IRQHandler                                                    
1002cf29  GPIOC_IRQHandler                                                    
1002cf8f  HOSTexit                                                            
1002cf29  HardFault_Handler                                                   
1002cf29  I2S0_IRQHandler                                                     
1002cf29  I2S1_IRQHandler                                                     
1002cf29  LFSS_IRQHandler                                                     
1002cf29  NMI_Handler                                                         
1002cf29  PKA_IRQHandler                                                      
1002cf29  PendSV_Handler                                                      
1002cf29  QSPI_IRQHandler                                                     
1002cf0d  Reset_Handler                                                       
1002cf29  SHAW_IRQHandler                                                     
1002cf29  SVC_Handler                                                         
1002c9c5  SYSCFG_DL_GPIO_init                                                 
1002caef  SYSCFG_DL_SPI_1_init                                                
1002cbb9  SYSCFG_DL_SYSCTL_init                                               
1002ce6d  SYSCFG_DL_init                                                      
1002c877  SYSCFG_DL_initPower                                                 
1002cf29  SYSCTL_IRQHandler                                                   
1002cf29  SysTick_Handler                                                     
10025951  TFT_Init                                                            
1002be05  TFT_updateScreen                                                    
1002cf29  TIMA0_0_IRQHandler                                                  
1002cf29  TIMA0_1_IRQHandler                                                  
1002cf29  TIMG12_0_IRQHandler                                                 
1002cf29  TIMG4_0_IRQHandler                                                  
1002cf29  TIMG4_1_IRQHandler                                                  
1002cf29  TIMG4_2_IRQHandler                                                  
1002cf29  TIMG4_3_IRQHandler                                                  
1002cf29  TIMG8_0_IRQHandler                                                  
1002cf29  TIMG8_1_IRQHandler                                                  
1002cf29  TRNG_IRQHandler                                                     
1002cf29  UC0_IRQHandler                                                      
1002cf29  UC10_IRQHandler                                                     
1002cf29  UC1_IRQHandler                                                      
1002cf29  UC2_IRQHandler                                                      
1002cf29  UC3_IRQHandler                                                      
1002cf29  UC4_IRQHandler                                                      
1002cf29  UC5_IRQHandler                                                      
1002cf29  UC6_IRQHandler                                                      
1002cf29  UC7_IRQHandler                                                      
1002cf29  UC8_IRQHandler                                                      
1002cf29  UC9_IRQHandler                                                      
1002cf29  WWDT0_IRQHandler                                                    
3003fff8  __STACK_END                                                         
00000100  __STACK_SIZE                                                        
00000000  __TI_ATRegion0_region_sz                                            
00000000  __TI_ATRegion0_src_addr                                             
00000000  __TI_ATRegion0_trg_addr                                             
00000000  __TI_ATRegion1_region_sz                                            
00000000  __TI_ATRegion1_src_addr                                             
00000000  __TI_ATRegion1_trg_addr                                             
00000000  __TI_ATRegion2_region_sz                                            
00000000  __TI_ATRegion2_src_addr                                             
00000000  __TI_ATRegion2_trg_addr                                             
1002cfc0  __TI_CINIT_Base                                                     
1002cfd0  __TI_CINIT_Limit                                                    
1002cfd0  __TI_CINIT_Warm                                                     
1002cfa0  __TI_Handler_Table_Base                                             
1002cfac  __TI_Handler_Table_Limit                                            
1002ce35  __TI_auto_init_nobinit_nopinit                                      
1002cd07  __TI_decompress_lzss                                                
1002cf67  __TI_decompress_none                                                
ffffffff  __TI_pprof_out_hndl                                                 
ffffffff  __TI_prof_data_size                                                 
ffffffff  __TI_prof_data_start                                                
1002cfa0  __TI_static_base__                                                  
1002cf57  __TI_zero_init                                                      
1002cf81  __aeabi_memclr                                                      
1002cf81  __aeabi_memclr4                                                     
1002cf81  __aeabi_memclr8                                                     
1002cf95  __aeabi_memcpy                                                      
1002cf95  __aeabi_memcpy4                                                     
1002cf95  __aeabi_memcpy8                                                     
1002cf75  __aeabi_memset                                                      
1002cf75  __aeabi_memset4                                                     
1002cf75  __aeabi_memset8                                                     
ffffffff  __binit__                                                           
00009bd8  __covrec_1015614E4B08E61D                                           
00009ca0  __covrec_1023C2726819110                                            
0001e380  __covrec_1067EFD43AC4737C                                           
00009f48  __covrec_106B316B39F3E8F9                                           
00017378  __covrec_106C0A8F47E4EBF5                                           
00013a20  __covrec_107802700ECD7C02                                           
000040c0  __covrec_10795250D785534B                                           
0001e560  __covrec_107B128032F6DB3F                                           
000216c0  __covrec_10824BD04F6231E0                                           
000045c0  __covrec_108D7B465AEE2311                                           
0001a258  __covrec_10ACAC719BF92A02                                           
0001a118  __covrec_10D7C14A5E1269A                                            
00014178  __covrec_10D83D798DF85215                                           
000048e0  __covrec_10DBB256204F1295                                           
00022e08  __covrec_10DD02304F236F5B                                           
000010a0  __covrec_10FAC152574AF3A4                                           
0001fb90  __covrec_1129F9D0907743CC                                           
0000f240  __covrec_11500CDD97232ECC                                           
000245a0  __covrec_11548A0C371099D9                                           
000210f8  __covrec_1179DC1F40DF19BB                                           
00020ce8  __covrec_117A6AE779833FFF                                           
0000cc98  __covrec_117CA647C49548CB                                           
0000c2c0  __covrec_117EEA3DE190270E                                           
00020720  __covrec_119935E492C58911                                           
00009688  __covrec_11BE188C2379376                                            
00010e88  __covrec_11C39D69F5CFBFFB                                           
00018200  __covrec_11E4D0BB9C3E8C30                                           
0000b190  __covrec_11E69E13C8198983                                           
00025108  __covrec_11F13472B68456                                             
00006aa0  __covrec_121576B4B3AEC6AA                                           
00008a30  __covrec_122F5418ADACF4D3                                           
00010af0  __covrec_1238FFC6C0414155                                           
0000f088  __covrec_123EF23556749C8B                                           
0000ed40  __covrec_12535760FC4ADAC1                                           
00018908  __covrec_1267B4521C0A50E3                                           
00006870  __covrec_12949BC9633D6407                                           
000069d8  __covrec_12A75C473BB67C71                                           
0001bdd8  __covrec_12A84A218C9DEA06                                           
00025810  __covrec_12B18424C859DF9D                                           
0001fd70  __covrec_12B33D9FCAB5C7F6                                           
00020068  __covrec_12BA5CE176C32DDC                                           
00007310  __covrec_12CA111AEC727CD                                            
000110e0  __covrec_131088E6AD3ACCAD                                           
00013ca0  __covrec_1313DC5687DCCBE4                                           
0001b720  __covrec_13150132607A5180                                           
0001a6b8  __covrec_1317F30DAB07CEFD                                           
0001ffc8  __covrec_132818003A70A7AF                                           
00003800  __covrec_13354F613ADA5F58                                           
0001bab8  __covrec_133B487217BB2E5A                                           
00016248  __covrec_133E6E5754396960                                           
000007e8  __covrec_1348169C3EA1F2D0u                                          
00024f78  __covrec_134F21299CF91075                                           
000242f8  __covrec_13672E230F457DC9                                           
00025068  __covrec_13941B1E936B73E2                                           
00006f78  __covrec_13B340DA6884AAFA                                           
00009840  __covrec_13CC0EC0E7C1617                                            
0000d7d8  __covrec_13D209C83AB139F3                                           
00012350  __covrec_13E1A05045145CD3                                           
0000aba0  __covrec_13EEBDEB1507CEB2                                           
00009b88  __covrec_13F4922932B5B5AA                                           
0001a0c8  __covrec_1409994ABADCA9DB                                           
00017648  __covrec_140C87832FFAF923                                           
000033c8  __covrec_141691CFAEBF2DA6                                           
0001bfb8  __covrec_14465F9D45D58042                                           
000107d0  __covrec_147509653EA2F5AC                                           
00002158  __covrec_148950638CE91830                                           
000051f0  __covrec_148F3D29401CDF62                                           
00009818  __covrec_1499378ECE188E7A                                           
0001a640  __covrec_149ACD14E0572626                                           
0000d850  __covrec_14A79F283BFABACD                                           
000109b0  __covrec_14C4223211CF080A                                           
00022200  __covrec_14C7D3D01E57A504                                           
0001b518  __covrec_14C92017E2A5AC67                                           
00000e70  __covrec_14CDBF97CE13DEE5                                           
00018930  __covrec_14D1DCA4E67C18C5                                           
00021738  __covrec_14FA4B69117446C1                                           
00021788  __covrec_14FF88AAFCD7D57D                                           
00023b50  __covrec_150B89D347BC7E6E                                           
0001a3e8  __covrec_1528E95DCB01A67C                                           
000142e0  __covrec_153C71C9353F6537                                           
00023d58  __covrec_1540C2C144B9922B                                           
00017e90  __covrec_15599278F6628FD9                                           
00001d98  __covrec_155E2780EB9E2447                                           
00020f40  __covrec_15699B8DF7CF109F                                           
00024c30  __covrec_157321A8C10AC04E                                           
0001cc10  __covrec_15A6988EB176291B                                           
00006f50  __covrec_15ADDC2DE26ABDEE                                           
0001f898  __covrec_15B0477F91E5A15B                                           
0000f3a8  __covrec_15B256E28F0CF71B                                           
000257e8  __covrec_15D8AD984765CE7C                                           
000096b0  __covrec_15E9342E4F580831                                           
00019a38  __covrec_15E9C88B8913D74B                                           
0001b658  __covrec_15EBD46F714DA966                                           
0000c3d8  __covrec_15F16235D3A2FA3E                                           
0000fe48  __covrec_15FEAC848F528C6B                                           
0001f140  __covrec_1607E55D10EC504D                                           
00003da0  __covrec_16170A0C8B8FAF39                                           
0001ebf0  __covrec_161C5CCBB18E3472                                           
0001d318  __covrec_162CFD0A1B796938                                           
00002108  __covrec_163A9453C33E2421                                           
0001cb98  __covrec_163C92947DFA7B45                                           
0001ea60  __covrec_1658A1CFEC8A9371                                           
00004160  __covrec_1659655F14839ECE                                           
00003bc0  __covrec_165D1CC5470CD365                                           
00011310  __covrec_1667140CB11964E4                                           
00023628  __covrec_16674943AE982D61                                           
00013a48  __covrec_166C82B5B146B5D7                                           
00006c08  __covrec_166E935050528FD9                                           
00008f08  __covrec_167E6DEE7C22394                                            
000182f0  __covrec_168493D43873B111                                           
0001afc8  __covrec_16A0659A24000E67                                           
00008080  __covrec_16B2B4CD9D25A7B6                                           
00022db8  __covrec_16BDE21014ED2C1                                            
0000e098  __covrec_16CD1192FCE26EA1                                           
0001b130  __covrec_16D434825183503F                                           
0001ca08  __covrec_16D70E5A69A3760A                                           
00008c88  __covrec_16E946C8BB96B0EF                                           
00004ac0  __covrec_16EA7A32421EA039                                           
0001d570  __covrec_16EB4AA73251958E                                           
00004e30  __covrec_16EF33E1310F128D                                           
00015140  __covrec_16F02D052FF565BE                                           
000182c8  __covrec_1707DC81A21DBC1C                                           
0001ef10  __covrec_171317B20F4BC1DB                                           
00005308  __covrec_17152CF918A0EAE8                                           
000143a8  __covrec_172B59B25D72358A                                           
00018750  __covrec_17302E52AA89C0CD                                           
00020928  __covrec_17309D8202C86DB3                                           
0001e4e8  __covrec_1740AFC189A8EDA2                                           
000146a0  __covrec_174915AB4E2EDF5C                                           
00017ee0  __covrec_174F15FCCDC74864                                           
00025860  __covrec_1759666B8765F80D                                           
0000cbd0  __covrec_17676CFFC21A8DEB                                           
00004c78  __covrec_1769DC6A5FACA719                                           
00007c98  __covrec_178BA392E28D3CD1                                           
00004d40  __covrec_1791812CCAA39464                                           
0001ec18  __covrec_1796D1C61F0D17A8                                           
000058d0  __covrec_17B572A82BA3DAF8                                           
00006438  __covrec_17C59C094ECBE8A                                            
0001e470  __covrec_17DAEC6AFA72F54C                                           
00014ab0  __covrec_17E07C5FF5F82422                                           
0001b950  __covrec_17E08951EDF009B4                                           
00011158  __covrec_17E5EA330C09BF0B                                           
0001ce68  __covrec_17F1308C877F8432                                           
0000c518  __covrec_17F50C2BBE1442B2                                           
00014448  __covrec_17F9955224B25587                                           
00009430  __covrec_180A07292FF400F4                                           
0001aaa0  __covrec_182EBC3292D8B057                                           
00007590  __covrec_18401A623BA29029                                           
000119a0  __covrec_1859A1966B6E3A06                                           
00011ec8  __covrec_185D94558A52B925                                           
0000b118  __covrec_1861FC4C42BB20D                                            
0000f178  __covrec_187B1171A4D17848                                           
0001a4d8  __covrec_1881D5B34314DF64                                           
00005ce0  __covrec_188212301894CE71                                           
0001c1e8  __covrec_18A4EB207556A42C                                           
00023330  __covrec_18ABC13FAC28025C                                           
00023c40  __covrec_18AC38AE70A94599                                           
00018818  __covrec_18ACAD82B94D6601                                           
00018778  __covrec_18ACCAC5D58EF3D4                                           
0000c0e0  __covrec_18C55F3A7C96DCA3                                           
0001b540  __covrec_18C79462758238BA                                           
00020518  __covrec_18C7DFC85F74DF88                                           
0000c298  __covrec_18C94FE8970DF7B6                                           
0001ab90  __covrec_18DDFB0FE08ED969                                           
0000e5e8  __covrec_18E2C2AEBDE126AA                                           
0001c418  __covrec_1908F0908D2CBF18                                           
000083a0  __covrec_1909BFAD685F9713                                           
00009d18  __covrec_1910D787EFCB5053                                           
0000df80  __covrec_191692FA231B07B4                                           
0001ade8  __covrec_191831FA0CEE1893                                           
00017aa8  __covrec_192A7CE8DD30AE20                                           
00004a98  __covrec_19307B0467A6F369                                           
0001aaf0  __covrec_1930B2CB90352D46                                           
0000aa10  __covrec_1965922A3A7575B8                                           
00002680  __covrec_1976933E30916B0C                                           
00002db0  __covrec_198D73E22CD7ACE7                                           
00012cd8  __covrec_19A8EF313153C479                                           
0000c860  __covrec_19B11F3401CDF6CC                                           
00020130  __covrec_19B8727C1D4ABDAE                                           
0000f0d8  __covrec_19C3E106639278BB                                           
00022638  __covrec_19E75B9307F97AB0                                           
00022c78  __covrec_19F06ABB5A28AA72                                           
0001d8b8  __covrec_19FA784ADD838849                                           
000246e0  __covrec_1A0F7EC2AC44F654                                           
000055d8  __covrec_1A1EEB8D447D5F1C                                           
00006e10  __covrec_1A1F064FE0E8B510                                           
0001c288  __covrec_1A22B483B14D442                                            
000060a0  __covrec_1A25BEF943BC8E28                                           
0000e430  __covrec_1A2A0C671F027882                                           
00002d88  __covrec_1A395D0CB4E17B4                                            
00014b28  __covrec_1A3FA77D293B3485                                           
00024dc0  __covrec_1A4544BED21CEB2C                                           
00001e60  __covrec_1A6A392370CE8089                                           
0001d408  __covrec_1A6E887ACACAFF76                                           
000118d8  __covrec_1A817747AB50388D                                           
0000d030  __covrec_1AA0DAB3D5A1092A                                           
00003210  __covrec_1ACCFDB21FE1DAF2                                           
00015ed8  __covrec_1AE60D0DA8D77CF0                                           
0000a420  __covrec_1AE7156E72CC2ABC                                           
0001c788  __covrec_1AF6215EE93D46D6                                           
00022840  __covrec_1AFE6ECE1BD6F5C2                                           
0001bb58  __covrec_1AFE76699DCE6D3D                                           
0001b4c8  __covrec_1B0D2750B34B1703                                           
0000a088  __covrec_1B0D5808699F7651                                           
00017328  __covrec_1B9CA30A65B78731                                           
000144c0  __covrec_1BC9AF92F5A17ABA                                           
00008d78  __covrec_1BCFA1485B6055E5                                           
0001e5b0  __covrec_1BD34071CFA619DA                                           
00012c10  __covrec_1BD924C239483FB4                                           
000258b0  __covrec_1BEE14838B08B7EA                                           
0001f640  __covrec_1BFF9732B2DAF38C                                           
00002720  __covrec_1C0C78204C9646CB                                           
00000308  __covrec_1C2DBFB78017AA87u                                          
000085a8  __covrec_1C420836149D7583                                           
00007568  __covrec_1C754B95FEB1EF2E                                           
0000ad58  __covrec_1C7FA1260212AD5                                            
00009e80  __covrec_1C8B9F984ACFE926                                           
00003238  __covrec_1C90DE5C6EF77D93                                           
0001a9d8  __covrec_1CA1AE9514CE36B4                                           
00006bb8  __covrec_1CA685A06FA828C2                                           
00024e38  __covrec_1CABCD001BB8A2D4                                           
00014f38  __covrec_1CC14C8A376E03E3                                           
00021530  __covrec_1CD6F65EDB220D52                                           
0000a560  __covrec_1CE16BEA6E372DF6                                           
0001aeb0  __covrec_1CE8FD9CC832CE68                                           
00007b58  __covrec_1CF458B90AC0BEE5                                           
00023308  __covrec_1D03C489628EC74D                                           
0001c2d8  __covrec_1D1393F256C668B4                                           
00010fc8  __covrec_1D1AF4AD760EBD0B                                           
00009610  __covrec_1D3A5561EED216E7                                           
00017e18  __covrec_1D5453C0FE32606E                                           
00007748  __covrec_1D5990E2D32883DB                                           
00021918  __covrec_1D69454E4585F9FA                                           
00019cb8  __covrec_1D8009E1123EFE18                                           
0000dee0  __covrec_1D99CCB594089A41                                           
0000bb68  __covrec_1D9CE723FB6B2755                                           
00017fd0  __covrec_1DA2DF1D9481285F                                           
00002f68  __covrec_1DAABBB3E0B33DED                                           
00001668  __covrec_1DAAC99F134FEA36                                           
000209c8  __covrec_1DBD55CB071CE798                                           
000115b8  __covrec_1E193250FA962C0E                                           
0000c9c8  __covrec_1E42351BF0C82C5A                                           
00020540  __covrec_1E5D0BA266A05409                                           
00021300  __covrec_1E967D82AE57104C                                           
000053a8  __covrec_1EADF052E12C364                                            
00020c20  __covrec_1EB10222D35B87B9                                           
00022ed0  __covrec_1EC243A73359BD5F                                           
00023fb0  __covrec_1ED2390858C3EB64                                           
000219b8  __covrec_1EE4D15989A2B4E4                                           
0000cf40  __covrec_1EEE2A34CAE6E300                                           
0001ea10  __covrec_1EF1FB822FC56A69                                           
000043e0  __covrec_1F0273257C74DA34                                           
0001b748  __covrec_1F323AB5CF4D4A72                                           
000164a0  __covrec_1F4169E57C49DBAC                                           
000231a0  __covrec_1F54DD07CE6E3CC3                                           
00019358  __covrec_1F81DC0331A088EE                                           
000032b0  __covrec_1F920D6DB2BFC5DD                                           
00001e38  __covrec_1F9701DAD4B583EF                                           
0001d020  __covrec_1F9CF73C50D6AB19                                           
0000d990  __covrec_1FA29A6965EA697A                                           
00020630  __covrec_1FC1559D82C02D42                                           
0000d0a8  __covrec_1FCD8084A8AD94C7                                           
00005128  __covrec_1FF1F362AD7BA30D                                           
0000f8a8  __covrec_1FFD87196D393A5                                            
00001190  __covrec_2007888E0ED7BBE7                                           
00023a10  __covrec_201277E0AA6EE9F3                                           
00008760  __covrec_2027486A252B9EFA                                           
0000e9f8  __covrec_202C7A455CD6E333                                           
0000cea0  __covrec_202C96EB3F7B8080                                           
0000c680  __covrec_20451F7186A9AA65                                           
00021210  __covrec_2046BE57FB3E054C                                           
000068e8  __covrec_204B09876D9D99B5                                           
00019ec0  __covrec_20502D4EF27C8C51                                           
00006c30  __covrec_206C9F659DE18C4F                                           
00019d58  __covrec_208E88AD446ED6FF                                           
00007658  __covrec_20BECB1811109A2A                                           
00012b70  __covrec_20C0FEDE50289563                                           
0001d7f0  __covrec_20C5FBED395A9EDE                                           
0001d3b8  __covrec_20F4440F1638C2A5                                           
0001ef88  __covrec_212223448B5B81B9                                           
00020f90  __covrec_216718CA83AD3AF2                                           
00020608  __covrec_2175477B7920D59E                                           
00008cd8  __covrec_2176BD124C8C9EC1                                           
0000f8d0  __covrec_217A60EA0747DA3D                                           
00019f88  __covrec_217DB9DBC67C1EFE                                           
0000ae70  __covrec_218F12CA9F1277A6                                           
0001cf58  __covrec_219DAFA81AFAA2FB                                           
00021148  __covrec_21D48F08684C7774                                           
00012bc0  __covrec_21D4E69A6502BA1                                            
0000af88  __covrec_21DE6C1446A83F18                                           
0000de68  __covrec_21FA824B88D6AD1D                                           
00008558  __covrec_21FF8BDEC67885BF                                           
0000e0e8  __covrec_220AC222F0E2A846                                           
000256d0  __covrec_222CA9EC1B745CD9                                           
0001af00  __covrec_2239F1A9CC961427                                           
00018f98  __covrec_2286D5FF0FC802ED                                           
0001f8c0  __covrec_228B4DCEDE67C9E2                                           
00011c70  __covrec_229321D45BF5FD30                                           
000017a8  __covrec_229958F20CF3285B                                           
00018a20  __covrec_22AA610D5E826481                                           
000056f0  __covrec_22C11553F54C0BDF                                           
000141c8  __covrec_22D092EAE16D02EF                                           
00023dd0  __covrec_22E2236BC99304F9                                           
00019c90  __covrec_22F1260B2ECCC08F                                           
0001dcf0  __covrec_22F2AD01BBE54AC3                                           
000073b0  __covrec_2307C91C1B581608                                           
0001a140  __covrec_230E01EBA14683DA                                           
00009f70  __covrec_2337A9E2EE1C7B42                                           
0000ef48  __covrec_2339956FA0387BA6                                           
0000b208  __covrec_233F85B45FE09805                                           
000152a8  __covrec_2356CFAA058BDA63                                           
0000ec28  __covrec_2388F5C50AB5599C                                           
00001078  __covrec_238A660CC3B9138C                                           
00016d60  __covrec_23A2723218FB953F                                           
00023b00  __covrec_23BA94AFA28E8B44                                           
00019218  __covrec_23BDC91C28D00DEB                                           
0000c658  __covrec_23C3B3858F12A774                                           
000140d8  __covrec_2429638F3104CEC6                                           
00008d50  __covrec_242E47E83A3A0F84                                           
00015118  __covrec_245CEEBD24015B1F                                           
0001f550  __covrec_245EBA72A5A0F5EB                                           
000094f8  __covrec_2460CA59370749C                                            
00006370  __covrec_249018A50CF14B2A                                           
0000e250  __covrec_24A93D96FB9BF831                                           
00002798  __covrec_24BEA8E025F27A2B                                           
0000c040  __covrec_24C744C6890B0052                                           
00015b18  __covrec_24C869B71C1745EC                                           
0000d6e8  __covrec_24CA4CDBACD6553                                            
0001e920  __covrec_24CD7D1265135F07                                           
0001e790  __covrec_24D4168F36768F8A                                           
00002900  __covrec_24D7DAD8907EEB16                                           
00014290  __covrec_24D80F5FFDB3B16                                            
000175a8  __covrec_24DBDAA504A8EB                                             
0001b090  __covrec_24DC5A464E150DEB                                           
0000e070  __covrec_2513C5EA59AE773                                            
0000b230  __covrec_251ACC369E405A37                                           
00011608  __covrec_25261BF28E6E7B76                                           
00005588  __covrec_2542989910C897A2                                           
00025220  __covrec_2548E4241C41D4AC                                           
00010938  __covrec_254FCBEC80F1C133                                           
000090e8  __covrec_25562743D8C8D521                                           
000175f8  __covrec_25644B6D8D9339A2                                           
0000dfa8  __covrec_2567E9C03E157DB1                                           
0000a880  __covrec_257876866FE9E7C4                                           
00006280  __covrec_258C9CB28AFFA41E                                           
00019420  __covrec_2597CFE535DF7925                                           
00015ff0  __covrec_259FE72B02F982E3                                           
00017288  __covrec_25B72A3D7BD5840F                                           
000243c0  __covrec_25D863D26F29F221                                           
00010708  __covrec_25D9A1BD64EDF5BD                                           
00018390  __covrec_25E129209C6D6E08                                           
00012b98  __covrec_25E84E7404DEEBBB                                           
00013e30  __covrec_260485F951D8CFA2                                           
00012008  __covrec_26080A47B295C177                                           
00003670  __covrec_26235E8C028A2619                                           
00003198  __covrec_263C22B5C438F43E                                           
00010618  __covrec_2651D34D170ED9A0                                           
000100c8  __covrec_265D2618BDEC7C47                                           
0000bc58  __covrec_265E86ECEC6F2823                                           
000156b8  __covrec_2662EFE42B16DEE1                                           
00007428  __covrec_268241823EE96C12                                           
00001280  __covrec_269F232C7A851263                                           
00023d30  __covrec_26BDD9085FF96DA5                                           
000027e8  __covrec_26C339674FF52C45                                           
000097f0  __covrec_26D1C59352114C24                                           
00023268  __covrec_26F7BD59BDABA46                                            
0000c810  __covrec_272C17D368D935DC                                           
0000e890  __covrec_27666800B092B196                                           
00025388  __covrec_276B3C7F132E7949                                           
00024870  __covrec_278B19F5D60C3947                                           
000044d0  __covrec_27B44FDC172F780F                                           
0000d120  __covrec_27D5EE4E42D2F8FB                                           
000087b0  __covrec_27DA4C8796B725B2                                           
00018e08  __covrec_27F653CEA4118248                                           
00016630  __covrec_280C086A8D3E033A                                           
00003940  __covrec_2816FFB101FCFA61                                           
000047a0  __covrec_283D186B557C953C                                           
0000b550  __covrec_284EE434571A2D20                                           
00001118  __covrec_2869490CBFF195D3                                           
0001f0f0  __covrec_28CAF5403BA112D7                                           
00002dd8  __covrec_28F0791D1CE1E40F                                           
00002f18  __covrec_2902F1B5C20A72B2                                           
000092c8  __covrec_295B73633BFC3E7C                                           
000100f0  __covrec_2977657D71223940                                           
0000e0c0  __covrec_298CA05804ACFE00                                           
0001f2d0  __covrec_299EDB45E19271B                                            
000113b0  __covrec_29A3D88E1029BC72                                           
00004b60  __covrec_29B5C829D5578951                                           
000104d8  __covrec_29B7CB608F723A15                                           
0001a000  __covrec_29CB61A807DB331C                                           
00008170  __covrec_29E4D40E1F4AABF4                                           
00009b10  __covrec_29ECFDB8C4616474                                           
00005f10  __covrec_29F1FC19B1A53805                                           
00008288  __covrec_29F26544E772E67B                                           
00024910  __covrec_29FD4C6F37BB673F                                           
00007388  __covrec_2A0495B196D82C27                                           
0001eb28  __covrec_2A1CAF1263274BD9                                           
0000bbe0  __covrec_2A359C91FD8D1C1C                                           
00014fb0  __covrec_2A5F24567CA81B28                                           
000240c8  __covrec_2A658EA1206C62D6                                           
00017c88  __covrec_2A736453A4775CC3                                           
00014c40  __covrec_2A8B557658325237                                           
000041d8  __covrec_2A8C9F78F4701320                                           
0000f6a0  __covrec_2A8D51B2E218C148                                           
000250e0  __covrec_2A91C3E5F45518F9                                           
00001320  __covrec_2A9346DCB13E41FA                                           
000071f8  __covrec_2A9B1F8CAF79830                                            
000011e0  __covrec_2AAE475290C88506                                           
0000d170  __covrec_2ADC47AE9A1EFEA4                                           
00013c50  __covrec_2ADD8BD0BF6DAA7F                                           
00020478  __covrec_2AFC953AB3BFA4B3                                           
000186d8  __covrec_2B07AC81363554B8                                           
00003b20  __covrec_2B35A21EC67A8DF0                                           
0001fac8  __covrec_2B3D97B203BD5320                                           
00007040  __covrec_2B4301EB82D03B74                                           
00011e28  __covrec_2B5E8C48782B6E42                                           
00019790  __covrec_2B5FFCF4F8CB86BC                                           
00006028  __covrec_2B6491C874BC38                                             
0001a960  __covrec_2B68E5DDE2E9662B                                           
00003378  __covrec_2B6AECDCCAB24A2A                                           
0000b758  __covrec_2B95CE779AD7E70D                                           
00016478  __covrec_2B9D588B68FFC9FD                                           
00014038  __covrec_2B9ED78528214928                                           
0001c6c0  __covrec_2BE6C0B46C211135                                           
00024320  __covrec_2C177686F2932C2C                                           
0000ff88  __covrec_2C2C228A4F28479F                                           
0000bd20  __covrec_2C32F38E202C00F5                                           
00019fb0  __covrec_2C5B3AD84DE89A09                                           
00002ce8  __covrec_2C69E264A33FE5A6                                           
00005fd8  __covrec_2C7DBBDB5226120C                                           
0000a3a8  __covrec_2C840298C27AB9F9                                           
00006208  __covrec_2CB713957594919A                                           
00006ca8  __covrec_2CB7B6AAB9D0BE7F                                           
00011b80  __covrec_2CD97E9C253EE935                                           
0000d300  __covrec_2CDF07F48A6D982E                                           
00007d38  __covrec_2CE3EEB7DCAC845F                                           
0001a410  __covrec_2D0041D38F4C7BA8                                           
00014ce0  __covrec_2D13BBFC3A449323                                           
00022610  __covrec_2D1E6856B3061151                                           
00024d98  __covrec_2D2B2BAF1BAC8BDA                                           
00007f40  __covrec_2D339403DFDCEABE                                           
0001d188  __covrec_2D3B4279E82844EA                                           
00024528  __covrec_2D4D821B616E6924                                           
00004840  __covrec_2D5C73063D05BBBA                                           
00015460  __covrec_2D61228427B0BF14                                           
000080f8  __covrec_2D664FD4CD07387                                            
00024708  __covrec_2D723378264E6A7                                            
00020dd8  __covrec_2D7A7904D991C2E0                                           
00022c50  __covrec_2D8A3E6347FF950C                                           
00004318  __covrec_2D8B5955ACDCDA5D                                           
0001da70  __covrec_2D99555663CB507E                                           
0001df98  __covrec_2DA3C7F5F3A1833F                                           
00016108  __covrec_2DD25A1E0605CEF0                                           
000210a8  __covrec_2DDC7AACECA4585A                                           
00022fc0  __covrec_2DECA8561F707322                                           
0001b9a0  __covrec_2DF772145F02FC49                                           
00009c50  __covrec_2DFF8B240B04B8F5                                           
0001a7f8  __covrec_2E3C982E9C9C353                                            
0000a830  __covrec_2E45306D3CEBBFFA                                           
00017620  __covrec_2E459FB28F5F2122                                           
00002220  __covrec_2E49553AF661ED96                                           
0000e7f0  __covrec_2E6930B9B2F72D51                                           
0001e7e0  __covrec_2E6EC07223ED40B7                                           
00019600  __covrec_2E714EFCCE61715E                                           
00010668  __covrec_2E7E0A7D08EE48C7                                           
0000f4e8  __covrec_2E86848407425624                                           
0000c590  __covrec_2E9AAF47407C6D97                                           
00003440  __covrec_2EA22064C8932AF4                                           
00007d60  __covrec_2EA32D5399CD1202                                           
00023c18  __covrec_2EB222C72903A525                                           
00010118  __covrec_2EBC23AAF74450FC                                           
00004f48  __covrec_2ED13F8E6634D49F                                           
0000fee8  __covrec_2F00E2DBF679952C                                           
00023bc8  __covrec_2F22268672A76EE3                                           
0000a1f0  __covrec_2F24102A9C51A2ED                                           
000160e0  __covrec_2F298529E754A752                                           
0000cf68  __covrec_2F39D195F2C3CB75                                           
0000bc08  __covrec_2F5C49410451F66E                                           
00010280  __covrec_2F745AB821F8946B                                           
00008508  __covrec_2F925E46719C52D                                            
000025b8  __covrec_2FD8CB8A6C6EDB40                                           
00005178  __covrec_3019980DDC50367                                            
0000aad8  __covrec_302AECCC0C858B3B                                           
00015c30  __covrec_302F2AC2878AEE63                                           
00024118  __covrec_303E360AA0461E56                                           
0000a768  __covrec_304E18D2F9F45EDB                                           
0001f6e0  __covrec_3060B93F85E68B18                                           
00024730  __covrec_307BB5214E98EBCB                                           
00022a70  __covrec_30A6073BD61E816A                                           
00021418  __covrec_30B5CF75E7DDB3BE                                           
0001b3b0  __covrec_30B7C7B021FF32BD                                           
00007248  __covrec_30BD8DE109F6A6C0                                           
000117e8  __covrec_30C3839985E99589                                           
00024578  __covrec_30C72D90FAAB52FA                                           
00024af0  __covrec_30E2ED287923C2A1                                           
00018e58  __covrec_30ED4319F76DB893                                           
0000b410  __covrec_30F3886B58C722DA                                           
000237e0  __covrec_30F8FDE14BEBA5C3                                           
0001d228  __covrec_30FBE63F83B9D1D                                            
000224f8  __covrec_30FFBF09B05F3927                                           
0001ec40  __covrec_30FFD4E1DBF1C36F                                           
00000278  __covrec_310F4356F52C2BD8u                                          
0001aa28  __covrec_3129FF84AE3F76E2                                           
00000108  __covrec_312A4BFE34759836u                                          
0000f2b8  __covrec_312E870E011EC8B2                                           
000209f0  __covrec_31384D9C1FCD85B5                                           
00006be0  __covrec_31385D0A5C5ECCD9                                           
000027c0  __covrec_3144113EBAF0748A                                           
0000d828  __covrec_314BFFF2ED3BAB39                                           
00018548  __covrec_3163B63F3B49E158                                           
00022048  __covrec_31723A59EE01CB6F                                           
000088c8  __covrec_31A47AAB2C67F6A1                                           
00013c00  __covrec_31B0598EDF1F8AA0                                           
00014790  __covrec_31B1F8CB4704B234                                           
00024780  __covrec_31DC30DDC7036A3C                                           
00021008  __covrec_31DC7ECBF26839AC                                           
0000a718  __covrec_31E428D7E2D46BD5                                           
000023d8  __covrec_31EEF1F57798FEFF                                           
00010cd0  __covrec_31F379EA8C23BAF                                            
0001a708  __covrec_31F7B8F147936BE1                                           
000178f0  __covrec_31FD0D502C5066BA                                           
00025888  __covrec_3218CEAEDF4FBA00                                           
0001fff0  __covrec_321A183A8097BE95                                           
000180c0  __covrec_322133A61A45AB4E                                           
0000a808  __covrec_323107E4A53950D0                                           
0000f768  __covrec_32406CE96AD54CC6                                           
0001f960  __covrec_324DA2EC0B259559                                           
0001dde0  __covrec_325BB6249AC215ED                                           
00003c88  __covrec_3283E5A9A4CF0BC4                                           
000173c8  __covrec_328AFB179A26404D                                           
00020c98  __covrec_328C937DCC0945C6                                           
0000cb80  __covrec_3295A3A04841FC98                                           
000173f0  __covrec_329ACE27EDB24189                                           
0000f010  __covrec_32C1B7F23D8464C3                                           
00015d98  __covrec_32E8DB488C68B78D                                           
0000c388  __covrec_32EB7C29B8B7D10D                                           
00002a90  __covrec_32ED5050B1CF04E5                                           
00015848  __covrec_32F0D770382D1DA9                                           
00018188  __covrec_33066D15E3040297                                           
00019fd8  __covrec_331725AF5DF50438                                           
000210d0  __covrec_331B394963683510                                           
00002540  __covrec_331C470C749ACBD5                                           
00014740  __covrec_3325AABB0D89DD6E                                           
00015870  __covrec_333383517C1FF008                                           
0001c4e0  __covrec_33495A652304E49                                            
00012af8  __covrec_334BD7A87CCBE1B3                                           
00014f60  __covrec_33562C81DF7B10BF                                           
00014c68  __covrec_338D56CED01B062B                                           
0000cec8  __covrec_33B0B1BABA644397                                           
0000e020  __covrec_33DFA63102C832AB                                           
0000a920  __covrec_33E711B8D37BFCF7                                           
0001abe0  __covrec_341863ACF88CD371                                           
00001230  __covrec_342982F9C03E3F40                                           
00003b48  __covrec_34341448736923FB                                           
0001ac80  __covrec_3435C80BC3722BAD                                           
00022390  __covrec_343940E2870E9B0E                                           
000201a8  __covrec_3440A467A910C969                                           
0001fc58  __covrec_3443F015958810F5                                           
00012e18  __covrec_3447398A55683CD8                                           
0000c450  __covrec_3457B91BDC322763                                           
000256a8  __covrec_346C6355D054AFA7                                           
00021dc8  __covrec_347833257255D714                                           
0000e958  __covrec_3479AFF692E8911D                                           
00017b70  __covrec_347D20A347D54D3B                                           
000130d0  __covrec_347F5236CD6A8821u                                          
00003788  __covrec_34809DF8D1BF4D26                                           
000048b8  __covrec_348C30B49144F67F                                           
000205e0  __covrec_34960821BB303171                                           
000078d8  __covrec_349B04B237865073                                           
0001ca58  __covrec_34AF19AADA685B0E                                           
00006a00  __covrec_34C502341677FECD                                           
00016400  __covrec_34D87877B62187C0                                           
00005858  __covrec_3504DD5C743EF86A                                           
000084b8  __covrec_3508B8496631ADA3                                           
0000bcf8  __covrec_350A5D4826DC45C7                                           
00005830  __covrec_35239701729AF62B                                           
0001ae10  __covrec_352F9E2440E9C139                                           
00023cb8  __covrec_35368D2270EB9D54                                           
0000d5f8  __covrec_354B464C0F657B6D                                           
00000078  __covrec_35529E691EA89C4u                                           
0000bcd0  __covrec_3554A3535079A9B8                                           
00010d48  __covrec_357DBB1D373C5745                                           
00006ed8  __covrec_35830D69832371D1                                           
00015f78  __covrec_358682B259B0A962                                           
00020338  __covrec_35A409F0E6C93C4C                                           
00010168  __covrec_35C020036EBBC4CF                                           
0000dff8  __covrec_35D0AF4CE8D9BB74                                           
00003828  __covrec_35D987AB78D74FB7                                           
000029c8  __covrec_36147DA08306D7D3                                           
00016298  __covrec_36371372719FAE20                                           
00013958  __covrec_365DCC393F100621                                           
00017238  __covrec_3660EF20DA7A07C2                                           
000194c0  __covrec_366594CABF5FBBE1                                           
00001f00  __covrec_369EBE4562FFE977                                           
00014470  __covrec_36AB183A395E4CAF                                           
00017be8  __covrec_36C64B2F466F1472                                           
00015230  __covrec_36CAFF9A6A4269C6                                           
00016978  __covrec_36CEC9582B8D65CF                                           
000106b8  __covrec_36F31055BFEFEE2B                                           
00003328  __covrec_3705C06D6C4FE24A                                           
0000a038  __covrec_37577A44EB1B098D                                           
000107a8  __covrec_377070A394B5568B                                           
000157a8  __covrec_37752C52AA74DBFE                                           
0000a600  __covrec_3795D86443E81AC1                                           
0001fa00  __covrec_37961B0C63A935F4                                           
00016db0  __covrec_37BBD65DD58D473                                            
00005420  __covrec_37CD18880083987A                                           
00002658  __covrec_37E0B9C5A8C13D9F                                           
0001f320  __covrec_37E4676AA453B73A                                           
0000a970  __covrec_37E4E8B3CF98DF5                                            
000070e0  __covrec_38287782C5C79C88                                           
000186b0  __covrec_3838EAEF37C9B024                                           
0001ca80  __covrec_3886213F5ECF5BC5                                           
0000eac0  __covrec_3888426049BC3634                                           
000208d8  __covrec_38889281C354E797                                           
00013d68  __covrec_38A0CEE2744B092C                                           
0000ffd8  __covrec_38D88FC9BFD6A295                                           
0000edb8  __covrec_38E439AA27968E3                                            
00001988  __covrec_38F859CF76D43240                                           
00005650  __covrec_3912347DA8298BAA                                           
00014628  __covrec_392FECAD18A74184                                           
00008a80  __covrec_393B0491E4F8D00D                                           
0000acb8  __covrec_393EC39D4A1D073D                                           
00002cc0  __covrec_393FCCF8C4978C78                                           
0000ef98  __covrec_3948C13DF4657192                                           
00011018  __covrec_3949055E6442241B                                           
0001d750  __covrec_3971B1944E0C574C                                           
000217b0  __covrec_397D89BAB9602260                                           
00008850  __covrec_398B0C6EC5A542F3                                           
000120d0  __covrec_398E34A9689A87E5                                           
0000b910  __covrec_399CFEF338DB8D25                                           
00024410  __covrec_39B0DFCD7DF2AB37                                           
00018b38  __covrec_39BD400369155FF7                                           
000146c8  __covrec_39C130C9E557E548                                           
0001f848  __covrec_39FF74C6619FBAEE                                           
00001be0  __covrec_3A06FB6037037AAA                                           
000172b0  __covrec_3A1D4C8225602426                                           
000141f0  __covrec_3A26CCF0B62A8E89                                           
00016838  __covrec_3A36369733F8D5B6                                           
00015be0  __covrec_3A479AE32438F206                                           
00007c20  __covrec_3A4C82A0E7698A95                                           
00002ef0  __covrec_3A6F728DB2933D23                                           
00021710  __covrec_3AA23B4CA70BF4D8                                           
00019a60  __covrec_3AAA2A3C5CE52BA3                                           
00024b18  __covrec_3AAA503472040552                                           
00021940  __covrec_3AC1DBF81307EA6C                                           
0000c5b8  __covrec_3ADE431F4254482A                                           
000099f8  __covrec_3AEDC6040279E949                                           
00019998  __covrec_3AF95226F44434B7                                           
0001f438  __covrec_3AFB7D729C4BABB0                                           
0001c7b0  __covrec_3B097A2085B9CD1E                                           
0001c7d8  __covrec_3B1FE69DF6A41D79                                           
00022430  __covrec_3B24D5353F7BB6D1                                           
000157d0  __covrec_3B3A4AD98C182DE4                                           
00022980  __covrec_3B4669D912F6CCFB                                           
000035d0  __covrec_3B77633B4B950B60                                           
00023948  __covrec_3B8712F8CC28A7DB                                           
00004020  __covrec_3B88FB2307EC5396                                           
00001960  __covrec_3B892A9A7E8CE4C0                                           
0001da20  __covrec_3B8B8236C02173C2                                           
000166a8  __covrec_3B9AD5E448524FFF                                           
00016d88  __covrec_3BB04CDDF195DCC8                                           
00007db0  __covrec_3BBA6A23C252B0F9                                           
0000a150  __covrec_3BE9423D50EA9D45                                           
000170f8  __covrec_3BEB96B4128A074A                                           
00024618  __covrec_3BEEED776316E3D8                                           
00021f08  __covrec_3BF2B88451504C58                                           
0001fed8  __covrec_3C024D0166B213F1                                           
00007b08  __covrec_3C0402302E250449                                           
000017f8  __covrec_3C18B9FE13117D16                                           
00001488  __covrec_3C4002EAA7D49987                                           
00015370  __covrec_3C422C657214FCF6                                           
00014330  __covrec_3C4C09DA7A2DAAD2                                           
00008120  __covrec_3C7F9E5F17A20A10                                           
0001d5c0  __covrec_3C99A72BDFB45697                                           
00016860  __covrec_3CC05BCBB89EC8C0                                           
00023718  __covrec_3CCD0FBCDE385140                                           
00021440  __covrec_3CD7868FF6D37CF3                                           
0000cfe0  __covrec_3CEA1FCCEF3DBC71                                           
000199c0  __covrec_3CFE3402D2666528                                           
00020e00  __covrec_3D01C64E096BB6C9                                           
0001c5f8  __covrec_3D0817C7DF21F89F                                           
00015938  __covrec_3D0A3FF0C21D6472                                           
00019858  __covrec_3D25EC3DE4E423F3                                           
0000b4d8  __covrec_3D39F38A838BA87D                                           
00007360  __covrec_3D3D45815DDAB1B1                                           
00019088  __covrec_3D5160002BBF26F9                                           
00002e78  __covrec_3D571E662A813950                                           
00012f80  __covrec_3DA3843A27A81DD6                                           
00012580  __covrec_3DA4DA35CA36371B                                           
00010410  __covrec_3DA9EF63272D03D6                                           
00011720  __covrec_3DBC39666C08BE1A                                           
00023448  __covrec_3DBD25D85CE95350                                           
0000f9c0  __covrec_3DBE3CD7FBE30937                                           
00014ba0  __covrec_3DC72BA4C9ECB1F9                                           
0001f488  __covrec_3DCF74A11C3A8FF3                                           
0001f870  __covrec_3DDAFC730FA6812                                            
00024438  __covrec_3DE34E8EF07EF7FD                                           
0000b938  __covrec_3DF8EB9EB81C9F94                                           
0000eca0  __covrec_3DFC6A438A14851B                                           
0001c148  __covrec_3E1568D9541C8352                                           
000241e0  __covrec_3E1A6E5850148636                                           
00004a20  __covrec_3E1B71F073B73EE5                                           
0001fca8  __covrec_3E27CE08F0E438A7                                           
00004340  __covrec_3E39DF23C74A38E5                                           
00016040  __covrec_3E5598E6C0B42553                                           
00002248  __covrec_3E66503B0C42DEFE                                           
000066e0  __covrec_3E6BBDC4F16A0399                                           
00001a28  __covrec_3E951A11418A61A5                                           
0001ffa0  __covrec_3E9B067C2AF7B980                                           
00023e48  __covrec_3E9B0EF1AFDE6C23                                           
00015ca8  __covrec_3EA0432BC3C9FA6C                                           
00010690  __covrec_3ECB4620D4F2B54                                            
0000d1e8  __covrec_3EEF23B8764362AD                                           
000237b8  __covrec_3EEF78312BD96C34                                           
00023498  __covrec_3F10DB2D12771804                                           
000074c8  __covrec_3F1747B5273764D1                                           
000037b0  __covrec_3F1A72753EA94A4E                                           
0000dda0  __covrec_3F2849ACFD37338                                            
00017ad0  __covrec_3F3F06B0DE5DFDFD                                           
000099a8  __covrec_3F436FF351A506BA                                           
00023150  __covrec_3F515E8DEDCFDB3C                                           
00007978  __covrec_3F56134F3A837B32                                           
00023128  __covrec_3F5C1E56D1753C63                                           
0001b2e8  __covrec_3F67DCC65271B3FF                                           
00022408  __covrec_3F79BDA4008A8933                                           
00013bd8  __covrec_3FD1311A037EBF95                                           
0000de40  __covrec_3FF7CDC1E5FA420E                                           
000215d0  __covrec_4013210C481D0A23                                           
00007108  __covrec_402DB03729397EC                                            
0000de90  __covrec_4057D4434CEB1901                                           
000245c8  __covrec_405D48D0FC02CE4                                            
00018f70  __covrec_406378224CE7840F                                           
000076f8  __covrec_407844472D54F4E9                                           
00017d50  __covrec_40835A27C3B3C9BC                                           
00005bc8  __covrec_408A5C1A5EBA36CA                                           
000054e8  __covrec_409D19F4B84A0F58                                           
00009778  __covrec_40B821E5CAB93869                                           
0001cb70  __covrec_40C2045D2339AE27                                           
0001b9f0  __covrec_40C30177E58A8F00                                           
00018c28  __covrec_40C3C35157F185E9                                           
00002ab8  __covrec_40C84713401C5E04                                           
0000e908  __covrec_40D1C91CB225CDE7                                           
000212d8  __covrec_40D646295DAC752                                            
000124e0  __covrec_41100A100CA13801                                           
0000bb90  __covrec_4122889FA736072C                                           
000171c0  __covrec_4125B57286A5529                                            
00024f50  __covrec_41297A6DA905A84F                                           
00004610  __covrec_4131CCDFE265F063                                           
00012e90  __covrec_4134C91BA68EDB6                                            
000035a8  __covrec_413DEA5001A9C0A1                                           
00001c58  __covrec_4142D68B97CE7A83                                           
00002ae0  __covrec_414DF0C1F4097B3F                                           
000045e8  __covrec_4161706FC0727DDF                                           
00005740  __covrec_4165235CA24C1B9                                            
00004098  __covrec_4168E9C5BA014C04                                           
0000fc90  __covrec_417105283F34FA91                                           
00001550  __covrec_41723B77F6A658B                                            
00005cb8  __covrec_418367DD7B7DA8DC                                           
00018db8  __covrec_41838BAC8E2D2787                                           
0000ed18  __covrec_4185E97B66CAE26D                                           
00017490  __covrec_41AEBAB8BD1FD2DB                                           
00022a20  __covrec_41D355DEE93F316                                            
0000efe8  __covrec_41EAD252A13439                                             
00010be0  __covrec_42150677174D23DD                                           
0000a858  __covrec_4218969EDD2F96                                             
0000d328  __covrec_423B32735ABEE139                                           
00008788  __covrec_424F9ABB3A934781                                           
00010ca8  __covrec_42581A22AA3172D                                            
00005088  __covrec_4285CF593845455A                                           
00001c30  __covrec_42897D42A307E202                                           
0000d968  __covrec_428E1F3CAAE4C04F                                           
000093e0  __covrec_42902BB808A4D1EF                                           
00001aa0  __covrec_429C8E3D5DA45455                                           
00022fe8  __covrec_42B1FA5D2A28E44C                                           
00006ac8  __covrec_42BC449C21DA185                                            
00022ef8  __covrec_42C38FC99BBB9DEE                                           
00011fe0  __covrec_42D7E6BFF8F28128                                           
00009458  __covrec_42F33F88ABFAC61E                                           
0001faf0  __covrec_430272C77074C92                                            
00011748  __covrec_4305B0ECA8CA430C                                           
00020590  __covrec_430FD1DD48650ACE                                           
00016c20  __covrec_433BCD6A7AE9A476                                           
00006848  __covrec_4341B94A2E722AFF                                           
00015cf8  __covrec_4351608A646C6B0                                            
000190b0  __covrec_436280033B12932A                                           
000184d0  __covrec_4372B022B5546D6B                                           
000139a8  __covrec_4378EEF47529ACB7                                           
0001e2b8  __covrec_43CA149CDA99F19C                                           
0001a320  __covrec_43D8C40C41906745                                           
00007f18  __covrec_442A430F20FC86A3                                           
000072c0  __covrec_442B73EC1631C6C7                                           
00025680  __covrec_4436F28390350551                                           
000139d0  __covrec_4442015EC0C5EEBB                                           
00004548  __covrec_44552CAD93172DC4                                           
0000b6e0  __covrec_446622ED9C1840B3                                           
0000a4c0  __covrec_446F5DADE651B560                                           
00018b88  __covrec_4474B8D0BC074C04                                           
00015c80  __covrec_449CAC6A58F3AD72                                           
00022818  __covrec_44B12D8825409BC2                                           
00017d28  __covrec_44C5379EEB9C4                                              
00011fb8  __covrec_44E69B74BCCD13D4                                           
000022e8  __covrec_45329F73E3306D2C                                           
0001f050  __covrec_45436CBF3A4CA093                                           
000042c8  __covrec_4564E0D99522DAB4                                           
00012ad0  __covrec_457085E76B282B6C                                           
00021490  __covrec_45806013A668158C                                           
0000f560  __covrec_45B647E39B682649                                           
00005448  __covrec_45C0DBC71DA8684C                                           
00014cb8  __covrec_45D841902927495C                                           
000200b8  __covrec_45E0153103EFF78C                                           
00014948  __covrec_4600AE4381D2A14B                                           
00002338  __covrec_461801DFEE909D44                                           
00025568  __covrec_4636F542C7B57A00                                           
0001aca8  __covrec_46453BBBC5316FD3                                           
00015e60  __covrec_4665283335DF6F97                                           
000224d0  __covrec_4698FA8E637FED05                                           
00006398  __covrec_469E637CA988FC48                                           
00013868  __covrec_46BEBFAC6345CB29                                           
00010910  __covrec_46E76E8E360A0C1E                                           
0000f998  __covrec_46E927B734E17863                                           
00012828  __covrec_46ECCAB0D20E2D2F                                           
000193d0  __covrec_46EDCBBEAFD38B16                                           
00020e28  __covrec_46EDE5804B593543                                           
0001f000  __covrec_4718A562B567B04C                                           
000239e8  __covrec_4726466DEFBBB981                                           
00001dc0  __covrec_47336612E16DB997                                           
0001be28  __covrec_473C66096BA722FD                                           
0001c9e0  __covrec_4749F46D3908955F                                           
00020e78  __covrec_475CA32B2C2CE266                                           
00017fa8  __covrec_476992FF089351FB                                           
00009110  __covrec_47719EF0C2505C6D                                           
00008580  __covrec_479305AD7137086                                            
00008a08  __covrec_479711A5E93BCD79                                           
0001e308  __covrec_479B15013490219A                                           
000015f0  __covrec_479D42B935B8B3B5                                           
00007518  __covrec_47A1AAD6D2864DCD                                           
0001c0d0  __covrec_47BE7FD010B31ACF                                           
0000aab0  __covrec_47E765846A35F5F0                                           
00018480  __covrec_47FB578411340773                                           
0001aa78  __covrec_483E582084ED31BD                                           
00011cc0  __covrec_484915A1660C4ADD                                           
00020d38  __covrec_485836BA7ADA70E7                                           
000044a8  __covrec_488332ED3830E0A1                                           
0001ba18  __covrec_4891A72BFF7F5031                                           
0000df58  __covrec_48937F495609D83D                                           
0000f218  __covrec_48A933F3EC50F0A8                                           
00018020  __covrec_48B35313DF575FFA                                           
00023100  __covrec_48BFA1C093CFE041                                           
00020b58  __covrec_48CBB17F0CCCA98C                                           
0000b2f8  __covrec_48CE50F8D52B7FC2                                           
000064b0  __covrec_48D2196A3097E1AA                                           
00018520  __covrec_48DB928E5EA29731                                           
00012328  __covrec_48E78E3FDA48EE20                                           
00010140  __covrec_48F5EAAD9E6C8EE                                            
0001de58  __covrec_4920BE8E09645FFF                                           
0000bf28  __covrec_492BD43910BF35D2                                           
0000d8c8  __covrec_4976D361B44A5AA3                                           
000204f0  __covrec_497DA2F3E5D93472                                           
0000d350  __covrec_49836DD0588C9E28                                           
00017148  __covrec_49838A933E918F6A                                           
0001efb0  __covrec_49B99623CFA970C2                                           
000036e8  __covrec_4A138A2F94F5B54                                            
0000e278  __covrec_4A4BE10CC563067C                                           
00010870  __covrec_4A56FA659AA55CD7                                           
000073d8  __covrec_4A5833104821FE1A                                           
00011450  __covrec_4A61F6B9BC8DF04E                                           
00006668  __covrec_4A62D11BFF32F158                                           
000116f8  __covrec_4A6AE6D3DB383E83                                           
00023538  __covrec_4A70D883AED610D6                                           
0000f358  __covrec_4A72F70204081B46                                           
00014150  __covrec_4A7ED0D2F2AEA5EE                                           
0000eae8  __covrec_4A8C95F2901A2A17                                           
00010230  __covrec_4A95379E049807A4                                           
00005998  __covrec_4A9E5727820F0B79                                           
00012d50  __covrec_4AA97523FC44D7AA                                           
00004890  __covrec_4AB53885E10B1CD1                                           
0000bc30  __covrec_4ABA73B77A14DAD2                                           
00004980  __covrec_4ACD14DB65A6ECF                                            
0001e6c8  __covrec_4AF143174640E56D                                           
00022890  __covrec_4B154ED39D9AF395                                           
00016ba8  __covrec_4B1752517A897C5                                            
00007180  __covrec_4B2009B7B57A282                                            
00005290  __covrec_4B3A9EFE59CA0F49                                           
00007ba8  __covrec_4B3F45FC9CDB9EFC                                           
0000ab28  __covrec_4B4401ABB5A490E5                                           
0000a3f8  __covrec_4B52E7E277D2906A                                           
00019ba0  __covrec_4B5ADC67ED6C8790                                           
0000f1c8  __covrec_4B7058B238D5EE8C                                           
00010e38  __covrec_4BB13C6D2C07FA75                                           
0000a268  __covrec_4BC92750F6E4394D                                           
00015a50  __covrec_4BCFC91C4159B7BB                                           
000127b0  __covrec_4BD5C6BAF3982F25                                           
00006140  __covrec_4BF43358D9C784D5                                           
00002748  __covrec_4BF510FC55383884                                           
000101b8  __covrec_4BF9B0DAF0D91016                                           
00010348  __covrec_4C011B2E588F3AD8                                           
000204c8  __covrec_4C2163C5B5E62E0A                                           
0000f5d8  __covrec_4C2BC544BEC29D43                                           
0000ac90  __covrec_4C5690A5ADD061BC                                           
00000e98  __covrec_4C7C7B8218576D96                                           
00013ea8  __covrec_4C80DA44FB3A96A9                                           
000101e0  __covrec_4CD0F71F925E9B51                                           
0000a8d0  __covrec_4CE4D14CBC122464                                           
00023560  __covrec_4CF1F17A7E634135                                           
00001208  __covrec_4CFC427266DAF9B4                                           
00002590  __covrec_4D11DFB9E72C0363                                           
00009a70  __covrec_4D2C1FCED3663AAD                                           
0001ad20  __covrec_4D32569C34B2D696                                           
000094a8  __covrec_4D369D9F8B447C9                                            
00009e58  __covrec_4D37CEC82BD0624A                                           
00012800  __covrec_4D540ADD089969D1                                           
0000e4a8  __covrec_4D6B2F6A0E873DE1                                           
00002928  __covrec_4D79DFFC218AA882                                           
0000fe20  __covrec_4D893FD47865BD7D                                           
000250b8  __covrec_4DAE465C3086FC76                                           
000201d0  __covrec_4DC7EBBFBBF2C80C                                           
00007ae0  __covrec_4DD7FE0063D6F801                                           
00003170  __covrec_4DDBE288079BAAFA                                           
00001d48  __covrec_4DDFE6C79CDE1DD6                                           
00018368  __covrec_4DE3D6A3E8BDB070                                           
0000bb40  __covrec_4DFB2826E662DF64                                           
0000b5a0  __covrec_4E0009E35F9820B6                                           
000133b0  __covrec_4E1A7F59973ACCB2u                                          
00021d28  __covrec_4E1DBE19647923AA                                           
0000c900  __covrec_4E389136703DAA00                                           
00003cd8  __covrec_4E39159A7DC2D1D7                                           
000219e0  __covrec_4E427332E8382E46                                           
0000af60  __covrec_4E58DBF4327476                                             
0000d6c0  __covrec_4E79604DA6C33FBE                                           
0001f3e8  __covrec_4EB0839C474D2F33                                           
000065f0  __covrec_4EB4DE6278586942                                           
000148f8  __covrec_4EC6A12FB13E3388                                           
00003580  __covrec_4EC8FBA1BC906A34                                           
00004728  __covrec_4ED473186836C9F8                                           
000107f8  __covrec_4EE49BB3AB220CA6                                           
0001e2e0  __covrec_4EFB28BC93277616                                           
0001a578  __covrec_4EFD1DA62AB1D0E3                                           
00023e98  __covrec_4F1EDF961F9F9089                                           
00010898  __covrec_4F1FACCBCFB28F3B                                           
00016f40  __covrec_4F2301F1873D147E                                           
0000eef8  __covrec_4F299318312286E8                                           
00011d10  __covrec_4F39CC6FFDC46A21                                           
0000dd28  __covrec_4F40815ADE61F553                                           
00003878  __covrec_4F43DD462170D6A7                                           
0000a060  __covrec_4F5034F68A0F6868                                           
00002568  __covrec_4F5570D02111AF3E                                           
00007090  __covrec_4F5A0016AA3C5F0E                                           
0000d238  __covrec_4F603E9B159454D0                                           
0001ce18  __covrec_4F658069E82642B3                                           
00009c78  __covrec_4F78411F447223B5                                           
00011040  __covrec_4F80FCB6AF56C1BF                                           
00012238  __covrec_4F8E90F8B87E841B                                           
000172d8  __covrec_4F98EC9A5D6C22FC                                           
00003cb0  __covrec_4F9D25F183F38EFE                                           
000232b8  __covrec_4FC04B3E518F0361                                           
00016fe0  __covrec_4FE47ABC0D76B93E                                           
0000b258  __covrec_4FE67DC2E1EF49E8                                           
000092a0  __covrec_4FF1D189217509C1                                           
0001b680  __covrec_4FF6C882AEFBE71                                            
0001a758  __covrec_500923B66EDC1559                                           
00003e40  __covrec_5012195C2A75603C                                           
00010370  __covrec_50158A1C814E88F1                                           
0000c018  __covrec_5021B2C9510FC692                                           
0000dc38  __covrec_503B0E149A309351                                           
00016e00  __covrec_50443E9660573DAD                                           
000021a8  __covrec_504ED95DA880F5C6                                           
0000c798  __covrec_5060055544111B77                                           
00022598  __covrec_50652C5F2DE678E3                                           
00001938  __covrec_50A373D18B0FFA46                                           
00008e18  __covrec_50BFCFBD37B02BA7                                           
00011630  __covrec_50C76919062D84EF                                           
00002e00  __covrec_50D36B9A8266DB7F                                           
0000e200  __covrec_50D9C2907F2F177B                                           
00000d30  __covrec_50DE964502EC87AA                                           
00019f10  __covrec_50E1A630398A4DB2                                           
00021c88  __covrec_50F46F04ABA816B1                                           
00015c08  __covrec_511C8E60BD52A8FB                                           
0001bae0  __covrec_512002C148919CFE                                           
0000df08  __covrec_5133B7C7ED853A06                                           
00000898  __covrec_514DC2CFE5BA1471u                                          
0000cc48  __covrec_5152F22C0290C38F                                           
00015d20  __covrec_51714BA3B36DEA32                                           
00006050  __covrec_51735FBBEA80D60                                            
00004b88  __covrec_517D97B0D9F66267                                           
00015578  __covrec_51932377A8B429F2                                           
00020810  __covrec_51997A82F632E9B6                                           
0001adc0  __covrec_51A09EDC84208728                                           
00014718  __covrec_51BBACEB942ABDE0                                           
0001dc50  __covrec_51C74FFAA225D32A                                           
0000fa60  __covrec_51D64361C3BC16DE                                           
00015348  __covrec_51DD21FD505FE478                                           
00006e38  __covrec_51E307723B773C8F                                           
000102f8  __covrec_51F410CB3925D6BF                                           
00012968  __covrec_522A7AAA33520C67                                           
0000c338  __covrec_522B85D7DD261692                                           
000046b0  __covrec_5234D9BA8DA701A0                                           
0001a2a8  __covrec_525C3DF9C95B7EC                                            
0000db70  __covrec_526342166FE9AD5D                                           
00017210  __covrec_5284D5E45F2661CB                                           
0001fbb8  __covrec_528F08850A5A6AA                                            
00011e00  __covrec_528FD4CE93671574                                           
0000de18  __covrec_52B889F10C63FA0F                                           
0001d660  __covrec_52B97E8CA708B350                                           
00013688  __covrec_52DA6B89AFD9BEEFu                                          
0001a438  __covrec_53274C6784AC6740                                           
00016c70  __covrec_5333A61D2C451B71                                           
000192b8  __covrec_5341AC3ACCD56D5A                                           
000125d0  __covrec_534285ACC9CA037D                                           
000145b0  __covrec_536847D883D87D6E                                           
0001a370  __covrec_538F62B599A02D85                                           
0001fd98  __covrec_53A77370C248305E                                           
0000a8f8  __covrec_53B5B24542B7B7B2                                           
00003260  __covrec_53B5EDD4129C7CAE                                           
000096d8  __covrec_53B7B03D06DAD846                                           
000042f0  __covrec_53E99002C74A19FD                                           
00010cf8  __covrec_53F8B818284C7377                                           
00001cf8  __covrec_5401686A9DFA6DD7                                           
00022a98  __covrec_5406CB2E1C44728                                            
0001fbe0  __covrec_5425D9490B6AD1D3                                           
00006af0  __covrec_542AC2B7D26F630E                                           
0000a6c8  __covrec_542EDA095F9F10C0                                           
0001c328  __covrec_5431C2A10E3AF27F                                           
00008b98  __covrec_54334786232CBA15                                           
00005678  __covrec_544741C7626FC489                                           
00004f20  __covrec_544D884798225780                                           
00013ae8  __covrec_547CF9FBFA8DAB2                                            
00005b00  __covrec_5480EF413009591B                                           
0001c3f0  __covrec_548397170303D112                                           
00012508  __covrec_5487E132B81AC176                                           
0000ae20  __covrec_5492BAC5784C87A                                            
000050d8  __covrec_54A61207AB1C8803                                           
00013b88  __covrec_54BFE4BB339D82FA                                           
00011c20  __covrec_54D9E3CE8ABC54B                                            
0000f380  __covrec_54DB41EDF6719D19                                           
000236c8  __covrec_54DEC94B3D73D88D                                           
0001e1f0  __covrec_55266747A4570DA1                                           
0001c1c0  __covrec_5540FB3D09913541                                           
0001c030  __covrec_5543982661761F02                                           
00012878  __covrec_5572EB51769482B6                                           
0001f618  __covrec_55810F3EB635025A                                           
0000e368  __covrec_55935849ED96C911                                           
000062a8  __covrec_5598C2D3A595D088                                           
0001c828  __covrec_55C345FCDBE2932D                                           
0001cf80  __covrec_55C646F71E54567                                            
0000bfa0  __covrec_55F2F6FEE16873A3                                           
00005628  __covrec_56085ADF5836AA9F                                           
0001fb68  __covrec_563C36D078652BFB                                           
0001fcf8  __covrec_564B00DAE5D93552                                           
0000fec0  __covrec_5677D1460C676295                                           
00011518  __covrec_567F876D6677D11D                                           
0001fd48  __covrec_5683CC655E710871                                           
00020ea0  __covrec_5693A03265561EA1                                           
0001f758  __covrec_5698EC3DDF5C0D44                                           
0001a7d0  __covrec_56994D288387D9E1                                           
0000bde8  __covrec_569E36D24E405724                                           
000086c0  __covrec_56A017C820E5D3BD                                           
0000fb28  __covrec_56A6F3E240263F82                                           
00002298  __covrec_56B506C2BC02E91C                                           
0001cff8  __covrec_56B780A4FDEE900D                                           
000055b0  __covrec_56CEDE8163B3CB8B                                           
0000d0d0  __covrec_56F29B357FBA9AEE                                           
0000b870  __covrec_56F720173E8E275F                                           
000038f0  __covrec_56FBA9E085BE9A7C                                           
00011388  __covrec_56FE177820412F34                                           
00006d20  __covrec_570038A39016DCA6                                           
0001a230  __covrec_572E084EA8EAC4C5                                           
00016658  __covrec_5749A9E4CCC687D1                                           
00002860  __covrec_574E3319BD616EB1                                           
0001ed08  __covrec_575DC9889DF6949E                                           
000184f8  __covrec_5767CF3A670B399C                                           
00021968  __covrec_5775237149682687                                           
00020fe0  __covrec_5792CDB37B0EB554                                           
0001b568  __covrec_57A66E83E0547B4C                                           
0000d1c0  __covrec_57A6B7CE85908727                                           
00004bb0  __covrec_57A6D5A65C5B3378                                           
0000d4b8  __covrec_57C8E993CFB21865                                           
00013588  __covrec_57CDA72D04A5E694u                                          
0000a358  __covrec_57D16D6D6948EB01                                           
000187c8  __covrec_57DC8F9B3C4337A2                                           
000168b0  __covrec_58173AEB70F92F68                                           
00020158  __covrec_581FA69547FF1789                                           
0000c1d0  __covrec_58273DDAF5EF7BCB                                           
00002e50  __covrec_5835E017265EAC9                                            
000164f0  __covrec_583D9624CEFEF063                                           
00020680  __covrec_58550788DEC90388                                           
00008940  __covrec_5860C371925C50B3                                           
0001f280  __covrec_586FB34E967A1C01                                           
000241b8  __covrec_589F986B7592F53B                                           
00008300  __covrec_58A256A381B8741C                                           
00005038  __covrec_58AB0095D0462155                                           
0000be38  __covrec_58D078CB4DF7EA19                                           
00002b80  __covrec_590A25A7C6E37D6D                                           
0000fd08  __covrec_590AB443330E8D7                                            
00008058  __covrec_592920B80EA0F6AA                                           
00019970  __covrec_5942973784CEEA25                                           
00008d00  __covrec_5954765430B71D2A                                           
00016770  __covrec_5959C51EAFB0B0AB                                           
0001eba0  __covrec_59674A5A4E18485A                                           
000229a8  __covrec_597B766BDF97E9A4                                           
00008dc8  __covrec_598DB71CCC9658BD                                           
00003d28  __covrec_59AAD31544B5076F                                           
0000f5b0  __covrec_59BE15B1181A9B83                                           
0001c710  __covrec_59E40C65BB4D18F7                                           
00019b50  __covrec_59EA745BFA1ABDC0                                           
00024d20  __covrec_59F98C605AC61246                                           
00016018  __covrec_59FF2B4C942CC8BA                                           
00001ac8  __covrec_5A09D5787493D5C9                                           
00011db0  __covrec_5A0C9143FD84E425                                           
0001a2d0  __covrec_5A2DEE3595B11481                                           
00023740  __covrec_5A37A076E8C9BBDA                                           
000154d8  __covrec_5A3EEBA233C7FD36                                           
00007478  __covrec_5A69C2B4BBDEF984                                           
00020248  __covrec_5A717D53595AA9DE                                           
0000a5b0  __covrec_5A858D3F59642680                                           
000245f0  __covrec_5AA4C50A3572C884                                           
00016608  __covrec_5AA5C0ECFAA2F10                                            
0000ed90  __covrec_5AB5CF63C45A393C                                           
00011ae0  __covrec_5ABBE65F0653BE84                                           
00005d58  __covrec_5ABFC33597442B1                                            
00010aa0  __covrec_5AC7226CF1898722                                           
000088a0  __covrec_5ACB30537B3EB18B                                           
0001ddb8  __covrec_5AD07ACFA2247082                                           
00022ea8  __covrec_5AD6145C62BED28F                                           
00003d78  __covrec_5AD669155A7FD3BC                                           
00010578  __covrec_5ADA9B0D2A5017BB                                           
00004db8  __covrec_5AEADFBB5946BE30                                           
0000a240  __covrec_5AF037AFEF81DD4C                                           
00005ec0  __covrec_5AF3AB8A2D222FFC                                           
00009b60  __covrec_5B28372F2578CA17                                           
00023d08  __covrec_5B2EF3F713A9AD4C                                           
00024ff0  __covrec_5B3116183A6F0466                                           
00017dc8  __covrec_5B4547B2E6288EA9                                           
00017760  __covrec_5B5EF01BC99E5A86                                           
0001b388  __covrec_5B7AB3B015354B82                                           
00017f30  __covrec_5B93A986E69D6689                                           
00005010  __covrec_5B96B74B87817C00                                           
0001d1d8  __covrec_5BD32E00C445D602                                           
00003f08  __covrec_5BD9DF22CCFAE98                                            
0001f230  __covrec_5BE8C1F5F9F49C79                                           
000080d0  __covrec_5C05E803D49D9BEE                                           
0000c4f0  __covrec_5C1576647B188489                                           
000169f0  __covrec_5C20B4D769B6D32F                                           
000118b0  __covrec_5C23E1E19E04E29E                                           
00014ad8  __covrec_5C2CCE1E95C8ED88                                           
00014600  __covrec_5C3E23360D9CC29D                                           
0000c400  __covrec_5C640ED73BB5AC77                                           
0000e160  __covrec_5C6AAE09FC477053                                           
000110b8  __covrec_5C8A3517134A2F75                                           
00005a60  __covrec_5C97293B9A1446F8                                           
0001f730  __covrec_5CA635E71B7D840A                                           
0000e548  __covrec_5CD26FB90BCED7C0                                           
00018318  __covrec_5CDB53EB55DAC376                                           
0001f528  __covrec_5CEF60968AFEBE0C                                           
0001a460  __covrec_5CFAB2D619F63C5                                            
00010960  __covrec_5D02235509BFC90B                                           
00006fa0  __covrec_5D117E2F2348EE1D                                           
0001e420  __covrec_5D2E7F106E151629                                           
00009a98  __covrec_5D6B604BE1688422                                           
0000d878  __covrec_5D759AD54A51C560                                           
00020180  __covrec_5D7FBF201AF53977                                           
0000e6d8  __covrec_5D8191A06357DB48                                           
00020d88  __covrec_5DB286C142F2FC00                                           
000085d0  __covrec_5DC57B6C5387B0BF                                           
00017c10  __covrec_5DCBC94E2F239EF0                                           
0001bc98  __covrec_5DCE58CE14EFB2DE                                           
00006618  __covrec_5DD57223B0C9C8E7                                           
00013f70  __covrec_5DF05A020DDAC415                                           
000213a0  __covrec_5DF83C55D6E82DD6                                           
0001ee20  __covrec_5E08C98A59626A7F                                           
000165e0  __covrec_5E1546171B50C0C5                                           
000111f8  __covrec_5E2793446CE62405                                           
0000c6f8  __covrec_5E63994024C272DD                                           
00005920  __covrec_5E724785C75D8B1C                                           
00006a28  __covrec_5E90C8A7C77E62B                                            
00024460  __covrec_5EA71F0DEB9B9AE1                                           
000052b8  __covrec_5EBA757AD5362FB2                                           
00015500  __covrec_5EEB11B587254FC6                                           
00015168  __covrec_5EF187E37416A4F9                                           
00015a28  __covrec_5F2C4E1FA0B9AA98                                           
00015640  __covrec_5F54C48325B5A57F                                           
00022ca0  __covrec_5F86F943AF231A95                                           
00014240  __covrec_5F8A9EEA556599FE                                           
000174b8  __covrec_5F8EB310E228C202                                           
00024de8  __covrec_5F9688E4D5455A4F                                           
00024b68  __covrec_5FAB5DB66DF3F6B1                                           
0000f100  __covrec_5FC90BCB9BDEE2F0                                           
00022d68  __covrec_5FF2A874BA51D671                                           
0001ba90  __covrec_5FFD77205848B964                                           
000176e8  __covrec_600121E2FBDF7D4E                                           
00020888  __covrec_600D5DFBC7E8E0D1                                           
00021b98  __covrec_601D8438B0B370FE                                           
00017df0  __covrec_601FDE1BE8C6AAE0                                           
00007018  __covrec_60268C04E157130                                            
00008fd0  __covrec_603C4A24A72CD084                                           
00013d40  __covrec_6041B4936B66AE76                                           
0001caa8  __covrec_60422E52F6D7CCB4                                           
00016590  __covrec_60463F3D453FCBCE                                           
0001b798  __covrec_608554DE1C9501C7                                           
00023a60  __covrec_608E1EBDE4771F04                                           
00005a38  __covrec_608E33FAF71CD46C                                           
00023f10  __covrec_609D0681607B0888                                           
00006578  __covrec_60A7C3C6CFFBF6BB                                           
0000cb08  __covrec_60ABE3D4642716F5                                           
00011a68  __covrec_60B66828073175A3                                           
0001dca0  __covrec_60B6B884D1017516                                           
0001d390  __covrec_60B82B20ADF3A6C9                                           
00013808  __covrec_60BB75E91683A620u                                          
0001bfe0  __covrec_60C4F50F13ECC26                                            
0001b338  __covrec_60CD53922E0964B6                                           
0001c8a0  __covrec_60CE23351F0BB0C5                                           
0000af38  __covrec_60D379CDD6602B55                                           
0001d368  __covrec_60E01FB0FEA6B10F                                           
000258d8  __covrec_60E17CA99ACCDE1D                                           
00019178  __covrec_6100AF97F9A9E9F7                                           
0001cf30  __covrec_61126BC06481CB11                                           
00018f20  __covrec_611766D475D70993                                           
000106e0  __covrec_6128075D70C3749A                                           
00012620  __covrec_6132AAB3C0E55139                                           
0000bdc0  __covrec_614199C48FE1C6FE                                           
0001a1e0  __covrec_61449AE38B530A4                                            
00007a90  __covrec_6146E250077EC09F                                           
00015618  __covrec_614A14DB5C7FA19C                                           
0001cd28  __covrec_614E3FACC915D745                                           
000025e0  __covrec_6155EB021B100336                                           
0000db20  __covrec_615D4DFDAEE8F5FA                                           
0001e3d0  __covrec_616CE32FFC7272F1                                           
000098e0  __covrec_617875CD5ECA105A                                           
00023fd8  __covrec_617E8FCBAE7597D0                                           
00019240  __covrec_61840838A007A7EE                                           
00016270  __covrec_619272C7739451E2                                           
0000d490  __covrec_6192B153F7A45656                                           
000183e0  __covrec_619C2FAE5D265277                                           
00019308  __covrec_61C676D4F7B32687                                           
00004e08  __covrec_61D2FB3054744554                                           
00021288  __covrec_61DF9CC8984FB629                                           
00017738  __covrec_61EA836F28914C82                                           
00009fc0  __covrec_61EF2AFE98DB8055                                           
00020e50  __covrec_6204ED5D4EDC7D02                                           
0000b5c8  __covrec_62051AEAC0DB039E                                           
00005c18  __covrec_62084489AF7C8B7C                                           
000185c0  __covrec_622C64949E26680D                                           
00024c08  __covrec_6230355C4154A2EB                                           
000214e0  __covrec_623CC9784B4121C1                                           
00004ef8  __covrec_6246F31A890E1052                                           
0001ae38  __covrec_6280E7CD83141F1B                                           
00014380  __covrec_6286C85827C38416                                           
000049a8  __covrec_628B61BE319F9679                                           
00002fb8  __covrec_628E8CB12D86BA20                                           
00012aa8  __covrec_629BC61C748AAD39                                           
00016680  __covrec_62A98C93F42CDCD3                                           
000079f0  __covrec_62B1E1752379B12                                            
00016180  __covrec_62C0A1F549FDA73                                            
00007ab8  __covrec_62D6F001D375B980                                           
000091b0  __covrec_62F58EE238111E5F                                           
00011d38  __covrec_63110FBAC80097F6                                           
00023060  __covrec_6313EF3067172709                                           
000222f0  __covrec_6314EB5485BC7F25                                           
00021580  __covrec_633024824CBAEE71                                           
0001c620  __covrec_6335E4F87C82DFDD                                           
0000d8f0  __covrec_63437E4292F0A2A2                                           
000022c0  __covrec_6350F1427BDBCBA9                                           
00024550  __covrec_6352F0854902E882                                           
0001c918  __covrec_6357598EEBCB078A                                           
000081c0  __covrec_6364703EFF600AA6                                           
00008530  __covrec_63706C8790FA7816                                           
0001fa78  __covrec_6382BE4728128A7B                                           
0001b6d0  __covrec_638756E0999BF942                                           
00002400  __covrec_638800DCFCC6C312                                           
0001fa50  __covrec_639B738A714F9727                                           
00019920  __covrec_63D016BC5F283A2B                                           
00025978  __covrec_63D8F0E07CCD453E                                           
0001e970  __covrec_63DD24C70A829FA0                                           
0001a938  __covrec_642A5D35D62CCC35                                           
0001ba68  __covrec_643F4F8E75138635                                           
0000cd88  __covrec_64404D100FD6C22D                                           
00021da0  __covrec_6442263EB4C4ECE0                                           
0001a988  __covrec_644EE4DEA57C92BA                                           
000183b8  __covrec_6450FD0A03211B5F                                           
00007fb8  __covrec_6459BAA298CF9CE                                            
00016a68  __covrec_6471B342D16BEEB2                                           
00013908  __covrec_64798FC843A57EC4                                           
00001028  __covrec_647E33FBE0720A0A                                           
000135e8  __covrec_6497BFE2A00B8653u                                          
00017990  __covrec_6498EABD08FE2134                                           
00023880  __covrec_64AAD3E48D70B9                                             
00001690  __covrec_64BBDD26F1D921EE                                           
0000ff38  __covrec_64C5CA9C95669B3C                                           
0001d3e0  __covrec_64C631C3419D8497                                           
00011888  __covrec_64C7A4BF5A8DF1E8                                           
00012210  __covrec_64C9E02EF6F2E8C0                                           
00016b08  __covrec_64CC73B6A273C4C6                                           
0000fcb8  __covrec_64D4D25B998153EF                                           
00020a18  __covrec_65091D5E19CE7236                                           
00016810  __covrec_650B600441780F70                                           
0001a4b0  __covrec_650D813178C6FBA0                                           
0000bc80  __covrec_6526B58678A09D49                                           
00009890  __covrec_65295D897BB0CBCC                                           
00004110  __covrec_6538C684323396FC                                           
00021350  __covrec_65452D93FF7AE6CE                                           
0000cd10  __covrec_65607F8F175D3DF3                                           
0001cfd0  __covrec_656B3D9D6026034                                            
0001e150  __covrec_656CD7E4E614AD16                                           
00016d38  __covrec_657DCEB9CBC9A15                                            
00012d00  __covrec_658A0406798EE4A3                                           
0000f4c0  __covrec_658B61B2852291                                             
00011860  __covrec_659293771E06CFC4                                           
0000d580  __covrec_65A36E377BFF4140                                           
00016b80  __covrec_65CF7FB8BFC9DCA0                                           
00006e60  __covrec_65F5DD547A710F2C                                           
00019330  __covrec_65FB37FD3ECB0783                                           
00005808  __covrec_65FE78A027491217                                           
00004778  __covrec_660B421D0F3AED0D                                           
000205b8  __covrec_66203DD865386CF4                                           
00005e20  __covrec_66306A416DA96275                                           
00001de8  __covrec_66500E50B0B1F73                                            
000049d0  __covrec_66549FEF22F4CBF2                                           
0001da48  __covrec_66884EF09B90C267                                           
000120a8  __covrec_66A098987A7F89B4                                           
00011428  __covrec_66D411F20F714460                                           
00019ab0  __covrec_66E9970543670AE8                                           
00003080  __covrec_66F0B6C07DF11212                                           
000078b0  __covrec_66F8D9355BB91267                                           
00018c78  __covrec_66FCC1F75E2E4197                                           
0001dc28  __covrec_670FD0ADF37D7A4F                                           
0001f668  __covrec_671D097439EB28D6                                           
000077c0  __covrec_6720F6E112D47B70                                           
00008828  __covrec_6728AFB98B59E0F6                                           
00001870  __covrec_672DF4DF3115E557                                           
00023218  __covrec_6732255AC3A1FA23                                           
00019e48  __covrec_67345CC240590D89                                           
00015bb8  __covrec_674309A670714414                                           
00019c18  __covrec_6769A1B6579C1917                                           
00025658  __covrec_676F8970FE61FFB9                                           
00013f48  __covrec_6772213A314354D1                                           
00023768  __covrec_67B70B543A763C65                                           
00004cc8  __covrec_67CA448EDB527C2E                                           
00015410  __covrec_67DA54DDFC65307F                                           
000059e8  __covrec_67E16177FB2CA184                                           
0001e0b0  __covrec_67EBF9464B1739FF                                           
00024a00  __covrec_67F0E0E2F00783DA                                           
0001b888  __covrec_67F252814530E1AE                                           
000244d8  __covrec_68010FB294048503                                           
00025158  __covrec_6822925391E24728                                           
00023f38  __covrec_6858C8E5B39CEB34                                           
00024000  __covrec_6884C285E245124A                                           
00007bd0  __covrec_68893DEBD5238A7C                                           
00013fc0  __covrec_688EB108228CD2D5                                           
00009480  __covrec_68CA334CAEA443FD                                           
00014b00  __covrec_68D7D6BD174BD691                                           
000162e8  __covrec_68D88CCC12AD2A3F                                           
00003148  __covrec_68DAF03864561129                                           
00025360  __covrec_693DE5C38757BCA9                                           
000094d0  __covrec_693EEEF3AE8BDAFC                                           
00011478  __covrec_6958F1651247860D                                           
00024208  __covrec_695B846627E823D1                                           
0001ac30  __covrec_6964C0ABD1B3D33E                                           
0000c090  __covrec_696761E3DEA56327                                           
00009cc8  __covrec_6968E0AA64E330C                                            
0000f8f8  __covrec_69778F10E0095724                                           
00018728  __covrec_69790632A0BC140D                                           
000180e8  __covrec_697D5C899E463194                                           
00014b50  __covrec_6984BC0E4025AAAD                                           
00021990  __covrec_69C2D9C3FFABDF1E                                           
0000c838  __covrec_69C3FB96747DC8D5                                           
0001c260  __covrec_69C8694219275654                                           
00022b38  __covrec_69DE16BA85A71611                                           
00022908  __covrec_69DE4DF1890DADB7                                           
000076d0  __covrec_69E23090EDC44A08                                           
0001f190  __covrec_69F779B385F91D45                                           
00012d28  __covrec_6A0345376AE15E64                                           
00014e70  __covrec_6A0D657EAAFA6D83                                           
0001ec90  __covrec_6A1A64384C549626                                           
00017918  __covrec_6A1E7BC147A9A584                                           
0001b428  __covrec_6A20DA2468D71674                                           
00006500  __covrec_6A3F1DF39DBDE263                                           
00003030  __covrec_6A4F0E39210DE667                                           
0001b068  __covrec_6A6362E7A2077239                                           
0000f920  __covrec_6AAF52BB6CA8D4E1                                           
0000f510  __covrec_6AB07BF230A81BB2                                           
0000e3b8  __covrec_6AB560A63580B474                                           
0001e010  __covrec_6ADB0BC98E99DF0C                                           
00001500  __covrec_6AE87179FCE2171A                                           
00022458  __covrec_6AEE3ED1AB86CC6C                                           
00007888  __covrec_6B14B2305FB93EC7                                           
0001f1e0  __covrec_6B1D995AB962F0B2                                           
0000f3f8  __covrec_6B3CE2BBE9AC8D08                                           
00004278  __covrec_6B4018E023B2448C                                           
00010b40  __covrec_6B453CD6DD04C026                                           
00004070  __covrec_6B610540AEDBE3D9                                           
00025400  __covrec_6B6CF2E8B51150E7                                           
00011248  __covrec_6B7AC8582912A706                                           
00006410  __covrec_6B857797428775CB                                           
00004a70  __covrec_6BC6425809386662                                           
0001e1a0  __covrec_6BC92AC9CC41220E                                           
00014a10  __covrec_6BD34685A631A1D6                                           
00015a78  __covrec_6BDA03C7088A51E1                                           
0000cb30  __covrec_6BEBEED0547734F                                            
00002130  __covrec_6BF0724D256C264D                                           
00008198  __covrec_6BF3D5C13127096D                                           
00014f88  __covrec_6BF83EE06BDBD2E2                                           
000014b0  __covrec_6C0656B1924900D6                                           
0000cd38  __covrec_6C154DF9A0952D50                                           
000164c8  __covrec_6C58C8CB7A51E29B                                           
00018228  __covrec_6C6D0F2F16F1F38D                                           
00014a60  __covrec_6C6F66E03D089E18                                           
0001be00  __covrec_6C743F583DE17023                                           
0000c8b0  __covrec_6C826EB2E67739D7                                           
0000ec78  __covrec_6CABFDF727DEB99D                                           
000196f0  __covrec_6CC6679ECBEE14F9                                           
00001d70  __covrec_6CD08FFBE8856BA4                                           
00008af8  __covrec_6CDDB9B722D7B1CD                                           
0000e8b8  __covrec_6CED2B31BF175C92                                           
000062d0  __covrec_6CF4C146DDBAB0AA                                           
0001d9d0  __covrec_6CFE6451EC9C52F9                                           
00004688  __covrec_6D00EDEF5950BE18                                           
00000980  __covrec_6D22FD705ECC53F3u                                          
000029f0  __covrec_6D2593278C80A476                                           
00017d00  __covrec_6D31441440B2B830                                           
0000f7e0  __covrec_6D42232FDDEC3C8E                                           
00018d90  __covrec_6D66CFB74E90B79C                                           
000072e8  __covrec_6D80AC7ED9EC12AA                                           
00006938  __covrec_6DA74E5F566A1580                                           
0001f988  __covrec_6DCA04C94E6C21D3                                           
00015d70  __covrec_6DDBBF9D5036FD29                                           
00012080  __covrec_6DEF844F5306A3D5                                           
00012eb8  __covrec_6DF6092064767CAA                                           
0001dd18  __covrec_6E1A44D3C8BC259D                                           
0000d260  __covrec_6E20C05915C835E9                                           
00001000  __covrec_6E4F2C24B6A2A741                                           
000128a0  __covrec_6E4F8D8FE46E140F                                           
00021760  __covrec_6E5290F4B1AC7C97                                           
00009b38  __covrec_6EAC611B0E0D6323                                           
00022d90  __covrec_6EBA548D6F415BA1                                           
00018ae8  __covrec_6EE2BF9459318274                                           
00019f60  __covrec_6EEA99F60149DC25                                           
00002838  __covrec_6EF6146B9B2D8774                                           
0001df20  __covrec_6EF8002856E4CBFC                                           
00016158  __covrec_6EFB6DE4C2F58B43                                           
00002810  __covrec_6F049B001CF91D56                                           
00022d40  __covrec_6F0FAD3458A6C65F                                           
00022480  __covrec_6F20C2D7023DB8E8                                           
000046d8  __covrec_6F4181D801950305                                           
0000fd30  __covrec_6F43901BF0C5BF3E                                           
0001cc88  __covrec_6F6B58E351921A4C                                           
0001c558  __covrec_6F87E0D31011FA87                                           
00021b20  __covrec_6F902A328862CA3C                                           
00012378  __covrec_6F9DBC0879E6F780                                           
00015780  __covrec_6FA5483804028977                                           
0000d418  __covrec_6FA754AA5ADC144                                            
00005c40  __covrec_6FB7F472A5FC4D9A                                           
0001a348  __covrec_6FC2A34653C7B741                                           
00021b70  __covrec_6FC781AA1F8A0AF6                                           
00010078  __covrec_6FCDA577449FD68D                                           
00009318  __covrec_6FEFCF087A7A31B0                                           
00008008  __covrec_6FF4F2965D901313                                           
00017698  __covrec_70073D59154FBB90                                           
00002068  __covrec_701C59DFC7AB5E50                                           
00017bc0  __covrec_70226340E9DAF01A                                           
0000a0d8  __covrec_70261151D964C5A3                                           
00009f20  __covrec_7032240A560FBC9B                                           
0000a1c8  __covrec_7052D8D50CB2993C                                           
0001ad98  __covrec_707AD4A7445FB443                                           
00000030  __covrec_708B7A7D79BBA6F8u                                          
000021f8  __covrec_7090EF9BB9ECCCBA                                           
00017058  __covrec_7092067BD5916200                                           
000075b8  __covrec_709AE09C042464C2                                           
0001ee70  __covrec_70AB79C230504C55                                           
00005768  __covrec_70ABE6AB2E0A44F0                                           
00003350  __covrec_70B4357B513E6E62                                           
00004598  __covrec_70BF86CAF7586804                                           
00006348  __covrec_70C1FB1762D3B02                                            
0000fa88  __covrec_70C4D8C01CD09878                                           
0001cda0  __covrec_70CF8CA989011034                                           
00005948  __covrec_70E36BBB41B2DA3D                                           
00017968  __covrec_70EC87587136D382                                           
000222a0  __covrec_710DEE95B1A70540                                           
00000be8  __covrec_711D83ACFF41F158u                                          
00022c28  __covrec_7139FD0F045F9185                                           
00024c80  __covrec_7149D062015CF471                                           
0001e830  __covrec_716AB83B32900FE5                                           
00008148  __covrec_7175EB5C17997144                                           
00008648  __covrec_718EA69841000F82                                           
00007cc0  __covrec_71A970415B1F17F1                                           
00018890  __covrec_71DB72C3301D9EA2                                           
000173a0  __covrec_7228F69D8F36EB6F                                           
00009340  __covrec_7248740CA5A948C5                                           
00013db8  __covrec_724B69EBC536E402                                           
0001b1f8  __covrec_7267E5B89742BDEF                                           
00018c00  __covrec_726A5C9D52F7F5E7                                           
00019718  __covrec_7291D6678338BC48                                           
00020018  __covrec_729FBAB722BFBBA7                                           
0001de08  __covrec_72D21F5906349DB2                                           
00004d90  __covrec_72E6C5D80B3C427B                                           
0001d4a8  __covrec_73146D47C2268B40                                           
00025040  __covrec_731B204584E19236                                           
00001258  __covrec_7321D59323761343                                           
0000cb58  __covrec_733D26D6BCAA58F0                                           
000120f8  __covrec_7342A38FC7016E18                                           
00005e98  __covrec_73454A4CC88E4C01                                           
00001708  __covrec_7353CE7FEE333041                                           
00017170  __covrec_735D7B941E383EA1                                           
00023038  __covrec_73735C19FACE89E4                                           
00004e58  __covrec_7385D0385FFF7221                                           
00006168  __covrec_73915CB04DEAF1A5                                           
0001e1c8  __covrec_73921255196ED739                                           
00016720  __covrec_73B1F7479AB6411A                                           
00013330  __covrec_73D06BFCEB79115Fu                                          
00015fa0  __covrec_73DD9FCB2CCA7C8E                                           
000105f0  __covrec_73F689707721D1AD                                           
00011928  __covrec_73FA822B9937464B                                           
0000d288  __covrec_74267C0695C72F51                                           
00006988  __covrec_74391D792AD4170E                                           
00006640  __covrec_7453CBCFD2C7A1C1                                           
00007f90  __covrec_745B1FFE34D7CF64                                           
000065a0  __covrec_745EAEF1B3E26EB9                                           
0000b0a0  __covrec_745FC0507DBF5653                                           
00015e88  __covrec_7462DC7A71D86840                                           
0000b050  __covrec_74644F9FD4276C45                                           
0001fe38  __covrec_746721CCAF0ACA8E                                           
0001f460  __covrec_746E139C881AA4DE                                           
00022c00  __covrec_74794AE17B5C57B9                                           
00025630  __covrec_74886A0737907A5C                                           
00025770  __covrec_749663B955003AA6                                           
00005ad8  __covrec_74A2C8659FB00465                                           
00022138  __covrec_74AD938A5BA92A7E                                           
0000f0b0  __covrec_74AEBC6A6A083FBA                                           
0001d728  __covrec_74B4AAA5875A1A40                                           
00015a00  __covrec_74BCAFA8ECADE0A0                                           
0001b900  __covrec_74BF17EF8000DDA7                                           
0001ee98  __covrec_74C599A820D7E755                                           
00001f28  __covrec_74D2F2AFCDB36EC1                                           
00012300  __covrec_751788504F3D6385                                           
000024a0  __covrec_751B237BBCCD315A                                           
0001e768  __covrec_751C6A39772D4981                                           
0000e048  __covrec_75346CDAEBEF94B4                                           
00023f88  __covrec_753AC122F5322A9A                                           
00014d30  __covrec_753F40F7B964E92B                                           
00013bb0  __covrec_754324FB8D9A7A07                                           
000238a8  __covrec_7549A71CC7241F46                                           
0000f740  __covrec_754DBCEF0C91EC86                                           
00013718  __covrec_754DE0ABC1699C52u                                          
00020f18  __covrec_754FB894AEB3A2B4                                           
00015988  __covrec_755B8BFE980A79C2                                           
00002b58  __covrec_7566C1EA1C4A9FA7                                           
0001fc80  __covrec_757BBA318B051CC4                                           
0001f708  __covrec_757DFFBA2ED8856A                                           
00015550  __covrec_759DA5659B0848DA                                           
0001c170  __covrec_75A8DE6340DA4CB3                                           
000161d0  __covrec_75AAF50C859E50CC                                           
00024168  __covrec_75B4464203626D69                                           
000065c8  __covrec_75C1DD23A5633C01                                           
0001a168  __covrec_75E3E8E045B77C3                                            
00013cf0  __covrec_75F1BF7FBDDFEB47                                           
00016dd8  __covrec_75F48255A7DB16EE                                           
0000ea20  __covrec_75F4B41DAC5D5FA8                                           
00021508  __covrec_75FF3BCF01AD1DCE                                           
00010550  __covrec_76324FF454CA8C86                                           
00020d10  __covrec_763DF4557E4E5E72                                           
0001d110  __covrec_7642F55933F834AD                                           
0000bac8  __covrec_76845CF680C9FCF6                                           
000140b0  __covrec_76904C01277EB08D                                           
00002a40  __covrec_76AF09D8A0E8922C                                           
0001ac08  __covrec_76D4C9D79366C347                                           
00014538  __covrec_76E4256734D158F0                                           
0001bea0  __covrec_76FA1361CF01BDA3                                           
0000ca18  __covrec_76FE5E9F622492AD                                           
0000cce8  __covrec_770C7C9EA3F651B0                                           
0000a7e0  __covrec_775472B4957149E5                                           
00005790  __covrec_7767458722D3F499                                           
0000b460  __covrec_776C1AE014694DDC                                           
00010500  __covrec_778A7931576CD100                                           
00018f48  __covrec_778D7F40FA03F2E9                                           
000115e0  __covrec_77932A5C4EFE99AA                                           
00008ad0  __covrec_77A6BDE22A6B804A                                           
00021c60  __covrec_77AFE7D5BE45A231                                           
0000ffb0  __covrec_77B456D3892D4D60                                           
00003968  __covrec_77CAA1683AAB0909                                           
0000fa38  __covrec_77E5CDDADDBA78DF                                           
000254c8  __covrec_77E8D9E82E558C56                                           
0001d6d8  __covrec_77EC49B74F3623B4                                           
00011180  __covrec_77EED7747D921AD6                                           
00007950  __covrec_780837B77E070772                                           
00021670  __covrec_780EF97DE54A250A                                           
00022b60  __covrec_780F2DA8DE31FC9E                                           
000044f8  __covrec_782CC13AE7D03020                                           
0001bd38  __covrec_78368865D6205216                                           
00019b78  __covrec_78426C8A160B6351                                           
0001e0d8  __covrec_7849C203D9D4558A                                           
00024690  __covrec_784B640CB8E108BA                                           
00017440  __covrec_78597822E22CC415                                           
00022b88  __covrec_786C1CC0E1F24C6C                                           
000029a0  __covrec_78794523CE225953                                           
0000a998  __covrec_787CCE372ECE1703                                           
00013b38  __covrec_78A6620B2B654D40                                           
00016888  __covrec_78AD70B3007626BA                                           
00020ec8  __covrec_78BBAA4C0B416C21                                           
00010dc0  __covrec_78D316F9D4D52749                                           
0001a0a0  __covrec_78E44053E051208B                                           
000226b0  __covrec_78F30011E96A5C42                                           
00017828  __covrec_79080B738D71DCA0                                           
000178c8  __covrec_79177773D074D56A                                           
00000fb0  __covrec_791B2A9887D2E76C                                           
000103c0  __covrec_792012C6E86331AD                                           
0001acd0  __covrec_79483E28CA94B7B7                                           
0001a618  __covrec_7970AA4372F62F23                                           
00009fe8  __covrec_7989C326531FB912                                           
0000d378  __covrec_79AA2E716B0186E6                                           
000123a0  __covrec_79B221631BF16FA                                            
0001ded0  __covrec_79B455E75A91963                                            
000213c8  __covrec_79B4F91832129CA6                                           
00017cb0  __covrec_79D6AA16F231D6E                                            
0000ff60  __covrec_79D6C9B6AB30DFDE                                           
0000fb00  __covrec_79DB03467E5AD05B                                           
0000bca8  __covrec_79DF84256646FB6                                            
00018958  __covrec_79E89AE24E1E33A3                                           
0000a308  __covrec_7A0676277243BAD3                                           
000223b8  __covrec_7A067878B7FDE586                                           
00014df8  __covrec_7A071E65D3316B74                                           
000243e8  __covrec_7A0EA898D56D0CFC                                           
00000e20  __covrec_7A784FE332807A16                                           
00007a18  __covrec_7A9526D5F51E58B2                                           
0001d4d0  __covrec_7A9B0D8ED1CC3EDE                                           
00014060  __covrec_7A9D5D7B9AB5F84B                                           
000221d8  __covrec_7AA1C05CED579EC5                                           
0001ff00  __covrec_7AC6F1147BA12A69                                           
00019628  __covrec_7ACF2422A306985E                                           
00008eb8  __covrec_7AD5F74206F94A2                                            
00006d70  __covrec_7AE65A96E6D73410                                           
00007bf8  __covrec_7AEF22C3C5A790FD                                           
0000e480  __covrec_7AF15341018DC87E                                           
0001f5c8  __covrec_7AF5297569FCAA08                                           
00025130  __covrec_7B0291F67719FE1E                                           
000148d0  __covrec_7B0D1997C0B96950                                           
00017418  __covrec_7B1BF4E8C50F2A0D                                           
000230d8  __covrec_7B424DF0B25FFF2D                                           
00016540  __covrec_7B4F680C24B702F2                                           
00008260  __covrec_7B5CB03FB8B421F0                                           
00018868  __covrec_7B7E33D7E8902EE6                                           
000071d0  __covrec_7B8191C42D1A466                                            
00015f50  __covrec_7BB562F45E0D5B23                                           
00025540  __covrec_7BCD1EAB9F4C3537                                           
0001a668  __covrec_7BCFB99D45157AF6                                           
00019808  __covrec_7BEAFE9253C2DC91                                           
00020b80  __covrec_7BF25F52501F5463                                           
00011900  __covrec_7C09B740FBD55353                                           
00019df8  __covrec_7C1807FD8A2400E0                                           
00024ac8  __covrec_7C742A04106EA598                                           
00021e90  __covrec_7CE52103876A38E8                                           
000075e0  __covrec_7CEAE8765D581DE7                                           
00004408  __covrec_7D0A08FD24C34835                                           
0001c508  __covrec_7D0DD1100E5C3292                                           
00025590  __covrec_7D40DEB2329FBEA7                                           
0001cdc8  __covrec_7D42ED8A1849121                                            
0001f780  __covrec_7D4D287D0E89CC67                                           
0001a730  __covrec_7D5CB73C05FC6F34                                           
00023808  __covrec_7D622BAF5C1DD492                                           
0001f168  __covrec_7D68043D64CDCF90                                           
00001168  __covrec_7D88F17B34FB744A                                           
00006960  __covrec_7DA0373C5B6ECD5B                                           
00022318  __covrec_7DA2BD1290B5E601                                           
00011c48  __covrec_7DBFA9FA2B174F6E                                           
00008b20  __covrec_7DCE2A0C2F989C24                                           
0000efc0  __covrec_7DE42E6F8214B4DD                                           
0001e8a8  __covrec_7DEA2A08886235ED                                           
00005510  __covrec_7DF4E4893D6968B4                                           
0000ea98  __covrec_7E08409EF7334EC2                                           
00017300  __covrec_7E094802DB2C7872                                           
0000aa88  __covrec_7E362BC88F155F12                                           
0001d840  __covrec_7E376119588B9530                                           
000188b8  __covrec_7E3C84C442B06ADC                                           
0001c5a8  __covrec_7E4E238AD334240D                                           
0000f948  __covrec_7E79DF9231D22F72                                           
00013c78  __covrec_7E833D27BC76F69                                            
00023b78  __covrec_7E8D5D9947CB4DEB                                           
00001730  __covrec_7E93332F9FC94425                                           
0000e930  __covrec_7EEE72D65E4C94D                                            
000103e8  __covrec_7EF02E878D70B9C9                                           
0000a7b8  __covrec_7EF04239D7946C5B                                           
000229d0  __covrec_7EF36698A1E34789                                           
00008e90  __covrec_7F180B02348BDD56                                           
00003b98  __covrec_7F215DEC01634412                                           
00021af8  __covrec_7F39F8D4F7AA2194                                           
000233a8  __covrec_7F52CB605BDD2FE                                            
00014510  __covrec_7F5390900BC1E039                                           
0000e610  __covrec_7F5B448C2F73CF                                             
0000e980  __covrec_7F702AD9417C52E2                                           
00012990  __covrec_7FAB3DB31A7F9BC4                                           
00005380  __covrec_7FEF9494DD412115                                           
0000a790  __covrec_800D3757DFC43742                                           
00001cd0  __covrec_803D6B3854AA57AA                                           
000189d0  __covrec_8040F2CFD3D473A4                                           
00020c70  __covrec_80440FC7E70A608E                                           
0001edf8  __covrec_8073F98D4C5CB220                                           
00000848  __covrec_808566F9D18611DAu                                          
000089b8  __covrec_8092F6A1C28B6EFB                                           
00002ba8  __covrec_809E2017ED33272                                            
0001f2f8  __covrec_80A20283D33EB74C                                           
0001dbb0  __covrec_80A35A396107311D                                           
00024f28  __covrec_80A470E2383756C7                                           
000028d8  __covrec_80A6280A97086707                                           
0000cf90  __covrec_80AB49A1817EF9BF                                           
0000a9c0  __covrec_80AE8DC0E44D9934                                           
00016130  __covrec_80DCCF459AA832D6                                           
0000d008  __covrec_80DFFE46C52FF29D                                           
00001ed8  __covrec_80ED159064605177                                           
000178a0  __covrec_80EFDD160ECC63A5                                           
00024c58  __covrec_80F12DDB53016D40                                           
0001f500  __covrec_80FAC2C06823F74B                                           
00006dc0  __covrec_80FB625967A42812                                           
00023380  __covrec_80FD584348984E04                                           
0001a0f0  __covrec_80FFFF73B4ABC887                                           
00019d08  __covrec_810D579CAA1E6A5D                                           
000158c0  __covrec_81193C19F1226052                                           
0001ea38  __covrec_811ED8DACF2F0A4C                                           
00021d78  __covrec_811F42F540BF9F2A                                           
00003eb8  __covrec_8123C5AF99C2D013                                           
000255b8  __covrec_812471B10D40FFA1                                           
0001d160  __covrec_813E893FC027E207                                           
00007ea0  __covrec_813FC4590BF13BF0                                           
0001db60  __covrec_81467A257584C92B                                           
000063c0  __covrec_8147130BB5BBB78B                                           
0000e8e0  __covrec_8157D792337D030F                                           
00006e88  __covrec_816371CB845B59F7                                           
000226d8  __covrec_81785CEA135AD10E                                           
00020ab8  __covrec_817DA88F4397C3F0                                           
0000f538  __covrec_81920FF0658AC4B8                                           
0001b770  __covrec_8196FC9DDEF99D32                                           
00005718  __covrec_819EFCE2A9A8D9D8                                           
000116a8  __covrec_81BF6E9A128378FB                                           
00020b08  __covrec_81D9214AFD4BDAC9                                           
000117c0  __covrec_81E7AE8A19811057                                           
00024258  __covrec_81F37EBCBF637F88                                           
0001f4b0  __covrec_81F4A0B0F22321B5                                           
00001b18  __covrec_82149204B9695853                                           
000202c0  __covrec_822640F61646CC5D                                           
000163d8  __covrec_823F1D2457AF8D4E                                           
0001cf08  __covrec_825B61DE411E2061                                           
00023830  __covrec_825BEE18E61FC99A                                           
00012f30  __covrec_825C2097246D4F9A                                           
00014ee8  __covrec_826D827693E26F8E                                           
0000ebd8  __covrec_827F9E87DDDBA34D                                           
0000ef70  __covrec_8280B760B3FC813                                            
000153c0  __covrec_82D68F70652044A4                                           
00019a10  __covrec_82D6940BA8D59531                                           
00022020  __covrec_82FF712195CADFA0                                           
00016338  __covrec_831A63E7C251114F                                           
00013e58  __covrec_831E1A4E4267625                                            
000198f8  __covrec_831EB062A57A0618                                           
00001050  __covrec_831FCAE354ABF90C                                           
00009098  __covrec_83241CDE1A2A1BE5                                           
00021e18  __covrec_832A43C86DB40C1D                                           
00020a40  __covrec_8334D045F180AF32                                           
000255e0  __covrec_8348022D202C8AC0                                           
00002bf8  __covrec_8370B94AAD70223C                                           
00000ce0  __covrec_837269C3FA55D1EC                                           
0000b8e8  __covrec_8373A61F00A06D76                                           
00012ff8  __covrec_83854F1EF683B63C                                           
00001848  __covrec_8397A520D9352683                                           
0000a740  __covrec_839D89700B8495CB                                           
00001b90  __covrec_83A165F7C60233C9                                           
0001c968  __covrec_83A7E935CDCDEF7A                                           
000017d0  __covrec_83B5E3182D9B2FD7                                           
00012670  __covrec_83C84E78BC80998A                                           
0000d940  __covrec_83CF5A4BBF635463                                           
00015b90  __covrec_83FC5939804F48BE                                           
0000d2b0  __covrec_8401DE39810A3D1C                                           
0000f6f0  __covrec_841A3E89DE7B1503                                           
0000c720  __covrec_8424EEBDEE7B44FA                                           
00010320  __covrec_8430DAE45D32A5F1                                           
0000baa0  __covrec_8437CAC55E9F7AA5                                           
00014830  __covrec_843E4D1E9BF6B555                                           
00010758  __covrec_844B4E70F5B3C45C                                           
00023a38  __covrec_845FD839DBC7C1AF                                           
00003f80  __covrec_8478DBC3FB02C4BE                                           
0001d908  __covrec_848A2C0F944BCCE0                                           
00006820  __covrec_848FC286A86F550C                                           
000043b8  __covrec_849C2704EF8C6B49                                           
000228e0  __covrec_84B2FD790164F848                                           
00021f30  __covrec_84B49415AF1868AF                                           
00000c40  __covrec_84C6C2CCE79C1167u                                          
00021a80  __covrec_84D04A2932D868E1                                           
0000ba00  __covrec_84D8531B8666ACB7                                           
00007158  __covrec_84DD193B35E42C70                                           
00018de0  __covrec_84E26731CB5A9EAC                                           
00007298  __covrec_851458891CDD87D5                                           
00000ec0  __covrec_851B2EA7D7C4D8FA                                           
000159d8  __covrec_8546DDDFA9C4DAA6                                           
00006690  __covrec_854E8274021D9E02                                           
0000e660  __covrec_8562E276DDDD73B0                                           
00002478  __covrec_856739BBC56285CA                                           
0001c9b8  __covrec_856B515851EDB492                                           
00003300  __covrec_856FCBF6AACD9C84                                           
00018430  __covrec_858246B40FF97B3A                                           
0001ea88  __covrec_8589C79F6871C223                                           
0001ae60  __covrec_859E28C748FFE64C                                           
00018138  __covrec_85D07076A9880596                                           
00003c60  __covrec_85EC960AB8029FDB                                           
00003120  __covrec_861A6CE3281F5850                                           
0001f078  __covrec_861ECA2F7740943D                                           
00017e40  __covrec_862F74E5EAEB7D2C                                           
00010e60  __covrec_8647183FF23AB3F8                                           
00019d80  __covrec_8656F45CC3A9BD8D                                           
000038a0  __covrec_865B1AD397798868                                           
00007c48  __covrec_8669035756F9D6D0                                           
000105a0  __covrec_867A50C4C80A3BC0                                           
00001d20  __covrec_86A6412CCA728B1                                            
00004660  __covrec_86AEC23F55F8191F                                           
00015eb0  __covrec_86BE7AAE5C9A1D91                                           
00004fe8  __covrec_86CEC0191B7E03EC                                           
00010988  __covrec_86DA2D20878BAF80                                           
00019e98  __covrec_86EFB8D70E3195D9                                           
00024fa0  __covrec_871145ED86CD1F0                                            
0000f600  __covrec_871CE3C7662B6451                                           
000015a0  __covrec_873506681A060D5C                                           
00000000  __covrec_87407FA9A44A40A2u                                          
00001b68  __covrec_874E62E72F36B6A5                                           
00004570  __covrec_877C734241086E91                                           
00009de0  __covrec_87A6F96949EC6BE0                                           
00024938  __covrec_87AAEC4718B9F8AC                                           
000102a8  __covrec_87AFAB7CBD8DD2FF                                           
00020360  __covrec_87B54D9AAE31261B                                           
00012058  __covrec_87B6EF534ED63016                                           
00007e78  __covrec_87B7381D6C5B06FC                                           
00002a68  __covrec_87C5583CECD1A5BE                                           
00015668  __covrec_87C9BEA1359FC9A0                                           
00017080  __covrec_87E2C683173C05DA                                           
0001e538  __covrec_87F49CE40477D202                                           
0001bf18  __covrec_8813AE4156258C77                                           
00013a70  __covrec_8833BE5CC8D8CD39                                           
00004ed0  __covrec_8834AF593DA98367                                           
000197e0  __covrec_883C1BD346B3B6A7                                           
00006cd0  __covrec_885267D8D4EC1E6F                                           
0001eda8  __covrec_8863A4DB3AC090CF                                           
00016f18  __covrec_887A079051E440D0                                           
0000c888  __covrec_887ED9EF8A1CEA45                                           
00000ab0  __covrec_887EE53A8C2837F2u                                          
00011f18  __covrec_88876920E7372B35                                           
000163b0  __covrec_889A5AA5ACC834CB                                           
0001b450  __covrec_889B730B19F33BB5                                           
000056a0  __covrec_88A8609BB7C2F3D8                                           
0001b108  __covrec_88AFBC48C36297DD                                           
00008c10  __covrec_88BDDB0E0DAED77                                            
0000ac40  __covrec_88BF6BD180C3C372                                           
000242a8  __covrec_88D20376481FF100                                           
0001caf8  __covrec_89030C179EB9C81C                                           
0001d278  __covrec_890AAC5CB222EC4D                                           
00002428  __covrec_890EE23580D0B32B                                           
000031c0  __covrec_891ADBAA475CFF01                                           
00002bd0  __covrec_8926B8927877DCBF                                           
0001db88  __covrec_892CE1FEF10A5D0D                                           
000068c0  __covrec_8968BEA53B6FDF72                                           
00011798  __covrec_896E3BBCAB83D694                                           
00010050  __covrec_8975B44E75AA770D                                           
00020a90  __covrec_89A03468FB70BAED                                           
000019b0  __covrec_89BD84610AAE51A                                            
00006c80  __covrec_89C7A5A378BB05C2                                           
00010d98  __covrec_89DA5A7AC4CAC786                                           
00019a88  __covrec_89DB25962A5EB408                                           
00016f90  __covrec_8A1E5EF64B22B12B                                           
0001cdf0  __covrec_8A1F9CA0D4334F06                                           
00023678  __covrec_8A28EF8B3F240F7D                                           
0001eb50  __covrec_8A5792BFD162766B                                           
00001fa0  __covrec_8A6048572D80696B                                           
00013e80  __covrec_8A64EB646297B7C9                                           
0000b168  __covrec_8A717ABB7D7FA223                                           
0000d670  __covrec_8A930C96FFF97522                                           
0000c068  __covrec_8A9BD8BB96C8BFFC                                           
00013078  __covrec_8A9FB042CC4F2B10u                                          
00012be8  __covrec_8AA416F13D55B683                                           
000042a0  __covrec_8AC73B9F2A394A8D                                           
000151e0  __covrec_8ADC157C3BA0D74                                            
0001f208  __covrec_8AE8A728D35176EE                                           
00015190  __covrec_8B1AB1F5C66D6D39                                           
0001bb08  __covrec_8B3C2D954ED0BA75                                           
0001cc38  __covrec_8B4A5432F640F7CC                                           
000146f0  __covrec_8B65E50AD9B90CB2                                           
00004f70  __covrec_8B6BE8C87F5917FE                                           
00012b48  __covrec_8B6F54DF424AA4D7                                           
0001ff50  __covrec_8B74CFDA35A78F8A                                           
00023ad8  __covrec_8B753A5C478F8754                                           
0000c108  __covrec_8B85AA92DE156C93                                           
00024500  __covrec_8B9A3DF1DFB13D5                                            
0000bf50  __covrec_8B9CB16919B76C7A                                           
00018688  __covrec_8BA3D2C2EDECD73D                                           
00013de0  __covrec_8BB0E9BD6752B68F                                           
00007798  __covrec_8BC303D4E3B3A392                                           
0001c468  __covrec_8BCACFC8A7CAB002                                           
00009ed0  __covrec_8BCE28BFAF90EEC                                            
00022f70  __covrec_8BDFCF1999B7FA38                                           
0001ad48  __covrec_8BE10D2019571717                                           
00017800  __covrec_8BE702C3BEFDEA81                                           
00007dd8  __covrec_8BF6B7FCE93A0974                                           
00008238  __covrec_8C1044548E765540                                           
00010b90  __covrec_8C198C6DE0EA2A85                                           
00019880  __covrec_8C3011EFB7930608                                           
00014a38  __covrec_8C68376B81A654D                                            
00020090  __covrec_8C7B9AC84A1290D6                                           
00012260  __covrec_8C80C2ED1239F2D0                                           
0001d818  __covrec_8CC132A12E67D303                                           
00013f98  __covrec_8CC88C2980D5E8E7                                           
0001def8  __covrec_8CCB7565812889A7                                           
0000b7d0  __covrec_8CCFC28D8E2733D4                                           
000080a8  __covrec_8CDE5432F465FC                                             
000149e8  __covrec_8D041F01DCFF76E9                                           
00019588  __covrec_8D17775B98F2D331                                           
00018d18  __covrec_8D1AA427298D1344                                           
000189a8  __covrec_8D4838020815225E                                           
000248c0  __covrec_8D541966D9D56E19                                           
0000a628  __covrec_8D5A86C8047BE8DA                                           
0001ab18  __covrec_8D6FF92E7B672D3F                                           
0000ca90  __covrec_8D8202BF920164C5                                           
0001e290  __covrec_8D824999EFBDB130                                           
00024668  __covrec_8D90CBB889ED1FE5                                           
00007e00  __covrec_8D92367B393E0A1E                                           
00021c38  __covrec_8D95D35639606030                                           
0001ead8  __covrec_8D9CC3D5970D5F2                                            
0001c238  __covrec_8DA516C1E6826A9E                                           
0000beb0  __covrec_8DB9DD12F96D579C                                           
000134c0  __covrec_8DCACE79A3C220A9u                                          
0000cef0  __covrec_8DD1DCA4CF50B601                                           
00018cf0  __covrec_8DFC72E8925CC73                                            
00012648  __covrec_8DFCBEBBC448B6B3                                           
000211c0  __covrec_8DFE773213DB51DE                                           
00006f28  __covrec_8E01E13ECE5363C4                                           
00021648  __covrec_8E0C3A5E8D1D8B34                                           
00020900  __covrec_8E0D2AC8B7B51C20                                           
00018a70  __covrec_8E0F7C647D51BFD2                                           
0001e088  __covrec_8E12A2008EF3ABE8                                           
0000c158  __covrec_8E48E065F6A89743                                           
0000a6f0  __covrec_8E59DAE820650A3F                                           
0000b2d0  __covrec_8E68B9E211E881C0                                           
00011400  __covrec_8E6E8B57A0E136A9                                           
000124b8  __covrec_8E7160727841C0F2                                           
00009228  __covrec_8E7314B6F5C8B4A                                            
0000bb18  __covrec_8E971BE5879B5455                                           
00022d18  __covrec_8EA5F89D745F0C6A                                           
00022548  __covrec_8EB22456CBE7DB26                                           
00019740  __covrec_8EBE3C0B375841A4                                           
00013020  __covrec_8ECDB072589C3D63                                           
00015aa0  __covrec_8EE48BF767F05E71                                           
00015438  __covrec_8EF895267F5CDD60                                           
0000fc40  __covrec_8EFDB1ECDD8F7F9A                                           
00021cb0  __covrec_8F001A8FBE0D0EA1                                           
0001bd10  __covrec_8F06D388B748E7A8                                           
00012df0  __covrec_8F09C13CEE95F65F                                           
0001de80  __covrec_8F284A69A811272                                            
00010f78  __covrec_8F67E3FE41C8DE12                                           
00004ae8  __covrec_8F7619A0841F7C58                                           
00011658  __covrec_8FA116A2C93D8DEE                                           
0001b180  __covrec_8FA27FFC6507F02D                                           
000111a8  __covrec_8FAE06D0D93E074                                            
00010eb0  __covrec_8FE888FF1FF5E559                                           
0000d558  __covrec_8FEF06AC21DAD39B                                           
00008df0  __covrec_9008B4CF69D28A5                                            
00009868  __covrec_9029AAD574450C9A                                           
0000b0f0  __covrec_9029FB168089A64                                            
000153e8  __covrec_904ACE8D0D9342BF                                           
00021620  __covrec_905E63600D3955D3                                           
0001eb78  __covrec_9071575618984415                                           
00003d00  __covrec_9087566523BD0D7E                                           
00012030  __covrec_9093E69E3F41FD76                                           
00013610  __covrec_90C9B803289D8B5Bu                                          
000234e8  __covrec_90CD5B778C8D157F                                           
0001efd8  __covrec_90D55D76C1B40953                                           
0000c9a0  __covrec_90DB1580FD3976C3                                           
00021a30  __covrec_90DCF7F79E49CAAC                                           
00007608  __covrec_90E01BE8946B6896                                           
0000c9f0  __covrec_90E87E4BB277AF67                                           
00006c58  __covrec_90F68CD9B0CC7B30                                           
00008968  __covrec_910120354673E963                                           
00012e68  __covrec_91086B65DCC39320                                           
00016c98  __covrec_910A6D471848A06A                                           
00021828  __covrec_91246371028CE229                                           
0001f370  __covrec_91268A0619F1717E                                           
00025838  __covrec_913EA166209F947B                                           
00020bd0  __covrec_914E974F02E5E35B                                           
00005b28  __covrec_91551CDF1655846B                                           
0001d980  __covrec_91615256E6397B28                                           
00024398  __covrec_916FF1DCA6C18374                                           
00009930  __covrec_9174A6BDD4EEB8                                             
0001a9b0  __covrec_9189174E9CA856EE                                           
00012c60  __covrec_919BD1877891C411                                           
0001b1a8  __covrec_91A85A47E46E837B                                           
00001438  __covrec_91B08DC067EDCE28                                           
0001cfa8  __covrec_91CF93C22BDB4813                                           
000179b8  __covrec_920260ADD4BAECEC                                           
00011360  __covrec_9202711EDAD5D024                                           
0001f3c0  __covrec_92053EA39EF00CBD                                           
00005c68  __covrec_9216DFCC5DCFB048                                           
00007ce8  __covrec_921BB96B7236B2A5                                           
00023df8  __covrec_922DA92A28304F0F                                           
0000a2b8  __covrec_922DAC649159BA82                                           
00018b60  __covrec_9255662AF750EBBF                                           
0001e330  __covrec_9256D4F3A2C9619B                                           
00005df8  __covrec_925BA9A23C8E8526                                           
00005f88  __covrec_925D4EF12324E791                                           
00014218  __covrec_927B310F26D3C792                                           
00018340  __covrec_929C3D7BA5E7A98D                                           
00019c68  __covrec_92B52E0B3366C97                                            
000125f8  __covrec_92C8C968B11645C9                                           
000009e8  __covrec_9302A6018EFA6321u                                          
000050b0  __covrec_93044255BD1A6A83                                           
00007338  __covrec_93052189F2C310FA                                           
0000ac68  __covrec_9312F9DF566C661B                                           
00017508  __covrec_9329FD48AB2E1274                                           
00021698  __covrec_932E0709331E6B6B                                           
00016068  __covrec_934A4CFD323FFCEA                                           
0000b780  __covrec_9357D26B34DF12C5                                           
000227f0  __covrec_935E5F4BC12023D3                                           
000051a0  __covrec_9368F092D22DC14E                                           
00014128  __covrec_9371DF3BA7A24845                                           
00009390  __covrec_937DC04D11C5CA60                                           
00003490  __covrec_93832D018884A6A2                                           
00020658  __covrec_9384DA28BA881739                                           
00016ce8  __covrec_93AB60BEB75C916D                                           
00014420  __covrec_93B792D30284781D                                           
00003f58  __covrec_93E559E349DEFEB                                            
00010d20  __covrec_94300D5026E2216                                            
00003558  __covrec_9436805109F155C6                                           
000119f0  __covrec_94408095CB5AECE0                                           
0000d210  __covrec_94459AF344393855                                           
0001f690  __covrec_9446C51CC8E8E80F                                           
0000ee58  __covrec_944B83265044EBC2                                           
00018e30  __covrec_9455C9786A09CB57                                           
000147e0  __covrec_945B320FDD26C251                                           
00003aa8  __covrec_945CFC19F442BD7D                                           
0001e600  __covrec_945ECCD4F2946F36                                           
000218f0  __covrec_94630ABCD1F71558                                           
0001e218  __covrec_947018608C3D9167                                           
0001cd78  __covrec_948B551B6988013C                                           
000053f8  __covrec_94BB527E72C6AF70                                           
00004638  __covrec_94CACAA4846D3E65                                           
00016ea0  __covrec_94E6AF6193706E7F                                           
0000c770  __covrec_94F5F19E556A55FE                                           
0001dc78  __covrec_94FC025036BEDEC0                                           
0000cf18  __covrec_94FF4331295563C2                                           
00022278  __covrec_9517842FD8D805A0                                           
00010ed8  __covrec_9526502DD42A997F                                           
0000d738  __covrec_9535021043EFE404                                           
0001c878  __covrec_954D554981613485                                           
000020e0  __covrec_955ADEFAA3F542B5                                           
0001dcc8  __covrec_9592186C0C7D6FA5                                           
00008468  __covrec_95CEB01F7FE8DDF2                                           
00001e88  __covrec_95CFB46E7845B42D                                           
00002c20  __covrec_95D2D7B71EC078A7                                           
0001bec8  __covrec_95D71764A59AEC27                                           
0000fb78  __covrec_960A784E7C4814C3                                           
00017ff8  __covrec_960AA1E8FBB5B563                                           
0000b730  __covrec_960ED3CA418CCF88                                           
00013510  __covrec_9613F930BEF71DDDu                                          
00008e68  __covrec_96177CC6C04A126E                                           
0000e4d0  __covrec_962A8CB589DE2E74                                           
0000b140  __covrec_9637258B90682E53                                           
00016a18  __covrec_9637A9217038C34B                                           
00021f58  __covrec_965CD31C1298714E                                           
000139f8  __covrec_9672CC8BFCA5E55F                                           
00020428  __covrec_96777DB40E8EF14                                            
0000a5d8  __covrec_9678A269E2F830B0                                           
0001c198  __covrec_967BFC98B61002E2                                           
0001fc30  __covrec_967F9D7DA7B29977                                           
00015758  __covrec_9684DC37DE1EE5D0                                           
0000fbc8  __covrec_96979FA90748D718                                           
0001e268  __covrec_969B534D19665BDF                                           
0000b000  __covrec_96A1F28444E60F75                                           
000191a0  __covrec_96AA8D61B3A8DA35                                           
0001aa00  __covrec_96AE1425C6CA1E9C                                           
000144e8  __covrec_96B898C1AEF5ABFE                                           
00024190  __covrec_96FA237B6317939A                                           
0000d9e0  __covrec_9702EEA551CAD06A                                           
000187f0  __covrec_9712907A002D60F7                                           
0000f9e8  __covrec_97409D1B05E866DA                                           
0001d868  __covrec_97505DF3A3ED9895                                           
00003c10  __covrec_9751D26657681B28                                           
00008ff8  __covrec_976CCEF9620CFF99                                           
00008800  __covrec_977E6E85CC84738C                                           
00002c48  __covrec_9795E76E97208808                                           
00016a90  __covrec_97A00561A864863A                                           
00010258  __covrec_97A25FA94E493053                                           
000082b0  __covrec_97A433B982DB5C93                                           
0001c5d0  __covrec_97BE04EE290C2F02                                           
0000cab8  __covrec_97D56B78849A1C3F                                           
0000d5d0  __covrec_97E0310CCF40C8E2                                           
00002b30  __covrec_97E6E296AD9CBEB1                                           
0000bf00  __covrec_97FD55834456AC56                                           
00014e48  __covrec_97FE914C95D2847E                                           
00006b90  __covrec_980E73D1F6408347                                           
0001b018  __covrec_981A9F8688DAB97D                                           
0001d930  __covrec_982466CC2ACC15EC                                           
00004e80  __covrec_9826026DFE81289D                                           
00014f10  __covrec_982A03B6F4015226                                           
0000b398  __covrec_9833DFB19FC761AF                                           
0000ecc8  __covrec_9835F6EFF97E449E                                           
0001c940  __covrec_984F02E3E0699504                                           
0001d048  __covrec_9852984F812F872E                                           
00011770  __covrec_985D2CBDC086C681                                           
00023c68  __covrec_986BD29BFA975C74                                           
00023290  __covrec_986C114E42E8D05C                                           
0001dfc0  __covrec_988A11D4D2F16FBF                                           
00020ae0  __covrec_988B02AB6E77D263                                           
00013d90  __covrec_98A9B8719202C524                                           
00012788  __covrec_98BF38AF517CF36                                            
0001d2c8  __covrec_98CE03280FE13541                                           
00007450  __covrec_98D1D5572C9707C6                                           
00020310  __covrec_98E619A5BCB11368                                           
000074f0  __covrec_98ED880A6CCD2388                                           
0000dfd0  __covrec_98EF7F7E7DF1C73B                                           
0000a0b0  __covrec_99009CC5930307BD                                           
0000e520  __covrec_9910356D0F595667                                           
00020270  __covrec_991F8D3FEEE781EF                                           
00021878  __covrec_99389F241C65C1B8                                           
00023ec0  __covrec_993A6E8B0790B7DA                                           
00024a50  __covrec_99409FA97391397F                                           
00022e58  __covrec_9971090978BE6753                                           
00015690  __covrec_99723926C2A9DDD1                                           
00002770  __covrec_9976C94E0CB137A                                            
000002a0  __covrec_997D14E1FE1A2F45u                                          
00025450  __covrec_9988F745693DE43F                                           
00018ca0  __covrec_99992A15E457B36F                                           
00001398  __covrec_9A03354A5536F810                                           
0001cee0  __covrec_9A40F604B5DC964B                                           
00013840  __covrec_9A4402462CFB25DF                                           
0000d7b0  __covrec_9A56EF0C84E04B69                                           
0001d610  __covrec_9A82C2E58801D4EB                                           
0000b898  __covrec_9A8748024046FB59                                           
00010c80  __covrec_9A8EA006670ADADA                                           
0000daf8  __covrec_9A96AAEEA4ADEE58                                           
00011e78  __covrec_9A9958B68856A9DC                                           
00012940  __covrec_9A9FA4BDCFD67D0F                                           
0001e7b8  __covrec_9AAB0F09D0C7B1A3                                           
0000ef20  __covrec_9ABD29FA3C0EB16D                                           
00017af8  __covrec_9AC3CF09EF2C674                                            
0000a948  __covrec_9AF99E1E8D0D2A49                                           
00010c58  __covrec_9B09AFE5C7500E7B                                           
0000d620  __covrec_9B271709DF893740                                           
00002518  __covrec_9B2CBCD5F75E723D                                           
0000c7e8  __covrec_9B4179326DD8B1C4                                           
00020838  __covrec_9B5D5C9A185C05A3                                           
0001bcc0  __covrec_9B85596B8A1AE901                                           
00023970  __covrec_9B8C2CA9195D8A89                                           
00007928  __covrec_9BA11773176B858B                                           
00016b30  __covrec_9BB5C9E7D8F22F76                                           
00004188  __covrec_9BDF4BF2331D45B2                                           
00023858  __covrec_9BDFC8677807B4A8                                           
00025180  __covrec_9BE0DEA223C84842                                           
0000c4a0  __covrec_9BE190805D406C23                                           
0000da08  __covrec_9BE75536C7AA01CE                                           
00014e20  __covrec_9BED06F3F05054A7                                           
0000e6b0  __covrec_9BEFFD925C6B65CB                                           
00024230  __covrec_9BF50A7EEF665123                                           
000099d0  __covrec_9BF565024BD40ADD                                           
000035f8  __covrec_9C1A644EECC19AB4                                           
00025900  __covrec_9C1F00C8590A33A7                                           
000184a8  __covrec_9C2775F1FB7FD0B3                                           
00011ce8  __covrec_9C54BD5A617C92F1                                           
000176c0  __covrec_9C553D2B368997E4                                           
00023420  __covrec_9C5548CB9C402249                                           
00017530  __covrec_9C5BA9E739FA244E                                           
000091d8  __covrec_9C61694170F6EBE4                                           
00021ff8  __covrec_9C7E4780112F9DD4                                           
00024bb8  __covrec_9C82DD3C630C958E                                           
00022728  __covrec_9C873B56BD4E64FA                                           
00019c40  __covrec_9C93726BBC48186D                                           
0000ad08  __covrec_9CAC1CE443AB4B23                                           
0001c490  __covrec_9CB452459D1C403B                                           
00002f40  __covrec_9CBFF81C7FE9B6E4                                           
00004368  __covrec_9CCEB7B1090A483F                                           
0000a2e0  __covrec_9CD6EF61BDF302B5                                           
0001a190  __covrec_9CDBAE3A4C8F2B61                                           
00007900  __covrec_9CDCF2E4E1615304                                           
00022cc8  __covrec_9CDCF4ABBCDB66CE                                           
000149c0  __covrec_9CE83C69FDCAB33F                                           
0000e818  __covrec_9D5B8B34DEF48B29                                           
00015528  __covrec_9D61967B1604A9FF                                           
00020798  __covrec_9D65C69103DC9EE1                                           
0000aa38  __covrec_9D7F189D18D9145                                            
00025270  __covrec_9D7FE2815054410B                                           
00009200  __covrec_9D80A050D79CB85A                                           
00025090  __covrec_9D8BCDECE7C49ABE                                           
00011ba8  __covrec_9D9E2F558AB0FBE4                                           
0001f1b8  __covrec_9DA8AA09702AC6CE                                           
0000e5c0  __covrec_9DB578BB72898793                                           
000212b0  __covrec_9DBD17518F4E29C3                                           
0000aec0  __covrec_9DC92CF7C458707D                                           
000079a0  __covrec_9DCB966194177B1C                                           
00006a78  __covrec_9DCC1495DB0505CD                                           
0001f410  __covrec_9DCFB323BA939264                                           
0001b220  __covrec_9DD34F2822473557                                           
000010c8  __covrec_9DFE85B1F59CC2FF                                           
00011ab8  __covrec_9E067B8036BFA292                                           
0000c3b0  __covrec_9E156DA1011A3A6C                                           
0001b0e0  __covrec_9E26C402F00A2F32                                           
0000fb50  __covrec_9E3BF448F2BDC4EC                                           
0001aac8  __covrec_9E55FF8E109C4C33                                           
0000f588  __covrec_9E72BD6DB893198A                                           
0001c378  __covrec_9E7667E7EBD723A3                                           
0001d1b0  __covrec_9E7D8352594DED0C                                           
00017f58  __covrec_9E844E7AE3CA768E                                           
0001d638  __covrec_9E940468EF94664F                                           
00002d60  __covrec_9E9448A7BFF52622                                           
00003710  __covrec_9E991C80A7913447                                           
0000fdd0  __covrec_9EBBAF613629BCB0                                           
00008990  __covrec_9EC43CE435C030FB                                           
00022bd8  __covrec_9ECBD043067646A3                                           
0001dfe8  __covrec_9ED94584C2643908                                           
0001c120  __covrec_9EDD55D5C8BE933C                                           
0000a330  __covrec_9EE716C8E6B7517E                                           
000084e0  __covrec_9F1371FBCBE496F7                                           
00022070  __covrec_9F2BD20A1D192943                                           
000157f8  __covrec_9F301B3FF3F09194                                           
0000e7c8  __covrec_9F314263037524A                                            
00000d08  __covrec_9F3BA7C9FE20A289                                           
000208b0  __covrec_9F3C201AFBFC7771                                           
000030a8  __covrec_9F3EAFC93AD74F61                                           
00007220  __covrec_9F609CE93D6974BF                                           
00014c90  __covrec_9FD05553BDBB26A0                                           
00022f20  __covrec_9FD435B6EDB75583                                           
0000c428  __covrec_9FE66E7C892EEDD3                                           
00023470  __covrec_A012943D946C7220                                           
000234c0  __covrec_A01FF74824829A64                                           
00008b48  __covrec_A02271DE78E5BAD8                                           
00013c28  __covrec_A04768BF98A46F04                                           
0001cd00  __covrec_A06516C97CF745F                                            
00011f90  __covrec_A067CD47AAA67307                                           
0001b0b8  __covrec_A0759E883AB3A266                                           
00024898  __covrec_A085E9CD601672CE                                           
0001c8c8  __covrec_A0D214D928BC709E                                           
00016d10  __covrec_A0DAA40F9ED6261A                                           
00024aa0  __covrec_A0DBB38BB4760AA5                                           
0000b668  __covrec_A0E6D10552814C8C                                           
000034b8  __covrec_A0E6FA2D8650D1E9                                           
0001a280  __covrec_A0EDF6B61594B5D2                                           
000023b0  __covrec_A0FDE7F289296A40                                           
00013cc8  __covrec_A1138DE5EAE933DC                                           
0001ee48  __covrec_A11EC3781DB0FEF3                                           
0000e778  __covrec_A12878985AE4FD46                                           
000169c8  __covrec_A129DDC39A66AF54                                           
0001f9d8  __covrec_A13F1F077C7FDC3                                            
0001c080  __covrec_A142625DB4946496                                           
00017a30  __covrec_A14E5249FF6D9B73                                           
00010460  __covrec_A16190F41D4145AE                                           
000018e8  __covrec_A16205CA8FFA9F4                                            
0000ebb0  __covrec_A1643B6D07064403                                           
000126e8  __covrec_A165173154412DEC                                           
00019100  __covrec_A178521A967058F3                                           
00024f00  __covrec_A18395C77B6C122B                                           
0000c5e0  __covrec_A1881B094B1A0E8B                                           
00000a10  __covrec_A19669F6381AF29Du                                          
00016ef0  __covrec_A1ADEE0AAE7AB6EF                                           
0000c4c8  __covrec_A1E112C26E8FDA36                                           
0000e868  __covrec_A1F36B83650B39EF                                           
00003a08  __covrec_A22CCC7F4FC210C1                                           
0001e718  __covrec_A232361CAB162550                                           
000155c8  __covrec_A23437AA47C4156F                                           
0001e948  __covrec_A2445591609CD347                                           
00002ec8  __covrec_A24CF83203DE2C2E                                           
0000c540  __covrec_A285CA31DD703B2C                                           
00009ac0  __covrec_A2A2EFF72443BA98                                           
00005880  __covrec_A2AB5890D2036003                                           
00000ee8  __covrec_A2AD9ADCC34EC421                                           
00004750  __covrec_A2AF77FB7A85962                                            
00020568  __covrec_A2C00EFD24BAB1B8                                           
00010ff0  __covrec_A2F482B2DBC60022                                           
0000fba0  __covrec_A2F9CD1972AC8A15                                           
0000deb8  __covrec_A2FC1524981AEC4C                                           
00012b20  __covrec_A30A146324128543                                           
0000baf0  __covrec_A321E0F12A5BDD4C                                           
00008fa8  __covrec_A32BAB4EC1F1039E                                           
00005e70  __covrec_A334930F4BE9BBB5                                           
00011c98  __covrec_A3547ED3550B6766                                           
000253b0  __covrec_A359454EB6553D3C                                           
00014c18  __covrec_A35E9CF26F2BDBBC                                           
0000ba50  __covrec_A35EEA193D432FAE                                           
0000c608  __covrec_A39C0CA79DE12B59                                           
00010b68  __covrec_A3A8D12C2069F132                                           
000257c0  __covrec_A3B838279DB1FA53                                           
00024960  __covrec_A3C077298A1EE38                                            
00005e48  __covrec_A3C695CF55F1E179                                           
00001640  __covrec_A3CB2A95C261E0DF                                           
00008e40  __covrec_A3DD201818A649BA                                           
0001e6f0  __covrec_A3E9BABFF30D1406                                           
0001e510  __covrec_A3F69F3D1A174B83                                           
000026f8  __covrec_A400C7BB791927B4                                           
00007130  __covrec_A4048A0865FBE9E4                                           
00017260  __covrec_A423D128DFA778BC                                           
00024640  __covrec_A43679B7CAE7663                                            
000032d8  __covrec_A497658F86F5157F                                           
00009ef8  __covrec_A4C57347782F42EC                                           
000074a0  __covrec_A4CC5D613F06E4A2                                           
0001c738  __covrec_A4D349F83946625F                                           
0001bd88  __covrec_A4F309C69DE758AC                                           
00021b48  __covrec_A509FC975E3FE1D                                            
000052e0  __covrec_A51DF121A0E416C3                                           
0001e9c0  __covrec_A525F0238C786183                                           
00024cf8  __covrec_A52E9CCCE269F017                                           
000114f0  __covrec_A530E260A30B19DA                                           
0000a6a0  __covrec_A53CD13C650A0F8D                                           
00020978  __covrec_A55C214A5FC44544                                           
00009070  __covrec_A56BEB01A6625C60                                           
0001b298  __covrec_A56E213FAEA092D9                                           
00014d80  __covrec_A582FD26365EDEB5                                           
00013550  __covrec_A5A75A50A6681C5Cu                                          
000177d8  __covrec_A5C15D890B087722                                           
0000cc20  __covrec_A5D4DB45D6259DE8                                           
000095e8  __covrec_A5E8FAFEE3EB4AEB                                           
000150f0  __covrec_A60CE06FA61792A8                                           
000129e0  __covrec_A615E945EAE0C03                                            
00001758  __covrec_A64777CFF666B1D7                                           
00002608  __covrec_A64B4936D333ABAE                                           
0001d8e0  __covrec_A6542DEDB8EB9879                                           
0000ce00  __covrec_A663DF13D03CDEC4                                           
00011e50  __covrec_A673A4EC8D5851F                                            
000204a0  __covrec_A6927DC5BF881DDC                                           
0000b320  __covrec_A6E5FBDB9EA0A908                                           
0001c0f8  __covrec_A6F91C9DE4E92CCF                                           
000058f8  __covrec_A70D594ACFE50176                                           
00013788  __covrec_A72580571A0F056Du                                          
000193f8  __covrec_A72768145C3B258D                                           
000200e0  __covrec_A74A9BBECDE04B5E                                           
00002978  __covrec_A76147EA48116195                                           
00012fd0  __covrec_A76AA477A7364808                                           
0000d3c8  __covrec_A76DB0660E7B33B5                                           
0000da58  __covrec_A7873F0FA79D32E5                                           
00017f08  __covrec_A78911E3D047929E                                           
000199e8  __covrec_A7959569B6A5A56F                                           
0001f2a8  __covrec_A7B0855D94B2B621                                           
000216e8  __covrec_A7B287DE04B3E03                                            
0000cfb8  __covrec_A7B439A98F551363                                           
00002b08  __covrec_A7CAB0957ECB16B3                                           
00006de8  __covrec_A7CF45332081AF8F                                           
00011540  __covrec_A7D6A43231E3E91C                                           
0001e3f8  __covrec_A7E144897978C90C                                           
00002d10  __covrec_A7E18C5F7E10FAB9                                           
000006b0  __covrec_A7E33FBDAB081821u                                          
00011a40  __covrec_A7E7FE4718D342BB                                           
0001ed30  __covrec_A807F26F4DECD342                                           
0001a848  __covrec_A80BD7A623AB578                                            
000138b8  __covrec_A817DEA7EA22BFD4                                           
000248e8  __covrec_A820663F94339109                                           
00003a58  __covrec_A82651BCD2545452                                           
00024488  __covrec_A8498A117B23AFC8                                           
0000e138  __covrec_A85F1C0DE6EE161D                                           
00024eb0  __covrec_A867A2AB552AD431                                           
00010820  __covrec_A869DDBABE0ABB5A                                           
0000c270  __covrec_A881F028F2BCA305                                           
0001d480  __covrec_A892DA4DF516689A                                           
0001d890  __covrec_A8A28DA9DA2B412D                                           
0001a6e0  __covrec_A8A70DDF5F2056BA                                           
0000a470  __covrec_A8AA7DDD4D96A434                                           
0001dc00  __covrec_A8B2B5CC8DBF4800                                           
0000ecf0  __covrec_A8DF0CDE3D8C8EC                                            
0000b618  __covrec_A8E1A719CBA75311                                           
0000db48  __covrec_A8F9AC07D15724E9                                           
00022660  __covrec_A90175A665803D3A                                           
00007630  __covrec_A90AC2A86F2DC8A                                            
000231f0  __covrec_A926C2DA317B08A4                                           
0001e498  __covrec_A92884B33FF83C3F                                           
00015280  __covrec_A94C22CB595C43D7                                           
000251a8  __covrec_A974A80756D49DB9                                           
00005970  __covrec_A982A15AB6BD74C3                                           
000128c8  __covrec_A9912E96A4EE2AC4                                           
000127d8  __covrec_A9AA554AD604DA08                                           
00009ae8  __covrec_A9AAF9C2C3762703                                           
00024b90  __covrec_A9C700E1C71561D6                                           
0001d548  __covrec_A9C81912A7BBEE                                             
000040e8  __covrec_A9D7AD06152CEB30                                           
0001ca30  __covrec_A9DA2B99CE47AF13                                           
00012f08  __covrec_A9E99FBC1469F0EE                                           
000041b0  __covrec_A9F8F947236B8CAC                                           
00021e68  __covrec_AA329F79BA5D4AEB                                           
0000cdb0  __covrec_AA3ACD92DED8A6BA                                           
00024ed8  __covrec_AA40C52F613ED07F                                           
0001c698  __covrec_AA520EFB2821E557                                           
00024988  __covrec_AA52FE737418A4EA                                           
00016310  __covrec_AA551E34D18F74A4                                           
00009db8  __covrec_AA581DCBFB8C516C                                           
0000ae98  __covrec_AA60AE05588F02C2                                           
0000f718  __covrec_AA614F02A1CAE253                                           
00005ee8  __covrec_AA6924235A468D1                                            
00016518  __covrec_AA6FBA67DEF67586                                           
0001e628  __covrec_AA70E0B980B5AC70                                           
0000a510  __covrec_AA75C4EA6B57BB9E                                           
00010438  __covrec_AA7A796FA25F2E6                                            
00016cc0  __covrec_AA7C108880CD93D6                                           
0000d648  __covrec_AA93C0708B38E67F                                           
0001f6b8  __covrec_AABEAADEEB5F4E6E                                           
00008a58  __covrec_AAD104A01E53F088                                           
00020388  __covrec_AAEDD5461DEC88D2                                           
000215f8  __covrec_AAEED63D1029DA46                                           
00009660  __covrec_AAFCB0A088045DE9                                           
00003e68  __covrec_AB057AC5DA43E35F                                           
000161f8  __covrec_AB18DF03A4278F7C                                           
0001a050  __covrec_AB271BB12C7B2E99                                           
00024a78  __covrec_AB2A380F7C8F9FB2                                           
0001acf8  __covrec_AB304C8261FDEB8F                                           
000129b8  __covrec_AB4E735D825C2932                                           
00015730  __covrec_AB53902A6CB08F7A                                           
0001b4a0  __covrec_AB5B451F3E10B919                                           
0001ab68  __covrec_AB7956570CA67670                                           
00017b20  __covrec_ABA022C0A714032                                            
0000c0b8  __covrec_ABB8A94B92B5EC2A                                           
00023e20  __covrec_ABBB0DCCFB7B4AA9                                           
00005a10  __covrec_ABBE6F9D36DE8498                                           
00002fe0  __covrec_ABE49C3D570B67F9                                           
000119c8  __covrec_ABE73C7233B17BE1                                           
00010a00  __covrec_ABF5FAEFFCFFED05                                           
00001b40  __covrec_ABF66D518E7C8360                                           
0000b438  __covrec_AC01D7B3BF7FFE49                                           
0000e458  __covrec_AC094D99E9A36A27                                           
000253d8  __covrec_AC331E4603C5064F                                           
0001c6e8  __covrec_AC39529A12F08E6B                                           
000112c0  __covrec_AC39D13BD8CE65E9                                           
0000ccc0  __covrec_AC3AFBBBBC8A0758                                           
0000f3d0  __covrec_AC64B8798AC6F6CB                                           
0001dea8  __covrec_AC6538EBC735DD0C                                           
00020d60  __covrec_AC68201571F3FB9B                                           
00012ee0  __covrec_AC71223011F202FE                                           
0000cae0  __covrec_AC771618B84FA192                                           
0001b158  __covrec_AC783881F1762401                                           
000143f8  __covrec_AC85984330425F4                                            
000097c8  __covrec_AC8CDC8F7679A4ED                                           
000067a8  __covrec_AC9543A6FE4B3E05                                           
000203b0  __covrec_AC9CB004A666D213                                           
000152d0  __covrec_ACC0C4F85F9EECDE                                           
00011298  __covrec_ACCC18B9806D90E7                                           
00008ee0  __covrec_ACD7B7F98D375F15                                           
000168d8  __covrec_ACDEA53952D33B4F                                           
0000f1a0  __covrec_ACE0C62D4FEE04DE                                           
0001be50  __covrec_ACF4230EF393C5BA                                           
000090c0  __covrec_ACFAF0475BA219D9                                           
00018250  __covrec_AD047280576A3B69                                           
00025720  __covrec_AD1A311A8594BE7E                                           
00011bf8  __covrec_AD1BE74848DC15D                                            
0000f128  __covrec_AD38A1B6D2EEA56B                                           
00015000  __covrec_AD57993B2D1B4ADD                                           
00015488  __covrec_AD7F2294BFBEBDD6                                           
000159b0  __covrec_AD930365B8D74045                                           
00020fb8  __covrec_AD93EC839DDCEE0E                                           
0000dbe8  __covrec_AD9CFA1F1A6A3F5D                                           
00010208  __covrec_ADA5778C0D701718                                           
00018048  __covrec_ADC012B52C9206AC                                           
0001a2f8  __covrec_ADDF4235E39AF004                                           
00024d48  __covrec_ADE3F00B66E34EBB                                           
00013ac0  __covrec_AE0BED86C6A7FF8E                                           
0000a3d0  __covrec_AE13889EF6EEAF65                                           
00012d78  __covrec_AE2288C0428D9D90                                           
00002450  __covrec_AE5575A3D163AB81                                           
00019da8  __covrec_AE6F1168B53990C8                                           
0001ece0  __covrec_AE75ACC2669723B3                                           
0000c220  __covrec_AE7B2673513B220E                                           
00007270  __covrec_AE947EC30BAEA8CA                                           
00008738  __covrec_AEA7EC8945B80247                                           
000067d0  __covrec_AEABB6D39BD86DEB                                           
0000ab78  __covrec_AEB6B3FCA342B1E                                            
00018700  __covrec_AECF195AE0C883E0                                           
000010f0  __covrec_AED6F5E127A35F37                                           
00008d28  __covrec_AEDFDC80D1C426D9                                           
0000b820  __covrec_AEEAA40EB8AA1C59                                           
00003ee0  __covrec_AEEEF7484FF69811                                           
000151b8  __covrec_AEF580CD966715F9                                           
0001aa50  __covrec_AF0B549003A6C852                                           
00021120  __covrec_AF320D236265B896                                           
00001410  __covrec_AF3F0C86126B4235                                           
000165b8  __covrec_AF5F32085D968C75                                           
0000c950  __covrec_AF6C909240F65352                                           
00015028  __covrec_AFA442495C6D179E                                           
0000ec00  __covrec_AFAC91A229182DA0                                           
000137c0  __covrec_AFB7312F1F304372u                                          
000060f0  __covrec_AFC489C0205595EA                                           
00004b38  __covrec_AFC5B63CADD5A61C                                           
00009a20  __covrec_AFC974AEC1164ADD                                           
00016360  __covrec_AFCA5308CBE5226                                            
00022160  __covrec_AFDAEBE1B0D952AD                                           
00021850  __covrec_AFEBE9C6828061A1                                           
0001d0e8  __covrec_AFF8EA2E9F42EA4D                                           
0001ed58  __covrec_AFF99C21C3C36C23                                           
00023ce0  __covrec_AFFEE0267C35E1C9                                           
000014d8  __covrec_B003E4396976685E                                           
00005c90  __covrec_B00DBB181EA4A875                                           
0000d198  __covrec_B018BF2C91460E84                                           
00022cf0  __covrec_B03F31128199A7A5                                           
0000af10  __covrec_B0493C6EED2B3E0F                                           
00021aa8  __covrec_B05388EBD8752329                                           
000206d0  __covrec_B055CE97798BAEE5                                           
0001d070  __covrec_B0584FEB9BE7B098                                           
000170d0  __covrec_B065FF55E74FCCD1                                           
00007860  __covrec_B06FA9B5BF635E36                                           
00011978  __covrec_B08B216CB52206A0                                           
00017e68  __covrec_B09D4FD458CDE129                                           
000225c0  __covrec_B09F79FD8EF659EE                                           
000111d0  __covrec_B0BBBD6BE8F32D65                                           
0001afa0  __covrec_B0D24101139E4F24                                           
00002360  __covrec_B0D715592F0BE78                                            
00007ef0  __covrec_B0E325674A703A7                                            
00000ca8  __covrec_B0E90C8B006D7F21u                                          
0000da80  __covrec_B0ED8A53CC14318B                                           
00002a18  __covrec_B0F9BD49343E5894                                           
00003df0  __covrec_B1180BB7556D04F1                                           
00004908  __covrec_B118ACA34C4131FB                                           
00014998  __covrec_B11B2EE5DD5BF989                                           
0001fb40  __covrec_B1327D09E22FBFCD                                           
0000f970  __covrec_B1571C2600AD6A7D                                           
000175d0  __covrec_B158C101AA167696                                           
000182a0  __covrec_B15D06C22FEC71D9                                           
00022868  __covrec_B1652563AEC5544B                                           
00022228  __covrec_B179A17659FF2C11                                           
00011f68  __covrec_B19A85F21170AEDA                                           
0001bd60  __covrec_B1A9F6BF4A203553                                           
00018098  __covrec_B1C3981F9634D369                                           
0001b2c0  __covrec_B1CE96BC945B0CBF                                           
00021030  __covrec_B1EB7085F74D8687                                           
0001c3a0  __covrec_B1FA2164EC3E6151                                           
00015960  __covrec_B1FB48C95F950150                                           
00003e90  __covrec_B217622196419513                                           
0000f330  __covrec_B22F63C73E638519                                           
0001a690  __covrec_B23169270BEA3591                                           
000156e0  __covrec_B24530735833F91C                                           
00018408  __covrec_B253B33871D9C4D2                                           
00019650  __covrec_B25D5E7D963D0469                                           
00017b98  __covrec_B26FE818C9BBF2BF                                           
00012cb0  __covrec_B27813A7DDBF46D                                            
00014010  __covrec_B27A7CC7DFBAAB69                                           
000067f8  __covrec_B29FAA963F8B4BAD                                           
00006190  __covrec_B2A319AE6B6AC0CE                                           
0000ad30  __covrec_B2B073C9465843D5                                           
0000ad80  __covrec_B2B970D0FBA5133A                                           
00018ea8  __covrec_B2DF3A96F478E43B                                           
00018fe8  __covrec_B2E7260EC55D2713                                           
000166d0  __covrec_B30841581A67FF30                                           
00005f60  __covrec_B31BB41678CE18AD                                           
00006ff0  __covrec_B31FA00F83901C3D                                           
00019ce0  __covrec_B329A0B3FCA532E3                                           
000057e0  __covrec_B3319075481A60B9                                           
00011838  __covrec_B348C02CBDBA7062                                           
0001c670  __covrec_B359F814EED190EC                                           
00021170  __covrec_B3657841B1675CD2                                           
000233f8  __covrec_B3659197FDC20C4B                                           
0000ff10  __covrec_B3712F35BD12652                                            
0000be88  __covrec_B39C18432448734F                                           
0001d6b0  __covrec_B39D9BE678C85D9F                                           
00023920  __covrec_B3A396CC62A90D9D                                           
0000a678  __covrec_B3C54925F6A72632                                           
00015e38  __covrec_B3D5A60E04922FE                                            
000181b0  __covrec_B3FCF4E02B6C0FD4                                           
0000dc88  __covrec_B422C517245AC61C                                           
0000f808  __covrec_B43C1008A92C715A                                           
0001bbd0  __covrec_B441970F37224737                                           
000218a0  __covrec_B44AEF7925B0EBA                                            
000136e8  __covrec_B44C2FD68F1F000Au                                          
000240f0  __covrec_B451A5983A07C08F                                           
0001b270  __covrec_B4A7C58ED4F2BBE5                                           
00011ea0  __covrec_B4BBEF278698D91D                                           
000155a0  __covrec_B4C2F0FEBCAF2F60                                           
00009e08  __covrec_B4C4FF7AD9371888                                           
0000f038  __covrec_B4FCB8836F8E814F                                           
00016b58  __covrec_B52663DA78115B23                                           
00007b80  __covrec_B52A1FA3EC56344E                                           
0000c928  __covrec_B52C3790F7D7CB62                                           
00020220  __covrec_B552D37472D35192                                           
00025518  __covrec_B5717455E0C92E77                                           
00004a48  __covrec_B5804F7CBC53D07E                                           
0001ceb8  __covrec_B599D5FE34962FCD                                           
00015d48  __covrec_B5B67982233FDBC                                            
000015c8  __covrec_B5DAC5DDC438E7DB                                           
000209a0  __covrec_B6061734BA369469                                           
00016450  __covrec_B6093B1DCE09925C                                           
00018570  __covrec_B63BB6869D812CAF                                           
00006eb0  __covrec_B64CE5E3E7DDA0C9                                           
0000dcb0  __covrec_B64D86C76C8AAD43                                           
00007838  __covrec_B674F34043A78B1B                                           
0000ede0  __covrec_B67AFA65FA243A86                                           
00021058  __covrec_B68CBA3DB0144E60                                           
00002c98  __covrec_B6989F4C03FBBAA                                            
000113d8  __covrec_B6A587D2AEB30D0B                                           
000013c0  __covrec_B6A8447CAD259BD3                                           
00008b70  __covrec_B6ADE8C8C5B4CD66                                           
00010a78  __covrec_B6C065DC38E139EF                                           
00002180  __covrec_B6CCE69C2F11E7F1                                           
0000a538  __covrec_B6D699B906DDACF                                            
000081e8  __covrec_B6F13A0198FD6B81                                           
000214b8  __covrec_B6F3E3BAD089DBAE                                           
000143d0  __covrec_B7020FE632FE5CBA                                           
0000d2d8  __covrec_B70A7A6EF44800E4                                           
00006b68  __covrec_B71ECE00BAC094C6                                           
00011568  __covrec_B729D282B8E99F2C                                           
00005470  __covrec_B73ADDCCBE85EE48                                           
00005538  __covrec_B7428284170B6762                                           
0000dcd8  __covrec_B746C909C3621F48                                           
00010bb8  __covrec_B74B7462C2123191                                           
00001460  __covrec_B77E5416C7163627                                           
0001cbc0  __covrec_B77E9FAD3DF35EBE                                           
0000d9b8  __covrec_B78224EA4F54088F                                           
000225e8  __covrec_B78EF92F49E0058B                                           
00002630  __covrec_B7AC02C8C680B998                                           
0001b6f8  __covrec_B7F5FFCDF30CB218                                           
00017350  __covrec_B7F8AA0A75D437ED                                           
000188e0  __covrec_B7FE008276F99331                                           
0000d080  __covrec_B819BF1D9DFEF741                                           
0000f6c8  __covrec_B857CC6179121589                                           
00019128  __covrec_B869702795BA3180                                           
0001b3d8  __covrec_B871D12F39A6AF36                                           
00004d68  __covrec_B88F81FC0B4B1321                                           
0000ddf0  __covrec_B892DC87501F911D                                           
0000e7a0  __covrec_B8D0BDBEECD6328F                                           
00018cc8  __covrec_B8D875108F459ADA                                           
0001df70  __covrec_B8DFCB0E91A6A538                                           
00009020  __covrec_B8FC1181B057FE15                                           
00004520  __covrec_B902F138457398CA                                           
0000d5a8  __covrec_B916B0286C2C7B74                                           
000108e8  __covrec_B9243449487FC55E                                           
00023b28  __covrec_B924B179892F5543                                           
0000fa10  __covrec_B94528FBF7821792                                           
0000dbc0  __covrec_B94AA69A3BB493DA                                           
00014268  __covrec_B9537AAE86C9A6BD                                           
000218c8  __covrec_B967147E74E51FAD                                           
00022368  __covrec_B978B224B473938F                                           
00016e50  __covrec_B98076446EF295FD                                           
00005f38  __covrec_B9985B170AE47E5E                                           
00014e98  __covrec_B99C443DB87550BB                                           
0001b7e8  __covrec_B9AB8834A2237901                                           
00004f98  __covrec_B9B27803852C39B6                                           
00014b78  __covrec_B9B5FC828B38D38D                                           
0001e038  __covrec_B9BBACA01A41B6C8                                           
000247d0  __covrec_B9C3540C3AC1D54F                                           
000174e0  __covrec_BA12879443A2327D                                           
00018d40  __covrec_BA1ECAA1A7696E1A                                           
0001e3a8  __covrec_BA25A56B15309134                                           
000207e8  __covrec_BA37DB786B6EA1B4                                           
0001f910  __covrec_BA38EBDE4E634B4D                                           
0000ee30  __covrec_BA5B0627C0679EDB                                           
0001bb80  __covrec_BA973D6E4001920E                                           
00016ec8  __covrec_BA9D085EEB283A31                                           
0001bf40  __covrec_BAB821C194D33E0C                                           
0001fde8  __covrec_BAC215A305CB6BB2                                           
00024370  __covrec_BAE55637B2915732                                           
00010c08  __covrec_BAEAF3D8B120B7F                                            
00003b70  __covrec_BAEC130FA49D36F7                                           
00019ee8  __covrec_BAFF080CE41F419B                                           
0001ce90  __covrec_BB175E3871FD845                                            
0001c8f0  __covrec_BB204FB54CD4EFC                                            
000083c8  __covrec_BB22AC13BA7CBC8A                                           
0001aed8  __covrec_BB37BA4602A701B5                                           
0001b838  __covrec_BB3928FABB4339BB                                           
00018c50  __covrec_BB43D7D806F4CBD6                                           
00018a48  __covrec_BB50BDBE0E77D3AD                                           
00019768  __covrec_BB7CDB87DF7DC393                                           
00018bd8  __covrec_BB9DB7256D55E22C                                           
000088f0  __covrec_BBB5616E7C5390E                                            
000252e8  __covrec_BBC1B71FF0D6E9B7                                           
0000e408  __covrec_BBC289A7DACFE5C7                                           
00020860  __covrec_BBCC8B4742E2744A                                           
00005560  __covrec_BBD379A79D130B54                                           
00003990  __covrec_BBD7FFD4B02EB896                                           
0000dc10  __covrec_BBE2AB49A198DD45                                           
0000b280  __covrec_BBFE31996E38B45E                                           
0001f9b0  __covrec_BC100AC494729832                                           
000187a0  __covrec_BC1E770725353BFE                                           
0000c180  __covrec_BC45095510A7671C                                           
000148a8  __covrec_BC45A73D645FD3FC                                           
0000b578  __covrec_BC4EB6761F52A9C8                                           
0001ad70  __covrec_BC56D22003F30EB                                            
0001feb0  __covrec_BC5C2824B87BC903                                           
0001af28  __covrec_BC620F117425D53                                            
0001ce40  __covrec_BC7A07810C2A4EA5                                           
000098b8  __covrec_BC817EC07C404035                                           
0000bff0  __covrec_BC88E073CD80AEAB                                           
0000a8a8  __covrec_BC9A5981836270B1                                           
0000f268  __covrec_BCA8B86FD76368C2                                           
00009cf0  __covrec_BCD838959D230AA2                                           
000236a0  __covrec_BCE304DA2995D59D                                           
00014dd0  __covrec_BD0209660F1F417F                                           
0000eb88  __covrec_BD094507720B5F9E                                           
00008cb0  __covrec_BD1839126D610F7                                            
00011d60  __covrec_BD1E5D58F76D1490                                           
0001abb8  __covrec_BD20025876B40285                                           
000024c8  __covrec_BD480C6F977D745F                                           
00008490  __covrec_BD59FD8A4A75A2C                                            
00017468  __covrec_BD5CC9630DBCBBE9                                           
00023ee8  __covrec_BD68002B29E6FA                                             
00001bb8  __covrec_BD74D4D9FDC70593                                           
0000bd48  __covrec_BD9557B33156364                                            
00008710  __covrec_BDE414DF6D3BA77B                                           
00016a40  __covrec_BDE4D2739B89D2E9                                           
00012760  __covrec_BE1376A45F7FF929                                           
00013750  __covrec_BE2747E0B77C11DCu                                          
00024fc8  __covrec_BE385D0749AA9AC6                                           
00024e60  __covrec_BE4C15D3B32B067C                                           
0000b640  __covrec_BE4F00F9B1A35D74                                           
0001db10  __covrec_BE5179F5A57B6AE2                                           
000189f8  __covrec_BE5A92894152D5DE                                           
0001db38  __covrec_BE65544DFD0F9AD8                                           
00016090  __covrec_BE6EA14CE4CA1756                                           
000167c0  __covrec_BE863C686EAC33EF                                           
00011068  __covrec_BE934D512341874F                                           
00023a88  __covrec_BE9D5D41A4A00A13                                           
00015af0  __covrec_BEA364F8E4F6612A                                           
00024050  __covrec_BEB1D8468371349B                                           
00002888  __covrec_BED74146AC242B5C                                           
0001fa28  __covrec_BEEF592826313069                                           
00013480  __covrec_BEEFAD7D9530066Eu                                          
000203d8  __covrec_BEF4D4CCDE60C523                                           
00025298  __covrec_BF0525D0545F407D                                           
00009368  __covrec_BF1E8A894D7451C4                                           
00016428  __covrec_BF2D601022292D70                                           
00023088  __covrec_BF4EA921547B71EE                                           
00005a88  __covrec_BF559052781D4DB7                                           
0000bbb8  __covrec_BF5F6F363288A0DA                                           
00009d90  __covrec_BF632D033DB6305E                                           
00019b28  __covrec_BF6A0C809C015679                                           
0000c568  __covrec_BF6B6F85B14B4140                                           
000036c0  __covrec_BF860A71A4A1D2AC                                           
0000f858  __covrec_BF93987F441C76B                                            
00018598  __covrec_BF99175D50CA1867                                           
0001bdb0  __covrec_BFAFD22F7BF690C5                                           
0000b028  __covrec_BFDD05DA5AB8464B                                           
00012198  __covrec_BFDF0B48638CE81F                                           
00005358  __covrec_C00C10267E53FF91                                           
00010a50  __covrec_C035BC44C83C4CE9                                           
000126c0  __covrec_C0385C455F437C0E                                           
00017850  __covrec_C03E22A2F6E2E4EF                                           
0001bc20  __covrec_C047E60BD8866964                                           
00013980  __covrec_C0751327896BCD4C                                           
00017710  __covrec_C0AA7AE1236408C6                                           
0001d7c8  __covrec_C0D2729B0E6DF1B7                                           
00005dd0  __covrec_C0EA90B569A02B45                                           
0001d9f8  __covrec_C13AD5850545AB0D                                           
0001b400  __covrec_C14519F9FADE6C9A                                           
000167e8  __covrec_C14829C5FDA5D6EA                                           
0001ebc8  __covrec_C15F2CF5A53F36D6                                           
00014308  __covrec_C165DBE4DFA429BB                                           
00022958  __covrec_C17285F0F24EF078                                           
00004fc0  __covrec_C176BF6870490891                                           
000150a0  __covrec_C17BEFE86E29456D                                           
00000f88  __covrec_C185D9799EF8856B                                           
00025748  __covrec_C1879FA7C346EBC                                            
0001a3c0  __covrec_C18C03D15A8F8D51                                           
00012170  __covrec_C18F83E553AC126F                                           
00015e10  __covrec_C19614860C5B3309                                           
00023588  __covrec_C1B12A6B3A138DC9                                           
0001e448  __covrec_C1B2B1A0B6EC290F                                           
0000eb10  __covrec_C1BC76294A14ECF8                                           
00012698  __covrec_C1BF6DE9B55DAAB3                                           
0000e1d8  __covrec_C1C101DA9618338E                                           
0000fd58  __covrec_C1CD6E7915AFE417                                           
00005ba0  __covrec_C1F53E5D3B6AC587                                           
00009980  __covrec_C21FBE5352460E73                                           
00020298  __covrec_C239BA51ED9EC8C                                            
0001cad0  __covrec_C24C11236C197783                                           
00004c00  __covrec_C25D1AE00BC2AF2B                                           
00019448  __covrec_C268EEC39DA3B21C                                           
00012418  __covrec_C27D06AE82A293D                                            
0001e880  __covrec_C284900A3BECEF9F                                           
0001bc70  __covrec_C28518340856F2B0                                           
00020a68  __covrec_C29C540C64A8C99C                                           
0001e588  __covrec_C2BB13DE1AE343CB                                           
000228b8  __covrec_C2BBD9F4FD1A81B5                                           
00006230  __covrec_C2CF3C9AE01B1DB1                                           
00004ea8  __covrec_C2E98241F9B9E939                                           
0001a550  __covrec_C2EA69130D5DE4D6                                           
00010f50  __covrec_C2EF148862555454                                           
00020b30  __covrec_C307A6F1EDD2DFB6                                           
000123c8  __covrec_C30924248DFD5F16                                           
00017f80  __covrec_C31D13C77667C7D8                                           
0000cdd8  __covrec_C338205170140FE6                                           
0000d760  __covrec_C35568601D7BCF31                                           
0001f8e8  __covrec_C360429D1CA00A11                                           
00015708  __covrec_C36BC5DC6B7BAC00                                           
0000a448  __covrec_C3717DAA372F3CE2                                           
00010488  __covrec_C3755C63A5F65192                                           
000256f8  __covrec_C37F4325D39AA6F4                                           
0000f308  __covrec_C393FE117C15FDE0                                           
0000e318  __covrec_C397AC493E8DDD70                                           
00004930  __covrec_C3A05CCC5F1115FC                                           
00018b10  __covrec_C3A1DC3CF32D203A                                           
00008440  __covrec_C3A5959089114948                                           
0001ccb0  __covrec_C3B2B1E927D2AED0                                           
000039e0  __covrec_C3D835A944FBF584                                           
0001b5b8  __covrec_C3F7D722BD7A26A9                                           
00009c00  __covrec_C3FB3FD3FF8B153A                                           
0001c530  __covrec_C470FE3D8AEB00D9                                           
0001f938  __covrec_C47257D07254FED2                                           
00004ca0  __covrec_C47507CB5AF1C8A1                                           
0001d098  __covrec_C49D033DE3A9AFB9                                           
00011a90  __covrec_C49DE2E1CEC0B1C2                                           
00015320  __covrec_C4A3B254D2D9F398                                           
000102d0  __covrec_C4A63862D333E2A7                                           
000239c0  __covrec_C4B01E72A10B79FE                                           
00020f68  __covrec_C4BF6877E3DA2AE6                                           
00021328  __covrec_C4BFDCB78073AB38                                           
000109d8  __covrec_C4CADF83656F92D1                                           
0001a488  __covrec_C4CB3B4E9E7F3A34                                           
0000a010  __covrec_C4CD0C3EB85C8048                                           
0001edd0  __covrec_C4CD8A127B42E748                                           
0001be78  __covrec_C4D78141AF2572F5                                           
00002950  __covrec_C4F31C76F45E4EA7                                           
00011220  __covrec_C518FBE673DB7057                                           
0000a128  __covrec_C534A37671FD9CC4                                           
0001dae8  __covrec_C55313E71DA0C3B9                                           
000021d0  __covrec_C5839EA228F3D861                                           
0000e688  __covrec_C586BFBBBF98D9D5                                           
0001f5a0  __covrec_C5BCF3911B560B66                                           
00008918  __covrec_C5EF30E59232EC09                                           
00024be0  __covrec_C617E7C9DBB1B5DC                                           
00003418  __covrec_C620EBF52E39A50D                                           
0001bc48  __covrec_C634E91CD196F85E                                           
00013ed0  __covrec_C637502431AE366C                                           
00007d88  __covrec_C647494A993F71E1                                           
00003698  __covrec_C66ADE54CB322E88                                           
0000eea8  __covrec_C66C300848C1C3A1                                           
00015258  __covrec_C66DD2C07ECA2C23                                           
0000b0c8  __covrec_C69D67C508DC0D29                                           
0001f7a8  __covrec_C6AB4526964850E8                                           
00004480  __covrec_C6B3F9E912F54268                                           
00010528  __covrec_C6B512C0EDE94477                                           
00017670  __covrec_C6C59DFD81F45453                                           
00010f28  __covrec_C6CF8F5C398F03F8                                           
0001bf68  __covrec_C6E5746A589295D1                                           
00016388  __covrec_C6E5A9332171B0BC                                           
0000fda8  __covrec_C6F08418978F9D5                                            
00008c60  __covrec_C70B9E955DEA7657                                           
0001bb30  __covrec_C71D83EEEEBD25C5                                           
000093b8  __covrec_C72B5DD730FE9607                                           
000142b8  __covrec_C72CDDA90EDC4BAD                                           
00022188  __covrec_C73A30597B6CE2DC                                           
0000e2a0  __covrec_C7524CA75810942B                                           
000013e8  __covrec_C76593D1042D36CF                                           
0000ada8  __covrec_C77CF0904800F9F9                                           
00006488  __covrec_C7830523CEC31720                                           
00022e80  __covrec_C78B4A6A98D02577                                           
00005600  __covrec_C79095B0D05AE2EB                                           
000249d8  __covrec_C7C205F37933D1CA                                           
00000da8  __covrec_C7C5227455D2754D                                           
00005240  __covrec_C7C8834F72C143B1                                           
000132f0  __covrec_C7CF69551785A508u                                          
000247a8  __covrec_C7D3229704260BFE                                           
0001b5e0  __covrec_C7DC5231AA70BA0F                                           
0000e750  __covrec_C7FD1617C63B3887                                           
0000d0f8  __covrec_C8068DADE76421C8                                           
00021ad0  __covrec_C81DAEE90F8696CC                                           
00015898  __covrec_C820D13AAADDFBF9                                           
00019290  __covrec_C8340AF3DD76DEA5                                           
00001af0  __covrec_C834BCEB168D1BFE                                           
0000ace0  __covrec_C85D3D98B3A44572                                           
000154b0  __covrec_C8956EA37A365FE5                                           
00004cf0  __covrec_C8AD4BEB3C4ED322                                           
000059c0  __covrec_C8BD16855D0FA696                                           
0001e808  __covrec_C8BD44ABF6512FBA                                           
0001b8b0  __covrec_C8E89BD540C9114F                                           
0001a780  __covrec_C8F4E67F540B3236                                           
00001910  __covrec_C8FAAE9B18BD1308                                           
0000c6a8  __covrec_C8FE4F6398A717E5                                           
00013b10  __covrec_C9152F537137F215                                           
000082d8  __covrec_C91DE7837E9D6912                                           
00011090  __covrec_C92B7A378BC186E1                                           
000100a0  __covrec_C92BE0C7FCE731DF                                           
00017b48  __covrec_C93E92B492002ABF                                           
000016b8  __covrec_C95BEB18CE1C4B04                                           
00009750  __covrec_C980DAA0C608DB7D                                           
00006d98  __covrec_C98F30D53FA0A327                                           
00010de8  __covrec_C9A3BFFB550F2EE6                                           
0000e340  __covrec_C9A5B4F13A94491C                                           
00004430  __covrec_C9BF26B7B2C22935                                           
00003ff8  __covrec_C9CCF07968B7DB0A                                           
00004de0  __covrec_C9E136BB3DC83F36                                           
00019bc8  __covrec_C9E60D5E928F5EEC                                           
00001140  __covrec_C9E941037ACE2DBE                                           
0001e358  __covrec_C9EA72700DD2DA54                                           
000161a8  __covrec_CA08C308926F86A5                                           
00009bb0  __covrec_CA0EB06388A12DC                                            
00007400  __covrec_CA3AF406308A56C                                            
00004138  __covrec_CA517F231FBFD956                                           
000211e8  __covrec_CA537B5FD783D60B                                           
00018fc0  __covrec_CA685C0901188451                                           
00010f00  __covrec_CA6DB3EE240D056C                                           
0001fdc0  __covrec_CA7C0417F799A12C                                           
0001b248  __covrec_CA8C60D3EA5362E1                                           
00018840  __covrec_CA8DBCD54A2B28B1                                           
00009e30  __covrec_CA99BBBC3777764D                                           
000061e0  __covrec_CAA716E3E35DF94A                                           
0000daa8  __covrec_CABDE2662CE4E99D                                           
00013648  __covrec_CAC374A65142BF09u                                          
00003a30  __covrec_CAC9E307594C3C2F                                           
0000f650  __covrec_CAEEBA5CCD7A90B5                                           
00023f60  __covrec_CB298777B5BBC7AD                                           
00002018  __covrec_CB2C9C4200AD504C                                           
00012850  __covrec_CB2CC41427F04B94                                           
0000a218  __covrec_CB2DAAD41DDC8D7E                                           
000227c8  __covrec_CB3C47A7D249D04                                            
00023600  __covrec_CB3FF3F526A2F00C                                           
0001a820  __covrec_CB401E04B85A55F6                                           
00020400  __covrec_CB6A11825FEC0147                                           
0000f678  __covrec_CBB5E475D9F87272                                           
0000b8c0  __covrec_CBB96F0D582366A8                                           
00008210  __covrec_CBC387C18C32975A                                           
0001c2b0  __covrec_CBC9F45CB78F8B90                                           
0000a178  __covrec_CBD9180EB7C703A9                                           
00000e48  __covrec_CBD93D232D2BA531                                           
00015ac8  __covrec_CBD9B5558060A720                                           
0000eb38  __covrec_CBDE5594830D6352                                           
000169a0  __covrec_CBF2E73A32284FE9                                           
00015910  __covrec_CBFAAF6E85E67C2A                                           
0000b3c0  __covrec_CC00B429870B1C6B                                           
00000fd8  __covrec_CC0969AF4D272AF0                                           
0001d0c0  __covrec_CC0E79F34BDE50C1                                           
00014bf0  __covrec_CC106C1DC2E570F1                                           
0000a100  __covrec_CC6D20FC1CE8A67                                            
00023ab0  __covrec_CC6EB3AA84257997                                           
000008f8  __covrec_CC73C99640B9A912u                                          
00015050  __covrec_CC76C5EF96D89539                                           
00025338  __covrec_CCA1F12623A87E34                                           
0001f0c8  __covrec_CCBC4573637DA55F                                           
0001f348  __covrec_CCE2B14552749412                                           
0001bef0  __covrec_CCE8587A3277B01F                                           
00020748  __covrec_CCFBAF14A6C959A5                                           
000112e8  __covrec_CD200358C341AAF                                            
00003a80  __covrec_CD268E13E7F0366F                                           
000147b8  __covrec_CD2ABFA5EBEDE95E                                           
00009638  __covrec_CD302A2DDAEF92A7                                           
00018ef8  __covrec_CD3F17D62E99D72F                                           
0000a4e8  __covrec_CD433498C29EC237                                           
00012c38  __covrec_CD433A8C325953BC                                           
00013430  __covrec_CD4A8BBF42B93D9Du                                          
00006078  __covrec_CD511070BE1CDCEB                                           
00019678  __covrec_CD52D5354BACA035                                           
000087d8  __covrec_CD58FDEBAEB3AEBB                                           
00024b40  __covrec_CD5C2F4CD8490DB3                                           
00023510  __covrec_CD770DF23638413B                                           
0001b928  __covrec_CD808DC22BF44FE8                                           
00012c88  __covrec_CD83C4AC0A0169E2                                           
00011680  __covrec_CD9ABCDE6D0D6623                                           
00021fd0  __covrec_CDBCE9076F882CD6                                           
00025608  __covrec_CDBEC65CA76225B3                                           
0001b630  __covrec_CDBF3A5FF7EE087                                            
00009958  __covrec_CDE309034A767150                                           
000011b8  __covrec_CDE652D1C20D5CE8                                           
00012468  __covrec_CDEEA0644ADBF558                                           
000012a8  __covrec_CDF9EA55D29BFCFB                                           
0001b978  __covrec_CE07E47036E86558                                           
000192e0  __covrec_CE081AE001D392A7                                           
00016ae0  __covrec_CE63BEA95B1AAA26                                           
00008878  __covrec_CE761FD5DA6BB656                                           
00006a50  __covrec_CE7FBBDF2E28DF23                                           
00001fc8  __covrec_CEBA117696EF3CF7                                           
00004c50  __covrec_CEC6550499C2508B                                           
000251f8  __covrec_CECC738F131939BC                                           
000252c0  __covrec_CED9A24C87C67E33                                           
0000f420  __covrec_CEEC01DDD493738D                                           
0001b608  __covrec_CEFB9F7F6D63820E                                           
00016e78  __covrec_CF07008B357FC16E                                           
00019268  __covrec_CF1DAB8B6A2AA843                                           
00003dc8  __covrec_CF22339D599462A3                                           
00005d08  __covrec_CF26FF9D87813558                                           
00017a58  __covrec_CF30B3F8389553FA                                           
00005150  __covrec_CF367CA3E7A908F5                                           
0001d4f8  __covrec_CF4FC1E32151C594                                           
00010730  __covrec_CF568B3DFDF1C20A                                           
0000fab0  __covrec_CF6296B2BFB76AC6                                           
0000bd98  __covrec_CF6C471A9CB47D49                                           
0000d800  __covrec_CF768E9FE9073E66                                           
0000b9d8  __covrec_CF784E75FFDC193D                                           
00020040  __covrec_CF883BE42879D27C                                           
0000fbf0  __covrec_CF8A5E988A43C975                                           
0000c360  __covrec_CFA3592458A9C33F                                           
00000c18  __covrec_CFB81432C3651F71u                                          
0000f150  __covrec_CFC3953EB5D6AE21                                           
00024a28  __covrec_CFCCF873B7181C91                                           
0001c760  __covrec_CFDB817D939AB454                                           
00018bb0  __covrec_CFF4B1D49D637D05                                           
000064d8  __covrec_CFFA2A8305ACC8E4                                           
0000e110  __covrec_CFFCBE755B3A13E0                                           
00012a30  __covrec_CFFE21ED9DFA8798                                           
000215a8  __covrec_D023413EC1FF36D0                                           
00006258  __covrec_D04D7D22ECBC829E                                           
0001a8c0  __covrec_D04DC704886886C6                                           
00004d18  __covrec_D076C8BB94D7463C                                           
0000d918  __covrec_D07A37B1939E5D54                                           
00023bf0  __covrec_D07EA17EA69B8479                                           
000097a0  __covrec_D0B9EA4B13115ED2                                           
000196a0  __covrec_D0C19A2C829A1D55                                           
00010b18  __covrec_D0CB8B99216A2BE9                                           
0000e9d0  __covrec_D0DB042F795A0414                                           
00019f38  __covrec_D0F6FDA3D53C6FE4                                           
00016fb8  __covrec_D0FDD256AE50233D                                           
0000e700  __covrec_D101D64316D5B0B0                                           
0000d788  __covrec_D12D546919F375B0                                           
00022700  __covrec_D13B5C531F5197CD                                           
0001d7a0  __covrec_D13E1DD0A904D1EC                                           
00006fc8  __covrec_D145166A4F5F6426                                           
0001a8e8  __covrec_D149E6B126AFF09E                                           
00010c30  __covrec_D14A42CC925B9C8D                                           
00015820  __covrec_D15FC9E9035023E4                                           
00019060  __covrec_D163700B248786AA                                           
0001d2f0  __covrec_D166DCE98F6D0E9C                                           
00011bd0  __covrec_D16E9414128619D                                            
0001a5c8  __covrec_D171F092417D4735                                           
00001820  __covrec_D176E5AD3821995                                            
0000df30  __covrec_D18F16CFBDDDAF90                                           
00011b08  __covrec_D19EA0397B5C3E0E                                           
00023e70  __covrec_D19EE980B71AEC43                                           
0000fce0  __covrec_D1A4A94F5450281C                                           
00019498  __covrec_D1A6617A5EDDDD2C                                           
0000d058  __covrec_D1B079BA6AD5D6E4                                           
0000dd50  __covrec_D1C932F0535573F5                                           
0001e6a0  __covrec_D1D10A4F101AAA4                                            
000224a8  __covrec_D2007C2CBD0F9E4D                                           
00007ec8  __covrec_D20644B6A04081D1                                           
00001a78  __covrec_D21BD6731AD59AB6                                           
00020ba8  __covrec_D22CAAC6655B0C37                                           
00010398  __covrec_D25B518CBFBCCE7A                                           
00020c48  __covrec_D28992F781DD20D5                                           
0001fe60  __covrec_D2934CB964BCC507                                           
00021fa8  __covrec_D2A160C7D91897                                             
00001370  __covrec_D2AF46475CE9A6D4                                           
000051c8  __covrec_D2BAD2F436C6AD86                                           
0000e3e0  __covrec_D2F1954F70E5EFFB                                           
000145d8  __covrec_D2FBD09CF9175ADA                                           
0001d598  __covrec_D30E084174151E21                                           
0000b7f8  __covrec_D31466C737A8BC52                                           
000128f0  __covrec_D315E5A5ADB42A12                                           
00021260  __covrec_D3387D696F34035B                                           
0001af78  __covrec_D3555C4264598523                                           
00019d30  __covrec_D35B061DD72A8133                                           
00009908  __covrec_D3745359EB8B5CBC                                           
0001c0a8  __covrec_D384089B6507668C                                           
00002040  __covrec_D39670003513FFC1                                           
000193a8  __covrec_D3BCCDBD67187C42                                           
000238d0  __covrec_D3BD8053F86E41DE                                           
00007a68  __covrec_D3C9124D5C1F173E                                           
00009048  __covrec_D3D1FC72BF0CAA96                                           
0000f470  __covrec_D3DAB2AA8B76E17D                                           
00023650  __covrec_D3E0CC8EE8B7B5EB                                           
0000e9a8  __covrec_D3E5A6D38E6C5BB1                                           
0000cc70  __covrec_D3E9D6F1831DF734                                           
00005da8  __covrec_D3EE9FA453229DF5                                           
00008670  __covrec_D403396BA3CDE02E                                           
0001fe10  __covrec_D4074637B149442C                                           
00014560  __covrec_D41E15BD3C137045                                           
0000e228  __covrec_D41E8AAA9E2B6410                                           
0000aa60  __covrec_D426D73B146373FB                                           
00008698  __covrec_D43CA48CF39A9F49                                           
0000b370  __covrec_D4410CE70E74D2A3                                           
00025018  __covrec_D4626EC386D868E0                                           
00017788  __covrec_D46C6760916F836A                                           
00018458  __covrec_D47BE27B68D57C53                                           
00009a48  __covrec_D48DB7AAD5027576                                           
00010780  __covrec_D490D54BA6F71A1F                                           
000121e8  __covrec_D494683101F6015                                            
00014588  __covrec_D4A58762ABE74B26                                           
0001c580  __covrec_D4AC32A10CD7CB0F                                           
0000f830  __covrec_D4CD7FEC96B7299F                                           
0000d698  __covrec_D4D3B8F3CE1E777D                                           
0001de30  __covrec_D4D6FC7683C95E7A                                           
00006b40  __covrec_D4E2075A479E03B9                                           
0001d958  __covrec_D508958877B7CDD7                                           
00018ed0  __covrec_D5253C2D081AEC51                                           
000114c8  __covrec_D534DE2A8E92EDF4                                           
0000b690  __covrec_D53ACBADB85E2C0F                                           
00009d68  __covrec_D53EDEB70363CB13                                           
0000cba8  __covrec_D53EFDEC719E3E9F                                           
00021a08  __covrec_D5409A4D6856EF55                                           
0001e650  __covrec_D5424533F9D0A94B                                           
00015c58  __covrec_D55622F88F5226B7                                           
00022ae8  __covrec_D57E84B1A2601E15                                           
00003850  __covrec_D585869A703FE009                                           
00025248  __covrec_D586C93DA51AE2EF                                           
0000f498  __covrec_D58CE91F610E2E2F                                           
00013e08  __covrec_D5B4CC8656A701E4                                           
000018c0  __covrec_D5DACA89FCA1A914                                           
00014d08  __covrec_D601B461E1A36E5E                                           
00022570  __covrec_D6089EA6A03C1DFE                                           
00002090  __covrec_D6174802281A6555                                           
00005330  __covrec_D62AD01075E42B01                                           
0000ea70  __covrec_D62D55F3F01A0888                                           
00006780  __covrec_D644D1786C856123                                           
0000e390  __covrec_D654905C8A54BBBD                                           
00009728  __covrec_D654951030E66D2D                                           
00025798  __covrec_D65B84EB5603889D                                           
00005100  __covrec_D65F3DF86CC343D9                                           
00010000  __covrec_D664BB3962988E61                                           
0000f7b8  __covrec_D6678463B0397822                                           
000244b0  __covrec_D66F26331EE7175B                                           
00020cc0  __covrec_D67633C8BBEFBD55                                           
00014498  __covrec_D682D97A67E8CF22                                           
0000dc60  __covrec_D6857CD3212C9731                                           
00013b60  __covrec_D68C7935EACE4A97                                           
0000ab50  __covrec_D6906745245FA8B9                                           
00012490  __covrec_D69D04A412471EF6                                           
00023c90  __covrec_D6A18F6B0143D735                                           
0001cd50  __covrec_D6C0ECB4343048C3                                           
0001e4c0  __covrec_D6CA4E27A30329FF                                           
000196c8  __covrec_D70154E3E201FB1                                            
000233d0  __covrec_D706DB4BB573BB3D                                           
0001bbf8  __covrec_D70EA4A8A98751CE                                           
00003058  __covrec_D710CB3C046B8158                                           
00007e50  __covrec_D719D38D949F852B                                           
00008aa8  __covrec_D71C19661CAEED7A                                           
00024280  __covrec_D7386B0EE8FE1AA8                                           
00000f60  __covrec_D745A0DEF7F03ABB                                           
00000dd0  __covrec_D74FA70DE15B5E3E                                           
00006320  __covrec_D752C8B0DB118B00                                           
00008f30  __covrec_D75967D85D36C099                                           
00011a18  __covrec_D777EF649DB88A72                                           
0001a5a0  __covrec_D7983C05E0832327                                           
0001ef60  __covrec_D7A5E186EC53EB7C                                           
000138e0  __covrec_D7C7FD587CF7F27E                                           
00021cd8  __covrec_D7D2A99D60ACB32C                                           
00012558  __covrec_D7D58EE6260EFFD5                                           
000136b0  __covrec_D7DFE1844D8B0F8Cu                                          
00010e10  __covrec_D7FA8C1A6AE3CFB5                                           
000105c8  __covrec_D7FCE8013E1A7E47                                           
00019e20  __covrec_D8357A951D6CC3AD                                           
0000dd78  __covrec_D8382B5E0B73A19F                                           
00016928  __covrec_D85940657E5DE4DF                                           
00006758  __covrec_D87F0F8BC763BB1D                                           
00018ac0  __covrec_D895D93EA590B5A1                                           
0000d530  __covrec_D8B31576A6B64536                                           
00003f30  __covrec_D8D12F6440AA397E                                           
00000d80  __covrec_D922519118B87F37                                           
0000d468  __covrec_D92491D4E3A73E87                                           
000254a0  __covrec_D946AFFF68D80E46                                           
00014d58  __covrec_D94C1F618B4FD7E8                                           
0000ddc8  __covrec_D950A2AAB0958AEE                                           
000197b8  __covrec_D954D0998E13AAD4                                           
0001f7f8  __covrec_D959A60138CD433E                                           
0000b500  __covrec_D97355420F1ABDCD                                           
0001d5e8  __covrec_D98016B2FE4D3D31                                           
0001c350  __covrec_D98E6A74FFF9D8A                                            
00016568  __covrec_D996028D5A69C6F2                                           
0001a7a8  __covrec_D998495D77F56213                                           
00017d78  __covrec_D9B5BBF5883ABD67                                           
000039b8  __covrec_D9B731F23040D351                                           
00017a80  __covrec_D9BFBE2790C83171                                           
00001ca8  __covrec_D9CF2926C0C235D0                                           
00016bd0  __covrec_D9D1CA770677649C                                           
00018638  __covrec_D9DA8721215694F0                                           
00019470  __covrec_D9DDA3EAD197CE88                                           
00017008  __covrec_D9DF300B9FB82770                                           
0000f290  __covrec_DA0A1FD561552DCB                                           
0000e1b0  __covrec_DA15D81B7651C938                                           
0001fc08  __covrec_DA16BD1FEC470510                                           
00011b58  __covrec_DA37655C7FE16524                                           
00008bc0  __covrec_DA3EA8C394416CAD                                           
00016bf8  __covrec_DA73F3FA2202180A                                           
0001ae88  __covrec_DA78BB48445AA633                                           
00000958  __covrec_DA82EAFB72C4E503u                                          
000222c8  __covrec_DA9A9D536ADFC90B                                           
00007810  __covrec_DAB2ED886F563438                                           
0001c4b8  __covrec_DAB8E868E50A27CF                                           
000079c8  __covrec_DABA1CE00121DAB1                                           
00023d80  __covrec_DACD33E1AF0DED55                                           
0001dd90  __covrec_DAD4941A63D99853                                           
0001f0a0  __covrec_DAE8D5ADDB41B37                                            
000069b0  __covrec_DAFF0ACFC87A44ED                                           
00014a88  __covrec_DB095F1DF7361C4                                            
000026a8  __covrec_DB29C5AD47E41231                                           
0001a910  __covrec_DB2B422DD9C5F163                                           
0000afd8  __covrec_DB33DFF21D344FE1                                           
000033f0  __covrec_DB447E3C4E66F1FF                                           
0001d700  __covrec_DB471C349C709A12                                           
00008378  __covrec_DB4CFE5CB264B53B                                           
00008be8  __covrec_DB4EB1B807C83705                                           
00021be8  __covrec_DB846B1F611511E2                                           
000006f8  __covrec_DB956436E78DD5FAu                                          
00005b78  __covrec_DBA11B385BA92440                                           
00012710  __covrec_DBBC192E70D41103                                           
00010ac8  __covrec_DBBE8B0EA20C3944                                           
000220e8  __covrec_DBC4F0F97B3DA53C                                           
000201f8  __covrec_DBE35451CF19422                                            
00022340  __covrec_DC0FA30D02EF7B58                                           
00006cf8  __covrec_DC1E06BA01B2035B                                           
0000ba28  __covrec_DC2E639A1A0D9DD7                                           
0000ba78  __covrec_DC3487D5BD79A3C                                            
00014808  __covrec_DC3FCB1CD0B907FA                                           
0001aff0  __covrec_DC3FF53EE745C134                                           
00017198  __covrec_DC44040CD5577CAF                                           
000160b8  __covrec_DC612321FB754968                                           
0001dd40  __covrec_DC679B92F1EE3E32                                           
00021ee0  __covrec_DC69E42406D125B8                                           
00005060  __covrec_DC724B3B904C3912                                           
000086e8  __covrec_DC7CFADC43D1112D                                           
0000be10  __covrec_DC9799907DA924FA                                           
0001dbd8  __covrec_DCB964463AE10E6B                                           
0000c1f8  __covrec_DCEB82A5AFAE4F1F                                           
00001c08  __covrec_DCFAE62D27204390                                           
0001ab40  __covrec_DCFDECC609924E0D                                           
0001d458  __covrec_DD1D58311D02EABE                                           
00011f40  __covrec_DD200715A63E8E1                                            
00011270  __covrec_DD27DEFB065550FC                                           
000135c0  __covrec_DD2DAE6733804F42u                                          
0001d250  __covrec_DD46D3C4DEFB9C99                                           
0001b478  __covrec_DD47B775D2BA38FC                                           
00002310  __covrec_DD49671574D043E                                            
0001af50  __covrec_DD4A0C4B99122703                                           
0000b3e8  __covrec_DD5989721CF29DF0                                           
000166f8  __covrec_DD7190B3978EBC39                                           
0001cb48  __covrec_DD7A9DE99C6C5AF4                                           
0000bf78  __covrec_DD845E5C17F45058                                           
0000abc8  __covrec_DD8D851CFD2430A1                                           
0001b040  __covrec_DD8F3F4BB452940E                                           
00024078  __covrec_DDCA764F6F979673                                           
0001d430  __covrec_DDD36BF1BDB7AA08                                           
00003648  __covrec_DDDC05C41D91761D                                           
00009d40  __covrec_DDEF16C925418CDC                                           
00008f80  __covrec_DDF2EF64F4A7C7FE                                           
0001faa0  __covrec_DDF81D9F2B5DCDD2                                           
00007b30  __covrec_DE072B7625C500BF                                           
0001e100  __covrec_DE0C383DAC236695                                           
000190d8  __covrec_DE34EC45D2197840                                           
00007680  __covrec_DE41F40ED9023DFA                                           
00010190  __covrec_DE4692A25B562034                                           
0001e858  __covrec_DE53C8C4FE5CC688                                           
00003918  __covrec_DE6536B9BA7850DC                                           
000155f0  __covrec_DE76C20852CC2132                                           
00018278  __covrec_DE7AA2ACCED77C8                                            
000095c0  __covrec_DE8B1F1528854145                                           
00005ab0  __covrec_DE9C2ABC6E054D19                                           
0000d8a0  __covrec_DEAC6DBD1C1E5E9                                            
00002f90  __covrec_DEB252A44A9148D9                                           
0000bd70  __covrec_DEC188C1A3A80664                                           
00010a28  __covrec_DED25F039A71A4B4                                           
00015fc8  __covrec_DED677DADB7BB886                                           
00024cd0  __covrec_DEE1C41A02EED5C4                                           
00013f20  __covrec_DEECC6CD28815579                                           
00000f38  __covrec_DEF0F1E709F334C6                                           
00021468  __covrec_DF19DB5FF8AA4536                                           
00012a80  __covrec_DF2994853A168ADB                                           
00014da8  __covrec_DF2ACD149E3EC26B                                           
00022520  __covrec_DF36CD3867E449BC                                           
0000a588  __covrec_DF407467C333668B                                           
00009548  __covrec_DF45AEB24EF38B6C                                           
0000fdf8  __covrec_DF50453AB1183B8A                                           
0000f880  __covrec_DF6264F59FF180AE                                           
0000b078  __covrec_DF765CF2CEA5CBE5                                           
0001da98  __covrec_DF7E3D1C5554EC59                                           
00020450  __covrec_DF80A5B790AC171A                                           
0001df48  __covrec_DF83ECEE727A5DD6                                           
000024f0  __covrec_DF9613DF2F4112FB                                           
000230b0  __covrec_DF9BB6D34120A97B                                           
00015cd0  __covrec_DFB5D1D33A87B86B                                           
00001e10  __covrec_DFD1D32FA86312D6                                           
0000ab00  __covrec_DFE2F34A3E14EDCE                                           
00001c80  __covrec_DFE36EB2EF22006D                                           
00024e10  __covrec_DFE73B7B1021BC7A                                           
00024758  __covrec_DFFFDF448C6D309                                            
00004458  __covrec_E00E05C9ADF33C09                                           
0001b590  __covrec_E0574A7F6C7FE9EB                                           
00019e70  __covrec_E0575EF810248D3C                                           
00007f68  __covrec_E074F2870036C26                                            
00015f00  __covrec_E076DE5CF10EA0F6                                           
000016e0  __covrec_E07C32719EE53517                                           
0001c990  __covrec_E0842A3A8957D10D                                           
00016900  __covrec_E08A7D27AEA0B6C4                                           
000054c0  __covrec_E0ADD0BF37A3C927                                           
0000a650  __covrec_E0C6493F218D723F                                           
0001f398  __covrec_E0DF7F5D25D80AD9                                           
0000e4f8  __covrec_E0EACB2A8987267E                                           
00014fd8  __covrec_E0EAD5EDA1401596                                           
000031e8  __covrec_E0FD01069393FD9A                                           
00019010  __covrec_E114898DAAA5BEF6                                           
0000da30  __covrec_E12F9CFDFB65858A                                           
00018a98  __covrec_E1530E7A17298A76                                           
00020db0  __covrec_E176DE7F78C356A8                                           
00006118  __covrec_E17ECC88E6C014C4                                           
000195d8  __covrec_E18B4A3D28292E1                                            
000251d0  __covrec_E1A5B2CA3303A7AC                                           
00014880  __covrec_E1A6791F0E05F114                                           
0001d340  __covrec_E1B2D1FEB13F85A6                                           
00003620  __covrec_E1BA7C8C49906F16                                           
00007068  __covrec_E1CADC27087C001D                                           
0001dd68  __covrec_E1D05ED567AD88B3                                           
0001cb20  __covrec_E1DBE843867CF66E                                           
000034e0  __covrec_E1E36477F06660E                                            
0000b988  __covrec_E1E417A7615EEB93                                           
0000d148  __covrec_E1FC1A338E21D93B                                           
000033a0  __covrec_E2451CF75A479B00                                           
00003760  __covrec_E2465670407F53ED                                           
00021238  __covrec_E248C48590FF7B21                                           
0000cd60  __covrec_E2496B9A485C1097                                           
00021d50  __covrec_E253D24803A745F8                                           
00017da0  __covrec_E25E3C69A2C093FE                                           
000122b0  __covrec_E279589CABE6DE42                                           
0000bed8  __covrec_E27FAC7E325BB49C                                           
00000df8  __covrec_E28CD539BB7D1BB8                                           
000125a8  __covrec_E291ECBA961FEE95                                           
000049f8  __covrec_E29A762D3FB528C                                            
00009138  __covrec_E2B80CD87AAE5D42                                           
0001a208  __covrec_E2BACE41E30617A9                                           
0001b4f0  __covrec_E2CB17AF898C3228                                           
00003468  __covrec_E2E3AE923F4B735F                                           
0001e060  __covrec_E2E834B6629CE320                                           
000150c8  __covrec_E2F64C6B079FF5AB                                           
0000ce78  __covrec_E2FC180D9E91BDE7                                           
00017580  __covrec_E30F78146A77D9A7                                           
0001b1d0  __covrec_E322092842F7340                                            
0001a528  __covrec_E343A047350791DF                                           
000198d0  __covrec_E34511D25E36A244                                           
0000e188  __covrec_E34C86727FC6FD46                                           
0001b860  __covrec_E3518C62E0440A85                                           
0000d3a0  __covrec_E376985B5C25D714                                           
00003d50  __covrec_E37B27B12CE288F9                                           
00025928  __covrec_E3820D34BA47BB77                                           
00002e28  __covrec_E39D27E5F526D118                                           
000191c8  __covrec_E3C48853351D961                                            
00017eb8  __covrec_E3CF855287A82BEC                                           
00012918  __covrec_E4075D897982288A                                           
00019560  __covrec_E40BD4FBEC9475E                                            
00012dc8  __covrec_E41F95FC3CADC35F                                           
00012a58  __covrec_E44F75E1AA52DCEF                                           
0000b7a8  __covrec_E45E3ACA040B56ED                                           
0001a398  __covrec_E4610D219A4ED31                                            
00004818  __covrec_E465E9C13B8CECEB                                           
00021558  __covrec_E468212A7A4C64E3                                           
00017558  __covrec_E49524A10E027AC6                                           
00022bb0  __covrec_E4A1E387ECAC3A2D                                           
0000db98  __covrec_E4A8E76C9BD4D8EE                                           
00017120  __covrec_E4B0626E416B19B5                                           
0001f5f0  __covrec_E4B890F76048E996                                           
0001e178  __covrec_E4BC5C1C9B522724                                           
0001cc60  __covrec_E4C40D5C5CFA6531                                           
00018160  __covrec_E4D053578B19A849                                           
0000c8d8  __covrec_E4DC80ACE25DF583                                           
0000ca68  __covrec_E4DFC02D1E68460                                            
0000c310  __covrec_E4E696DC4BBCB36C                                           
00023790  __covrec_E4EE63A78EBD9E96                                           
0001e8d0  __covrec_E5004354570D679                                            
0000f2e0  __covrec_E513A61E0DF66E5C                                           
00009250  __covrec_E5217E5709215668                                           
00004390  __covrec_E53737C50ABE00B8                                           
00023010  __covrec_E54F38072A567845                                           
00001eb0  __covrec_E55F05AF2D04704E                                           
00013a98  __covrec_E570407CEC6CB7F0                                           
00023240  __covrec_E58267904E30DEFA                                           
00012da0  __covrec_E5A77E86D05A371B                                           
00019510  __covrec_E5BADA89A063A7FE                                           
00008620  __covrec_E6002594915BE0F8                                           
0000b1e0  __covrec_E60074CEB33FD374                                           
0001ccd8  __covrec_E619CCC955A6862B                                           
00008328  __covrec_E62E91514D076424                                           
000012d0  __covrec_E63CE27C6A83417C                                           
0000e2f0  __covrec_E6460CD2D4F83E38                                           
00019ad8  __covrec_E65B615C74CEBB96                                           
00025310  __covrec_E66B7ADE829927E1                                           
00023358  __covrec_E672E4C139CF37B5                                           
00016950  __covrec_E67E7DC7B1601F23                                           
00012f58  __covrec_E685E572EC7AFAC8                                           
00001a50  __covrec_E6934FCBF62DBED1                                           
0001f7d0  __covrec_E6A145D181120995                                           
00014858  __covrec_E6B1F129216596D                                            
000254f0  __covrec_E6BC0395B465B060                                           
0000fe98  __covrec_E6DCF9FFC5C0D092                                           
000236f0  __covrec_E6E84AC0AB1FA6F                                            
00021bc0  __covrec_E6EDFEBC4DC305A2                                           
00016c48  __covrec_E701EA8D7F416EB9                                           
00024820  __covrec_E7095CEEB5EADC68                                           
0000e570  __covrec_E71E3EE8FFC099C6                                           
0001bce8  __covrec_E72B77A267908E6C                                           
000047f0  __covrec_E73370ED22CBCAF7                                           
00022098  __covrec_E7450405C7F6F39C                                           
0001eee8  __covrec_E747975BDCB68B72                                           
00015208  __covrec_E748C901CEE0C64                                            
0000c248  __covrec_E770F8B90A4D8010                                           
00008da0  __covrec_E775051CF88F82BE                                           
00022778  __covrec_E77647DCFED80E9                                            
000185e8  __covrec_E77E74F8DA2AF574                                           
000206a8  __covrec_E788ABFEAD96B1B3                                           
0000add0  __covrec_E78C75D3A73A6C72                                           
00009570  __covrec_E7927401377F9AE6                                           
0000e598  __covrec_E7D593E7E8FEE7                                             
000141a0  __covrec_E7E547A68226B4AD                                           
0000dad0  __covrec_E7E5E77E4790561B                                           
0001b810  __covrec_E7E7144D5ECBBB5                                            
0000eb60  __covrec_E7F6AC2196ABC312                                           
00024348  __covrec_E7F6FCCA4F212604                                           
0001ba40  __covrec_E801FF57F7B8F56C                                           
00018610  __covrec_E8170BC21DBCAFEB                                           
00021a58  __covrec_E82325860AD548EB                                           
00022b10  __covrec_E8236E0C4E17C5AD                                           
000198a8  __covrec_E83844EB97E41293                                           
00007540  __covrec_E84212617F8F492E                                           
00016798  __covrec_E85969F560DDD631                                           
00021eb8  __covrec_E85C8D29E7F6CB1F                                           
0000b1b8  __covrec_E86642EB7DF2582C                                           
000238f8  __covrec_E8750E338B985971                                           
00015398  __covrec_E87D88B23CD18670                                           
0001c300  __covrec_E88140DB696B12FA                                           
00014768  __covrec_E8917193E5FEF053                                           
00022110  __covrec_E893E960D0B12CDC                                           
000037d8  __covrec_E89EBDEE7B0C4C6C                                           
0000b9b0  __covrec_E8B91B15EACB4757                                           
0000b6b8  __covrec_E8D29782E04D680F                                           
00021378  __covrec_E8D50A624AF1499A                                           
00011b30  __covrec_E8DE5C07AF2A28C0                                           
0001ac58  __covrec_E8E82BD5A06CBDFD                                           
00017878  __covrec_E9006A34444A2A37                                           
000070b8  __covrec_E902A499E6C5E90E                                           
00010640  __covrec_E9416C0FE82C21A7                                           
0000a290  __covrec_E94D14C39D3CDF74                                           
00016e28  __covrec_E960579F8AE392F0                                           
00009ea8  __covrec_E9684F39C3FEDBA4                                           
000179e0  __covrec_E96F6C670CC524BB                                           
00008c38  __covrec_E9839D3F223D1C94                                           
000171e8  __covrec_E98E4523C76567FC                                           
00000b58  __covrec_E9939CD7C750C3BDu                                          
0000ea48  __covrec_E9A2FCB92EFA12C7                                           
0000e840  __covrec_E9A7C5F5256CA1CF                                           
00019bf0  __covrec_E9CD8EC02240DD72                                           
000227a0  __covrec_E9D0B9A106B570B2                                           
00003508  __covrec_E9D3AE41EF2B366A                                           
00021e40  __covrec_E9F6566CE2924DCD                                           
0000fd80  __covrec_EA0C1992A2FCCD44                                           
00005bf0  __covrec_EA0C6128E7AAF500                                           
000076a8  __covrec_EA0F78F075F65130                                           
0001fcd0  __covrec_EA1E48C3488CC0E4                                           
000181d8  __covrec_EA2293814417AE2                                            
00023178  __covrec_EA2B3784EFBDE16B                                           
00005218  __covrec_EA3417B7F598D003                                           
00014650  __covrec_EA38372D951F349C                                           
0000b528  __covrec_EA39EEEB3FFB1851                                           
000122d8  __covrec_EA454A7325D2958A                                           
00006d48  __covrec_EA5C72D189E9A4EF                                           
0001b360  __covrec_EA87A98CE1D84D5D                                           
00003288  __covrec_EAA5D88A84CF723E                                           
0001fb18  __covrec_EAA690377138D9D7                                           
0000b848  __covrec_EAAB44DBE1EE9F96                                           
0000c478  __covrec_EAABEA81A2D2EB62                                           
00009188  __covrec_EAB11C4AFFD9BD8C                                           
00019b00  __covrec_EABD2DB4D7FE38C3                                           
0000c7c0  __covrec_EAE9B6B66DA65B2A                                           
000114a0  __covrec_EAF81E9446EEB44E                                           
0000ed68  __covrec_EB03BABFEDDC0D56                                           
00018d68  __covrec_EB354C3B55D00E6E                                           
0001f578  __covrec_EB3CD7B477E32A81                                           
00000f10  __covrec_EB405A324BCEE2AF                                           
0001eab0  __covrec_EB4E39EF1EA17CA5                                           
00003af8  __covrec_EB533A1C351E648F                                           
0001a1b8  __covrec_EB5AED9D23042DB4                                           
0000fe70  __covrec_EB618F5B9FA517F1                                           
00024140  __covrec_EB81A68135E0DDA4                                           
0001a028  __covrec_EB884DF891B7C0B5                                           
00012738  __covrec_EBA8D0CE8C4046B0                                           
00007fe0  __covrec_EBB93D3326105013                                           
000177b0  __covrec_EBB9657C4CBDFB97                                           
0000b2a8  __covrec_EBBD10FBD7F0B6B2                                           
00022688  __covrec_EBCEB31F8A3D685C                                           
000028b0  __covrec_EBD470BBA43A8499                                           
00017030  __covrec_EBD4B15D669FF5C6                                           
00001618  __covrec_EBEACB476095CE2A                                           
00018e80  __covrec_EC14A2237089E2CD                                           
00003008  __covrec_EC1BEDFA20BB83DE                                           
0001fd20  __covrec_EC1CAADB898CC6AE                                           
0000f628  __covrec_EC219A2ED0205320                                           
000038c8  __covrec_EC3F91A38F79747B                                           
00015dc0  __covrec_EC974998F0B94BAA                                           
00006910  __covrec_ECA0A44B0562D5ED                                           
00019538  __covrec_ECA9C1C44D4A3387                                           
0000b348  __covrec_ECADB604EA77E678                                           
00021f80  __covrec_ECC1E88C41748830                                           
000057b8  __covrec_ECF32EB1DD9A5019                                           
000217d8  __covrec_ECF40B9B8A4306F9                                           
00014970  __covrec_ECF55B1F21E4B275                                           
00009598  __covrec_ED0C63C83F12C300                                           
00010fa0  __covrec_ED319991AAA32315                                           
0000c6d0  __covrec_ED51E9FB35FEA82                                            
00019dd0  __covrec_ED5378248E071109                                           
0000f1f0  __covrec_ED56068CDDCCFA3D                                           
000030f8  __covrec_ED604C5F55EBB9A9                                           
00011dd8  __covrec_ED63CE54F5C5BB15                                           
0000e638  __covrec_ED6EB4CF148E2A01                                           
00007720  __covrec_ED7EE8AFD1448A76                                           
000235b0  __covrec_ED88A247DEB1B920                                           
00010028  __covrec_ED95CE15A7B6B533                                           
0000a1a0  __covrec_ED9E02482F9C80B8                                           
00022250  __covrec_EDA7DA81A150E038                                           
0000b488  __covrec_EDA9FE308045CD4                                            
00020ef0  __covrec_EDB3AA564B5BB202                                           
000019d8  __covrec_EDD19A229C237194                                           
000223e0  __covrec_EDDEF903D67BFC06                                           
0001c058  __covrec_EDDFCB24481343C8                                           
00020950  __covrec_EDFD3659CF8A198E                                           
0001c440  __covrec_EE0F6CF5ED5E776E                                           
0001d778  __covrec_EE26B27D7B570B3D                                           
00013048  __covrec_EE3B624BA76DF02u                                           
00001578  __covrec_EE480F2463C08516                                           
00011810  __covrec_EE542AC449596B4E                                           
000121c0  __covrec_EE77834AB5E75BA5                                           
000047c8  __covrec_EE8A3725B01A4A55                                           
00012288  __covrec_EE9257CBCE499C19                                           
00015b40  __covrec_EEAE4C8C4CDDB260                                           
00004200  __covrec_EEB14E2F595061E5                                           
00022f48  __covrec_EEC19C275E247D9D                                           
000026d0  __covrec_EEC8AAC5AE06DDD                                            
00004250  __covrec_EEDCC2EA918DCB66                                           
00019380  __covrec_EEEC5419627FC981                                           
00009408  __covrec_EEFFDFB849C5FA87                                           
000206f8  __covrec_EF06C3EF94148348                                           
00004868  __covrec_EF2F5F46E6CC5220                                           
0001eb00  __covrec_EF506552D1D7BE22                                           
00003530  __covrec_EF65199283B28BAA                                           
000071a8  __covrec_EF653596CC5A0D52                                           
00000c78  __covrec_EFA0EFD32779FB90u                                          
000240a0  __covrec_EFD1C49295F7E42E                                           
00023ba0  __covrec_EFE4358F82272623                                           
00011ef0  __covrec_EFFFBFF25E810F7A                                           
0001a500  __covrec_F0026EB50F7B8029                                           
00016220  __covrec_F0078734676383D6                                           
0001ff78  __covrec_F01F43B2AB69C7                                             
0000b708  __covrec_F036903AB376193E                                           
000249b0  __covrec_F04D21C3157E4AF3                                           
0001ec68  __covrec_F06D606E3FF7FEB2                                           
000020b8  __covrec_F08D4608F3E87F90                                           
0001fe88  __covrec_F09CDBF34DB339AD                                           
0000ee80  __covrec_F0A4196E8DE486BB                                           
0001c648  __covrec_F0ACEBB6D32F523D                                           
00014920  __covrec_F0BB4BC77CD8C0EB                                           
00021c10  __covrec_F0C5C704EF22E445                                           
000202e8  __covrec_F0CF892F63A7F7F2                                           
00000b88  __covrec_F0F59048C5AD720Du                                          
0001f118  __covrec_F10A23C35B517DD2                                           
0001a5f0  __covrec_F13A8066761C463B                                           
00003fa8  __covrec_F1512F45681C796                                            
00005268  __covrec_F16354F28BFC50CF                                           
0000f448  __covrec_F16E47EE8F911159                                           
00015078  __covrec_F17DC41AD5655B1D                                           
00002c70  __covrec_F182E5151937D6DE                                           
0000adf8  __covrec_F1B3398206200D82                                           
0001b310  __covrec_F1B36A5B4773B81                                            
0000c2e8  __covrec_F1CA1B6877D29C02                                           
00022de0  __covrec_F1CA3058F4C0F3B1                                           
00021198  __covrec_F1D5AE02B00D28                                             
00004228  __covrec_F1DC204D0E61A816                                           
00017a08  __covrec_F1E83CA2B0CD6A20                                           
00006898  __covrec_F22A707406D9CA1C                                           
00006550  __covrec_F23344E44A017328                                           
00005498  __covrec_F239F54C77E9FE38                                           
0000ce50  __covrec_F247AB1837D206CE                                           
00009160  __covrec_F251D37E46DA8EE8                                           
00003ad0  __covrec_F2551F0473CE827F                                           
000123f0  __covrec_F26141924E3D664F                                           
00017c38  __covrec_F2618F42DC968004                                           
00011d88  __covrec_F26F055AC87C1E55                                           
000221b0  __covrec_F277D89E3DFFF5DD                                           
000060c8  __covrec_F2803E5783C4854C                                           
0000c978  __covrec_F28C3753C750C484                                           
0001c800  __covrec_F299FB8EC8B5A98D                                           
0001d520  __covrec_F29AB24D20F7541B                                           
00006b18  __covrec_F2ACEBFC20A90F24                                           
0001a898  __covrec_F2C38226B0B6E63B                                           
00011590  __covrec_F2D772483524CE27                                           
00008f58  __covrec_F2EBAE606C0239DE                                           
0000ae48  __covrec_F2F8CF0A854FC179                                           
00025478  __covrec_F2FDFE424BC57950                                           
0001ff28  __covrec_F317C3F6F2F95EE3                                           
000195b0  __covrec_F31B4D53596DC8E7                                           
00003c38  __covrec_F32FB62C8EA7DB6A                                           
00021800  __covrec_F35691FD0BB8A7B8                                           
00004b10  __covrec_F36FE9CAD562AA23                                           
000207c0  __covrec_F3809CC4BFBFDA24                                           
00003e18  __covrec_F384C2C5186E3D4C                                           
00001780  __covrec_F38A29CFDDA65862                                           
00012148  __covrec_F3BF79C3C0B3470E                                           
0000fc68  __covrec_F3D0AC9D45DFEA9D                                           
0000be60  __covrec_F3E6856394E5AF66                                           
00016f68  __covrec_F3F4BEC6FC4C603                                            
00010848  __covrec_F4110C4189C24251                                           
0000b960  __covrec_F41EA1424A2ABF13                                           
0000d3f0  __covrec_F4296E3A41A8F703                                           
0001b8d8  __covrec_F42DCE2D205E9019                                           
00025950  __covrec_F442D8DCEFB37265                                           
00017c60  __covrec_F454D8ABE2DC2387                                           
0000d508  __covrec_F467FE24703C9382                                           
00019038  __covrec_F4A6E46EEBB7430F                                           
0000ce28  __covrec_F4AF518851EB469E                                           
000066b8  __covrec_F4B22AE7BC6D0073                                           
00014358  __covrec_F4D430A9AC32DC03                                           
00024028  __covrec_F5013732295CEBE5                                           
0000ac18  __covrec_F502F2592BB2BD                                             
0000ca40  __covrec_F524D4C08558FABA                                           
00011950  __covrec_F526DD0024C66174                                           
0000b5f0  __covrec_F52EE534D87FF238                                           
00005fb0  __covrec_F53FF70A9952EFCE                                           
00004958  __covrec_F548F4551174DC31                                           
00017cd8  __covrec_F555D7D565E23141                                           
0001d9a8  __covrec_F5588139E339EF27                                           
0000aee8  __covrec_F55B63098831580A                                           
0001a870  __covrec_F573A0ADEA913771                                           
00011130  __covrec_F5982A8EC992AFB8                                           
0001bba8  __covrec_F5AFEB1EEA354D61                                           
0001e740  __covrec_F5B52FC120DCEFF6                                           
00009278  __covrec_F5B52FCC0D77C305                                           
00015b68  __covrec_F5BC47E50C3570B4                                           
00006708  __covrec_F5CF4434B8FEF5B1                                           
00011338  __covrec_F5E9FBE5DA739505                                           
00021d00  __covrec_F5F30506630A8A6A                                           
00001528  __covrec_F604FBA5554AC5BE                                           
0001e8f8  __covrec_F623366B7B1875EF                                           
000158e8  __covrec_F623BD0F22F6A4D                                            
00000a50  __covrec_F635FA034A909EC5u                                          
00014bc8  __covrec_F65571CE4E3F88C                                            
00016ab8  __covrec_F65C7AC0F7EB18B5                                           
00006f00  __covrec_F663FDFE2B5B48BE                                           
00006528  __covrec_F674678029898F54                                           
000104b0  __covrec_F682FBAD213A6256                                           
0000a9e8  __covrec_F691C0F48AAB17F3                                           
00009700  __covrec_F6926606DCBA4E02                                           
00019948  __covrec_F69D3E0B112353E9                                           
00018980  __covrec_F6A64CBDA47317FD                                           
00007e28  __covrec_F6ADDD867E4F5531                                           
000229f8  __covrec_F6B56496C33FA558                                           
000085f8  __covrec_F6BB49248BD0D73D                                           
000235d8  __covrec_F6C47C4FF9C0768B                                           
00012e40  __covrec_F6C7EFE189CBDBE5                                           
0001c3c8  __covrec_F6DAA592595F28C                                            
000053d0  __covrec_F6DE13508C541D9D                                           
00013d18  __covrec_F6DE419292C4B531                                           
0001e5d8  __covrec_F6E4D297C5804202                                           
0001ef38  __covrec_F6F0D555DD9571C2                                           
00011108  __covrec_F6F69E854D41348C                                           
0001e998  __covrec_F6F7419BF1DFF9CE                                           
0000fad8  __covrec_F70068D25D1F1B03                                           
00021df0  __covrec_F7136B9270F615B7                                           
000003a0  __covrec_F71CB4E162E1E81Bu                                          
00010d70  __covrec_F7204AF9D62BEE3C                                           
0001e678  __covrec_F743C000ABE7980A                                           
00004048  __covrec_F7528FB1CB9F0D0D                                           
0000dd00  __covrec_F75305B21EDFC409                                           
0000ec50  __covrec_F75631BA688A7D16                                           
00012fa8  __covrec_F75FD25169461EA7                                           
00004bd8  __covrec_F76241F0D5DC932D                                           
0000f790  __covrec_F78305407694B4D                                            
0000c130  __covrec_F78E4AB863DD48B6                                           
0000eed0  __covrec_F7B6927D0C230FAA                                           
00023998  __covrec_F7CCB73360C44C19                                           
000246b8  __covrec_F7E26B3CC76FBD79                                           
00012440  __covrec_F7EBEB7111B150C6                                           
000092f0  __covrec_F7EE3FE10D3CC668                                           
00022930  __covrec_F7F273F985C06D9C                                           
00001ff0  __covrec_F7FDC0EC1FF8AA0D                                           
00001f78  __covrec_F80D0A21C37A166F                                           
00022e30  __covrec_F83A171A8DE1F8B3                                           
00021080  __covrec_F84035B684B27B21                                           
0001d688  __covrec_F85390884DDE2EF8                                           
00019150  __covrec_F86E8E4C58460891                                           
00012530  __covrec_F8755B5E23A68066                                           
00013ef8  __covrec_F87F2A62EAC8F4FB                                           
0000e728  __covrec_F888F8504FBA196A                                           
000242d0  __covrec_F88B33E70F89E09                                            
0001eec0  __covrec_F8915E7F9ECEA84A                                           
00000520  __covrec_F8982B40A88E72BAu                                          
00003be8  __covrec_F8B4ACDCE80C3E49                                           
000062f8  __covrec_F8C71442C0648B24                                           
000231c8  __covrec_F8E27A2D33292F4B                                           
0001cbe8  __covrec_F8EC7E727BB49656                                           
00008030  __covrec_F915642E3107F335                                           
00023da8  __covrec_F9263E8B0B2360BF                                           
0001e240  __covrec_F9407E25A3F45B0C                                           
000162c0  __covrec_F9448A84AD8185BA                                           
000116d0  __covrec_F9561632D93AC963                                           
0001c210  __covrec_F95EAA333DB23898                                           
0000cbf8  __covrec_F96733497E2F46E9                                           
00024d70  __covrec_F977D804E2DE5C3E                                           
0001b7c0  __covrec_F97C6C392C8944F3                                           
00004700  __covrec_F980086903362537                                           
000056c8  __covrec_F984855AA2FA9D8C                                           
00014088  __covrec_F9850F6D40ADE08F                                           
000089e0  __covrec_F993F7630CEF5C65                                           
00013400  __covrec_F99B5A9295D4E4A4u                                          
00002d38  __covrec_F9BB9FC9EA6BDD0                                            
0001f820  __covrec_FA02E2CA7F81E3AF                                           
00009f98  __covrec_FA09C8A55BC92C90                                           
00008418  __covrec_FA3684B72FD00193                                           
000220c0  __covrec_FA3CF57E57B39F53                                           
00007d10  __covrec_FA5D1880267EAA9C                                           
000077e8  __covrec_FA681AC7A66412F4                                           
0001c850  __covrec_FA6A73CFC94A4F8F                                           
0000ee08  __covrec_FA712F2B365C8A11                                           
000170a8  __covrec_FAB52BFBB5CA2B3                                            
000194e8  __covrec_FACA0D83EF2252D9                                           
00003fd0  __covrec_FAE6DD496E3257CA                                           
00007770  __covrec_FAE6F48940A1EE6A                                           
000232e0  __covrec_FB10B5C5DB7D0EAB                                           
000191f0  __covrec_FB1D8691C0553F                                             
00013fe8  __covrec_FB54D5102C521951                                           
0000f060  __covrec_FB56AB2FA2F47069                                           
000213f0  __covrec_FB615516353485F1                                           
0001d2a0  __covrec_FB7CF8B94050C947                                           
0001e9e8  __covrec_FB7ED0D421C87335                                           
00005b50  __covrec_FB8E7071F9C233B7                                           
0001bf90  __covrec_FB91A69921C0AA0                                            
0000bfc8  __covrec_FB9718C0D3DEF22A                                           
00024848  __covrec_FB989D4CBC1E077                                            
00012120  __covrec_FB9F7806619A5CED                                           
00018660  __covrec_FBABB1CFAA0837B                                            
0001dac0  __covrec_FBCE000054D77117                                           
0000d440  __covrec_FBDCC81F09CD47A3                                           
0000c630  __covrec_FBDDFE0D8DB25460                                           
0001a078  __covrec_FBDF9DFB9E695E89                                           
00014ec0  __covrec_FBE2FAF21937296B                                           
00015f28  __covrec_FBFF4A8CB46E08B0                                           
000058a8  __covrec_FBFF79AAE3C9D4E9                                           
0000d4e0  __covrec_FC00C811F594C133                                           
00003738  __covrec_FC36D8BACAE43827                                           
0000a380  __covrec_FC39C21514B09B44                                           
00025428  __covrec_FC4C0F69166A5CA                                            
00020bf8  __covrec_FC508B703A037D2C                                           
00022a48  __covrec_FC6C86B71CC34A40                                           
00006000  __covrec_FC7671567CC9557B                                           
0001e128  __covrec_FCA71EE4D37F88C6                                           
0000e2c8  __covrec_FCADD26215A1388A                                           
00022f98  __covrec_FCB920B883F15C5B                                           
0000afb0  __covrec_FCBA70ABD5D23A7E                                           
00001f50  __covrec_FCBED9C902ED2F97                                           
00005d30  __covrec_FCC547D254E5BC03                                           
00006460  __covrec_FCD37ABE86BE90D2                                           
0001d200  __covrec_FCDCDFD15AC0E740                                           
00002270  __covrec_FCE4EEBCEEE4166A                                           
00001a00  __covrec_FCF7451E2123235D                                           
00001898  __covrec_FD0680E0138474B9                                           
00012a08  __covrec_FD0A6E2458CC0FAD                                           
00005d80  __covrec_FD443B3DDDED3BC3                                           
00009520  __covrec_FD5C69CE58135DD5                                           
000108c0  __covrec_FD64975E07553916                                           
00017940  __covrec_FD6EFDF54A7E61F9                                           
0001f258  __covrec_FD7AD1BDA795009C                                           
0000c748  __covrec_FD9B6C17B5E7BC33                                           
00024e88  __covrec_FD9DA43F75BC40F9                                           
0000fc18  __covrec_FDA2C9D32CE6808C                                           
0001b9c8  __covrec_FDAA4CDD67C3D058                                           
000083f0  __covrec_FDAD5F756D9405FB                                           
00022750  __covrec_FDC1FA3BFCE27CA3                                           
00007a40  __covrec_FDD445A6685DC22A                                           
00014100  __covrec_FDD8526D2A93F33C                                           
00007c70  __covrec_FDDF9F3C820D07C4                                           
00018070  __covrec_FDFA5CAFBD69AC08                                           
0000a498  __covrec_FE0184011D6EE560                                           
0001ecb8  __covrec_FE189E8205BFE13F                                           
000063e8  __covrec_FE1F1042212AFD5B                                           
00002ea0  __covrec_FE27A96910B4C6EE                                           
00020108  __covrec_FE7D9684EFE6977B                                           
00016748  __covrec_FE88999DF0EAFFD6                                           
0001f028  __covrec_FE8AC5C2C53B8D86                                           
00009c28  __covrec_FE8DFD64253CE9A1                                           
0000abf0  __covrec_FEB814010EE1E189                                           
00014678  __covrec_FEC5D3DE69CA8E17                                           
0001c008  __covrec_FEC7313548E6B0A0                                           
00000d58  __covrec_FED13A16A7F2400F                                           
00020770  __covrec_FED7286FD0A0846C                                           
00019830  __covrec_FEDB316D835D59CB                                           
000012f8  __covrec_FEE81B56C5EE553B                                           
00024ca8  __covrec_FEEDC4A55B8BFBDD                                           
0000d710  __covrec_FEEE5FD8F1E8D74B                                           
00008350  __covrec_FF1AD869EB1B1462                                           
00013890  __covrec_FF2F71DB13F48ED9                                           
00013930  __covrec_FF3F3C37D1ECEF0E                                           
00004c28  __covrec_FF52AB9510862AC9                                           
0000b4b0  __covrec_FF54B39FF356E9BD                                           
00002388  __covrec_FF5BFBA62E5C64                                             
00018110  __covrec_FF6BB409FA34F363                                           
000152f8  __covrec_FF79AF72E78DEE41                                           
000061b8  __covrec_FF7ED784D6FAE758                                           
00001348  __covrec_FF80CA72E324225F                                           
000030d0  __covrec_FF84D132B441AEE4                                           
00022ac0  __covrec_FFA0CFE7D81EDE77                                           
00006730  __covrec_FFA71F2C767122FD                                           
00015de8  __covrec_FFA9859ECBCE5FF5                                           
0000c1a8  __covrec_FFB68A3AE689EA31                                           
0001f4d8  __covrec_FFC75160907BE257                                           
000247f8  __covrec_FFDBAA12E3B6E83D                                           
0001d138  __covrec_FFDFE8E406984E9A                                           
0001ed80  __covrec_FFEA5922A8E15BB8                                           
0001b6a8  __covrec_FFFB116B4E183B3A                                           
UNDEFED   __mpu_init                                                          
30025848  __profc_Default_Handler                                             
300258b8  __profc_Reset_Handler                                               
300258c0  __profc_SYSCFG_DL_GPIO_init                                         
300258c8  __profc_SYSCFG_DL_SPI_1_init                                        
300258d0  __profc_SYSCFG_DL_SYSCTL_init                                       
300258d8  __profc_SYSCFG_DL_init                                              
300258e0  __profc_SYSCFG_DL_initPower                                         
00000000  __profd_Default_Handler                                             
00000030  __profd_Reset_Handler                                               
00000510  __profd_SYSCFG_DL_GPIO_init                                         
00000570  __profd_SYSCFG_DL_SPI_1_init                                        
00000540  __profd_SYSCFG_DL_SYSCTL_init                                       
000004b0  __profd_SYSCFG_DL_init                                              
000004e0  __profd_SYSCFG_DL_initPower                                         
00000180  __profd_TFT_Init                                                    
00000240  __profd_TFT_clearScreen                                             
00000270  __profd_TFT_drawImage                                               
000002a0  __profd_TFT_drawImageCentered                                       
00000060  __profd_TFT_updateScreen                                            
000002d0  __profd_main                                                        
00000150  __profd_tft_frame_buffer_image.c_CS_High                            
000000f0  __profd_tft_frame_buffer_image.c_CS_Low                             
00000450  __profd_tft_frame_buffer_image.c_DC_Command                         
000000c0  __profd_tft_frame_buffer_image.c_DC_Data                            
00000480  __profd_tft_frame_buffer_image.c_DL_Common_updateReg                
000003c0  __profd_tft_frame_buffer_image.c_DL_GPIO_clearPins                  
00000300  __profd_tft_frame_buffer_image.c_DL_GPIO_setPins                    
00000360  __profd_tft_frame_buffer_image.c_DL_SPI_enable                      
00000420  __profd_tft_frame_buffer_image.c_DL_SPI_isBusy                      
00000330  __profd_tft_frame_buffer_image.c_DL_SPI_setBitRateSerialClockDivider
000003f0  __profd_tft_frame_buffer_image.c_DL_SPI_transmitData8               
00000120  __profd_tft_frame_buffer_image.c_SPI_WriteByte                      
000001b0  __profd_tft_frame_buffer_image.c_TFT_HardwareReset                  
00000090  __profd_tft_frame_buffer_image.c_TFT_SetAddressWindow               
000001e0  __profd_tft_frame_buffer_image.c_TFT_WriteCommand                   
00000210  __profd_tft_frame_buffer_image.c_TFT_WriteData                      
00000390  __profd_tft_frame_buffer_image.c_TFT_WriteDataBulk                  
00000930  __profd_ti_msp_dl_config.c_DL_Common_updateReg                      
00000690  __profd_ti_msp_dl_config.c_DL_GPIO_clearPins                        
000006c0  __profd_ti_msp_dl_config.c_DL_GPIO_enableOutput                     
00000600  __profd_ti_msp_dl_config.c_DL_GPIO_enablePower                      
00000660  __profd_ti_msp_dl_config.c_DL_GPIO_initDigitalOutput                
00000720  __profd_ti_msp_dl_config.c_DL_GPIO_initPeripheralInputFunction      
000006f0  __profd_ti_msp_dl_config.c_DL_GPIO_initPeripheralOutputFunction     
000005a0  __profd_ti_msp_dl_config.c_DL_GPIO_reset                            
00000870  __profd_ti_msp_dl_config.c_DL_SPI_enable                            
00000630  __profd_ti_msp_dl_config.c_DL_SPI_enablePower                       
000005d0  __profd_ti_msp_dl_config.c_DL_SPI_reset                             
00000810  __profd_ti_msp_dl_config.c_DL_SPI_setBitRateSerialClockDivider      
00000840  __profd_ti_msp_dl_config.c_DL_SPI_setFIFOThreshold                  
000007b0  __profd_ti_msp_dl_config.c_DL_SYSCTL_disableHFXT                    
000007e0  __profd_ti_msp_dl_config.c_DL_SYSCTL_disableSYSPLL                  
00000750  __profd_ti_msp_dl_config.c_DL_SYSCTL_setBORThreshold                
00000780  __profd_ti_msp_dl_config.c_DL_SYSCTL_setSYSOSCFreq                  
000008d0  __profd_ti_msp_dl_config.c_DL_UNICOMM_enablePower                   
000008a0  __profd_ti_msp_dl_config.c_DL_UNICOMM_reset                         
00000900  __profd_ti_msp_dl_config.c_DL_UNICOMM_setIPMode                     
3003fef8  __stack                                                             
30000000  __start___llvm_prf_bits                                             
30025800  __start___llvm_prf_cnts                                             
30000000  __stop___llvm_prf_bits                                              
30025a08  __stop___llvm_prf_cnts                                              
1002cee9  _c_int00_noargs                                                     
UNDEFED   _system_post_cinit                                                  
1002cf99  _system_pre_init                                                    
1002cf89  abort                                                               
ffffffff  binit                                                               
10000000  interruptVectors                                                    
1002c691  main                                                                
1002cc6b  memcpy                                                              
1002cd7b  memset                                                              
10000120  reLogo                                                              


GLOBAL SYMBOLS: SORTED BY Symbol Address 

address   name                                                                
-------   ----                                                                
00000000  __TI_ATRegion0_region_sz                                            
00000000  __TI_ATRegion0_src_addr                                             
00000000  __TI_ATRegion0_trg_addr                                             
00000000  __TI_ATRegion1_region_sz                                            
00000000  __TI_ATRegion1_src_addr                                             
00000000  __TI_ATRegion1_trg_addr                                             
00000000  __TI_ATRegion2_region_sz                                            
00000000  __TI_ATRegion2_src_addr                                             
00000000  __TI_ATRegion2_trg_addr                                             
00000000  __covrec_87407FA9A44A40A2u                                          
00000000  __profd_Default_Handler                                             
00000030  __covrec_708B7A7D79BBA6F8u                                          
00000030  __profd_Reset_Handler                                               
00000060  __profd_TFT_updateScreen                                            
00000078  __covrec_35529E691EA89C4u                                           
00000090  __profd_tft_frame_buffer_image.c_TFT_SetAddressWindow               
000000c0  __profd_tft_frame_buffer_image.c_DC_Data                            
000000f0  __profd_tft_frame_buffer_image.c_CS_Low                             
00000100  __STACK_SIZE                                                        
00000108  __covrec_312A4BFE34759836u                                          
00000120  __profd_tft_frame_buffer_image.c_SPI_WriteByte                      
00000150  __profd_tft_frame_buffer_image.c_CS_High                            
00000180  __profd_TFT_Init                                                    
000001b0  __profd_tft_frame_buffer_image.c_TFT_HardwareReset                  
000001e0  __profd_tft_frame_buffer_image.c_TFT_WriteCommand                   
00000210  __profd_tft_frame_buffer_image.c_TFT_WriteData                      
00000240  __profd_TFT_clearScreen                                             
00000270  __profd_TFT_drawImage                                               
00000278  __covrec_310F4356F52C2BD8u                                          
000002a0  __covrec_997D14E1FE1A2F45u                                          
000002a0  __profd_TFT_drawImageCentered                                       
000002d0  __profd_main                                                        
00000300  __profd_tft_frame_buffer_image.c_DL_GPIO_setPins                    
00000308  __covrec_1C2DBFB78017AA87u                                          
00000330  __profd_tft_frame_buffer_image.c_DL_SPI_setBitRateSerialClockDivider
00000360  __profd_tft_frame_buffer_image.c_DL_SPI_enable                      
00000390  __profd_tft_frame_buffer_image.c_TFT_WriteDataBulk                  
000003a0  __covrec_F71CB4E162E1E81Bu                                          
000003c0  __profd_tft_frame_buffer_image.c_DL_GPIO_clearPins                  
000003f0  __profd_tft_frame_buffer_image.c_DL_SPI_transmitData8               
00000420  __profd_tft_frame_buffer_image.c_DL_SPI_isBusy                      
00000450  __profd_tft_frame_buffer_image.c_DC_Command                         
00000480  __profd_tft_frame_buffer_image.c_DL_Common_updateReg                
000004b0  __profd_SYSCFG_DL_init                                              
000004e0  __profd_SYSCFG_DL_initPower                                         
00000510  __profd_SYSCFG_DL_GPIO_init                                         
00000520  __covrec_F8982B40A88E72BAu                                          
00000540  __profd_SYSCFG_DL_SYSCTL_init                                       
00000570  __profd_SYSCFG_DL_SPI_1_init                                        
000005a0  __profd_ti_msp_dl_config.c_DL_GPIO_reset                            
000005d0  __profd_ti_msp_dl_config.c_DL_SPI_reset                             
00000600  __profd_ti_msp_dl_config.c_DL_GPIO_enablePower                      
00000630  __profd_ti_msp_dl_config.c_DL_SPI_enablePower                       
00000660  __profd_ti_msp_dl_config.c_DL_GPIO_initDigitalOutput                
00000690  __profd_ti_msp_dl_config.c_DL_GPIO_clearPins                        
000006b0  __covrec_A7E33FBDAB081821u                                          
000006c0  __profd_ti_msp_dl_config.c_DL_GPIO_enableOutput                     
000006f0  __profd_ti_msp_dl_config.c_DL_GPIO_initPeripheralOutputFunction     
000006f8  __covrec_DB956436E78DD5FAu                                          
00000720  __profd_ti_msp_dl_config.c_DL_GPIO_initPeripheralInputFunction      
00000750  __profd_ti_msp_dl_config.c_DL_SYSCTL_setBORThreshold                
00000780  __profd_ti_msp_dl_config.c_DL_SYSCTL_setSYSOSCFreq                  
000007b0  __profd_ti_msp_dl_config.c_DL_SYSCTL_disableHFXT                    
000007e0  __profd_ti_msp_dl_config.c_DL_SYSCTL_disableSYSPLL                  
000007e8  __covrec_1348169C3EA1F2D0u                                          
00000810  __profd_ti_msp_dl_config.c_DL_SPI_setBitRateSerialClockDivider      
00000840  __profd_ti_msp_dl_config.c_DL_SPI_setFIFOThreshold                  
00000848  __covrec_808566F9D18611DAu                                          
00000870  __profd_ti_msp_dl_config.c_DL_SPI_enable                            
00000898  __covrec_514DC2CFE5BA1471u                                          
000008a0  __profd_ti_msp_dl_config.c_DL_UNICOMM_reset                         
000008d0  __profd_ti_msp_dl_config.c_DL_UNICOMM_enablePower                   
000008f8  __covrec_CC73C99640B9A912u                                          
00000900  __profd_ti_msp_dl_config.c_DL_UNICOMM_setIPMode                     
00000930  __profd_ti_msp_dl_config.c_DL_Common_updateReg                      
00000958  __covrec_DA82EAFB72C4E503u                                          
00000980  __covrec_6D22FD705ECC53F3u                                          
000009e8  __covrec_9302A6018EFA6321u                                          
00000a10  __covrec_A19669F6381AF29Du                                          
00000a50  __covrec_F635FA034A909EC5u                                          
00000ab0  __covrec_887EE53A8C2837F2u                                          
00000b58  __covrec_E9939CD7C750C3BDu                                          
00000b88  __covrec_F0F59048C5AD720Du                                          
00000be8  __covrec_711D83ACFF41F158u                                          
00000c18  __covrec_CFB81432C3651F71u                                          
00000c40  __covrec_84C6C2CCE79C1167u                                          
00000c78  __covrec_EFA0EFD32779FB90u                                          
00000ca8  __covrec_B0E90C8B006D7F21u                                          
00000ce0  __covrec_837269C3FA55D1EC                                           
00000d08  __covrec_9F3BA7C9FE20A289                                           
00000d30  __covrec_50DE964502EC87AA                                           
00000d58  __covrec_FED13A16A7F2400F                                           
00000d80  __covrec_D922519118B87F37                                           
00000da8  __covrec_C7C5227455D2754D                                           
00000dd0  __covrec_D74FA70DE15B5E3E                                           
00000df8  __covrec_E28CD539BB7D1BB8                                           
00000e20  __covrec_7A784FE332807A16                                           
00000e48  __covrec_CBD93D232D2BA531                                           
00000e70  __covrec_14CDBF97CE13DEE5                                           
00000e98  __covrec_4C7C7B8218576D96                                           
00000ec0  __covrec_851B2EA7D7C4D8FA                                           
00000ee8  __covrec_A2AD9ADCC34EC421                                           
00000f10  __covrec_EB405A324BCEE2AF                                           
00000f38  __covrec_DEF0F1E709F334C6                                           
00000f60  __covrec_D745A0DEF7F03ABB                                           
00000f88  __covrec_C185D9799EF8856B                                           
00000fb0  __covrec_791B2A9887D2E76C                                           
00000fd8  __covrec_CC0969AF4D272AF0                                           
00001000  __covrec_6E4F2C24B6A2A741                                           
00001028  __covrec_647E33FBE0720A0A                                           
00001050  __covrec_831FCAE354ABF90C                                           
00001078  __covrec_238A660CC3B9138C                                           
000010a0  __covrec_10FAC152574AF3A4                                           
000010c8  __covrec_9DFE85B1F59CC2FF                                           
000010f0  __covrec_AED6F5E127A35F37                                           
00001118  __covrec_2869490CBFF195D3                                           
00001140  __covrec_C9E941037ACE2DBE                                           
00001168  __covrec_7D88F17B34FB744A                                           
00001190  __covrec_2007888E0ED7BBE7                                           
000011b8  __covrec_CDE652D1C20D5CE8                                           
000011e0  __covrec_2AAE475290C88506                                           
00001208  __covrec_4CFC427266DAF9B4                                           
00001230  __covrec_342982F9C03E3F40                                           
00001258  __covrec_7321D59323761343                                           
00001280  __covrec_269F232C7A851263                                           
000012a8  __covrec_CDF9EA55D29BFCFB                                           
000012d0  __covrec_E63CE27C6A83417C                                           
000012f8  __covrec_FEE81B56C5EE553B                                           
00001320  __covrec_2A9346DCB13E41FA                                           
00001348  __covrec_FF80CA72E324225F                                           
00001370  __covrec_D2AF46475CE9A6D4                                           
00001398  __covrec_9A03354A5536F810                                           
000013c0  __covrec_B6A8447CAD259BD3                                           
000013e8  __covrec_C76593D1042D36CF                                           
00001410  __covrec_AF3F0C86126B4235                                           
00001438  __covrec_91B08DC067EDCE28                                           
00001460  __covrec_B77E5416C7163627                                           
00001488  __covrec_3C4002EAA7D49987                                           
000014b0  __covrec_6C0656B1924900D6                                           
000014d8  __covrec_B003E4396976685E                                           
00001500  __covrec_6AE87179FCE2171A                                           
00001528  __covrec_F604FBA5554AC5BE                                           
00001550  __covrec_41723B77F6A658B                                            
00001578  __covrec_EE480F2463C08516                                           
000015a0  __covrec_873506681A060D5C                                           
000015c8  __covrec_B5DAC5DDC438E7DB                                           
000015f0  __covrec_479D42B935B8B3B5                                           
00001618  __covrec_EBEACB476095CE2A                                           
00001640  __covrec_A3CB2A95C261E0DF                                           
00001668  __covrec_1DAAC99F134FEA36                                           
00001690  __covrec_64BBDD26F1D921EE                                           
000016b8  __covrec_C95BEB18CE1C4B04                                           
000016e0  __covrec_E07C32719EE53517                                           
00001708  __covrec_7353CE7FEE333041                                           
00001730  __covrec_7E93332F9FC94425                                           
00001758  __covrec_A64777CFF666B1D7                                           
00001780  __covrec_F38A29CFDDA65862                                           
000017a8  __covrec_229958F20CF3285B                                           
000017d0  __covrec_83B5E3182D9B2FD7                                           
000017f8  __covrec_3C18B9FE13117D16                                           
00001820  __covrec_D176E5AD3821995                                            
00001848  __covrec_8397A520D9352683                                           
00001870  __covrec_672DF4DF3115E557                                           
00001898  __covrec_FD0680E0138474B9                                           
000018c0  __covrec_D5DACA89FCA1A914                                           
000018e8  __covrec_A16205CA8FFA9F4                                            
00001910  __covrec_C8FAAE9B18BD1308                                           
00001938  __covrec_50A373D18B0FFA46                                           
00001960  __covrec_3B892A9A7E8CE4C0                                           
00001988  __covrec_38F859CF76D43240                                           
000019b0  __covrec_89BD84610AAE51A                                            
000019d8  __covrec_EDD19A229C237194                                           
00001a00  __covrec_FCF7451E2123235D                                           
00001a28  __covrec_3E951A11418A61A5                                           
00001a50  __covrec_E6934FCBF62DBED1                                           
00001a78  __covrec_D21BD6731AD59AB6                                           
00001aa0  __covrec_429C8E3D5DA45455                                           
00001ac8  __covrec_5A09D5787493D5C9                                           
00001af0  __covrec_C834BCEB168D1BFE                                           
00001b18  __covrec_82149204B9695853                                           
00001b40  __covrec_ABF66D518E7C8360                                           
00001b68  __covrec_874E62E72F36B6A5                                           
00001b90  __covrec_83A165F7C60233C9                                           
00001bb8  __covrec_BD74D4D9FDC70593                                           
00001be0  __covrec_3A06FB6037037AAA                                           
00001c08  __covrec_DCFAE62D27204390                                           
00001c30  __covrec_42897D42A307E202                                           
00001c58  __covrec_4142D68B97CE7A83                                           
00001c80  __covrec_DFE36EB2EF22006D                                           
00001ca8  __covrec_D9CF2926C0C235D0                                           
00001cd0  __covrec_803D6B3854AA57AA                                           
00001cf8  __covrec_5401686A9DFA6DD7                                           
00001d20  __covrec_86A6412CCA728B1                                            
00001d48  __covrec_4DDFE6C79CDE1DD6                                           
00001d70  __covrec_6CD08FFBE8856BA4                                           
00001d98  __covrec_155E2780EB9E2447                                           
00001dc0  __covrec_47336612E16DB997                                           
00001de8  __covrec_66500E50B0B1F73                                            
00001e10  __covrec_DFD1D32FA86312D6                                           
00001e38  __covrec_1F9701DAD4B583EF                                           
00001e60  __covrec_1A6A392370CE8089                                           
00001e88  __covrec_95CFB46E7845B42D                                           
00001eb0  __covrec_E55F05AF2D04704E                                           
00001ed8  __covrec_80ED159064605177                                           
00001f00  __covrec_369EBE4562FFE977                                           
00001f28  __covrec_74D2F2AFCDB36EC1                                           
00001f50  __covrec_FCBED9C902ED2F97                                           
00001f78  __covrec_F80D0A21C37A166F                                           
00001fa0  __covrec_8A6048572D80696B                                           
00001fc8  __covrec_CEBA117696EF3CF7                                           
00001ff0  __covrec_F7FDC0EC1FF8AA0D                                           
00002018  __covrec_CB2C9C4200AD504C                                           
00002040  __covrec_D39670003513FFC1                                           
00002068  __covrec_701C59DFC7AB5E50                                           
00002090  __covrec_D6174802281A6555                                           
000020b8  __covrec_F08D4608F3E87F90                                           
000020e0  __covrec_955ADEFAA3F542B5                                           
00002108  __covrec_163A9453C33E2421                                           
00002130  __covrec_6BF0724D256C264D                                           
00002158  __covrec_148950638CE91830                                           
00002180  __covrec_B6CCE69C2F11E7F1                                           
000021a8  __covrec_504ED95DA880F5C6                                           
000021d0  __covrec_C5839EA228F3D861                                           
000021f8  __covrec_7090EF9BB9ECCCBA                                           
00002220  __covrec_2E49553AF661ED96                                           
00002248  __covrec_3E66503B0C42DEFE                                           
00002270  __covrec_FCE4EEBCEEE4166A                                           
00002298  __covrec_56B506C2BC02E91C                                           
000022c0  __covrec_6350F1427BDBCBA9                                           
000022e8  __covrec_45329F73E3306D2C                                           
00002310  __covrec_DD49671574D043E                                            
00002338  __covrec_461801DFEE909D44                                           
00002360  __covrec_B0D715592F0BE78                                            
00002388  __covrec_FF5BFBA62E5C64                                             
000023b0  __covrec_A0FDE7F289296A40                                           
000023d8  __covrec_31EEF1F57798FEFF                                           
00002400  __covrec_638800DCFCC6C312                                           
00002428  __covrec_890EE23580D0B32B                                           
00002450  __covrec_AE5575A3D163AB81                                           
00002478  __covrec_856739BBC56285CA                                           
000024a0  __covrec_751B237BBCCD315A                                           
000024c8  __covrec_BD480C6F977D745F                                           
000024f0  __covrec_DF9613DF2F4112FB                                           
00002518  __covrec_9B2CBCD5F75E723D                                           
00002540  __covrec_331C470C749ACBD5                                           
00002568  __covrec_4F5570D02111AF3E                                           
00002590  __covrec_4D11DFB9E72C0363                                           
000025b8  __covrec_2FD8CB8A6C6EDB40                                           
000025e0  __covrec_6155EB021B100336                                           
00002608  __covrec_A64B4936D333ABAE                                           
00002630  __covrec_B7AC02C8C680B998                                           
00002658  __covrec_37E0B9C5A8C13D9F                                           
00002680  __covrec_1976933E30916B0C                                           
000026a8  __covrec_DB29C5AD47E41231                                           
000026d0  __covrec_EEC8AAC5AE06DDD                                            
000026f8  __covrec_A400C7BB791927B4                                           
00002720  __covrec_1C0C78204C9646CB                                           
00002748  __covrec_4BF510FC55383884                                           
00002770  __covrec_9976C94E0CB137A                                            
00002798  __covrec_24BEA8E025F27A2B                                           
000027c0  __covrec_3144113EBAF0748A                                           
000027e8  __covrec_26C339674FF52C45                                           
00002810  __covrec_6F049B001CF91D56                                           
00002838  __covrec_6EF6146B9B2D8774                                           
00002860  __covrec_574E3319BD616EB1                                           
00002888  __covrec_BED74146AC242B5C                                           
000028b0  __covrec_EBD470BBA43A8499                                           
000028d8  __covrec_80A6280A97086707                                           
00002900  __covrec_24D7DAD8907EEB16                                           
00002928  __covrec_4D79DFFC218AA882                                           
00002950  __covrec_C4F31C76F45E4EA7                                           
00002978  __covrec_A76147EA48116195                                           
000029a0  __covrec_78794523CE225953                                           
000029c8  __covrec_36147DA08306D7D3                                           
000029f0  __covrec_6D2593278C80A476                                           
00002a18  __covrec_B0F9BD49343E5894                                           
00002a40  __covrec_76AF09D8A0E8922C                                           
00002a68  __covrec_87C5583CECD1A5BE                                           
00002a90  __covrec_32ED5050B1CF04E5                                           
00002ab8  __covrec_40C84713401C5E04                                           
00002ae0  __covrec_414DF0C1F4097B3F                                           
00002b08  __covrec_A7CAB0957ECB16B3                                           
00002b30  __covrec_97E6E296AD9CBEB1                                           
00002b58  __covrec_7566C1EA1C4A9FA7                                           
00002b80  __covrec_590A25A7C6E37D6D                                           
00002ba8  __covrec_809E2017ED33272                                            
00002bd0  __covrec_8926B8927877DCBF                                           
00002bf8  __covrec_8370B94AAD70223C                                           
00002c20  __covrec_95D2D7B71EC078A7                                           
00002c48  __covrec_9795E76E97208808                                           
00002c70  __covrec_F182E5151937D6DE                                           
00002c98  __covrec_B6989F4C03FBBAA                                            
00002cc0  __covrec_393FCCF8C4978C78                                           
00002ce8  __covrec_2C69E264A33FE5A6                                           
00002d10  __covrec_A7E18C5F7E10FAB9                                           
00002d38  __covrec_F9BB9FC9EA6BDD0                                            
00002d60  __covrec_9E9448A7BFF52622                                           
00002d88  __covrec_1A395D0CB4E17B4                                            
00002db0  __covrec_198D73E22CD7ACE7                                           
00002dd8  __covrec_28F0791D1CE1E40F                                           
00002e00  __covrec_50D36B9A8266DB7F                                           
00002e28  __covrec_E39D27E5F526D118                                           
00002e50  __covrec_5835E017265EAC9                                            
00002e78  __covrec_3D571E662A813950                                           
00002ea0  __covrec_FE27A96910B4C6EE                                           
00002ec8  __covrec_A24CF83203DE2C2E                                           
00002ef0  __covrec_3A6F728DB2933D23                                           
00002f18  __covrec_2902F1B5C20A72B2                                           
00002f40  __covrec_9CBFF81C7FE9B6E4                                           
00002f68  __covrec_1DAABBB3E0B33DED                                           
00002f90  __covrec_DEB252A44A9148D9                                           
00002fb8  __covrec_628E8CB12D86BA20                                           
00002fe0  __covrec_ABE49C3D570B67F9                                           
00003008  __covrec_EC1BEDFA20BB83DE                                           
00003030  __covrec_6A4F0E39210DE667                                           
00003058  __covrec_D710CB3C046B8158                                           
00003080  __covrec_66F0B6C07DF11212                                           
000030a8  __covrec_9F3EAFC93AD74F61                                           
000030d0  __covrec_FF84D132B441AEE4                                           
000030f8  __covrec_ED604C5F55EBB9A9                                           
00003120  __covrec_861A6CE3281F5850                                           
00003148  __covrec_68DAF03864561129                                           
00003170  __covrec_4DDBE288079BAAFA                                           
00003198  __covrec_263C22B5C438F43E                                           
000031c0  __covrec_891ADBAA475CFF01                                           
000031e8  __covrec_E0FD01069393FD9A                                           
00003210  __covrec_1ACCFDB21FE1DAF2                                           
00003238  __covrec_1C90DE5C6EF77D93                                           
00003260  __covrec_53B5EDD4129C7CAE                                           
00003288  __covrec_EAA5D88A84CF723E                                           
000032b0  __covrec_1F920D6DB2BFC5DD                                           
000032d8  __covrec_A497658F86F5157F                                           
00003300  __covrec_856FCBF6AACD9C84                                           
00003328  __covrec_3705C06D6C4FE24A                                           
00003350  __covrec_70B4357B513E6E62                                           
00003378  __covrec_2B6AECDCCAB24A2A                                           
000033a0  __covrec_E2451CF75A479B00                                           
000033c8  __covrec_141691CFAEBF2DA6                                           
000033f0  __covrec_DB447E3C4E66F1FF                                           
00003418  __covrec_C620EBF52E39A50D                                           
00003440  __covrec_2EA22064C8932AF4                                           
00003468  __covrec_E2E3AE923F4B735F                                           
00003490  __covrec_93832D018884A6A2                                           
000034b8  __covrec_A0E6FA2D8650D1E9                                           
000034e0  __covrec_E1E36477F06660E                                            
00003508  __covrec_E9D3AE41EF2B366A                                           
00003530  __covrec_EF65199283B28BAA                                           
00003558  __covrec_9436805109F155C6                                           
00003580  __covrec_4EC8FBA1BC906A34                                           
000035a8  __covrec_413DEA5001A9C0A1                                           
000035d0  __covrec_3B77633B4B950B60                                           
000035f8  __covrec_9C1A644EECC19AB4                                           
00003620  __covrec_E1BA7C8C49906F16                                           
00003648  __covrec_DDDC05C41D91761D                                           
00003670  __covrec_26235E8C028A2619                                           
00003698  __covrec_C66ADE54CB322E88                                           
000036c0  __covrec_BF860A71A4A1D2AC                                           
000036e8  __covrec_4A138A2F94F5B54                                            
00003710  __covrec_9E991C80A7913447                                           
00003738  __covrec_FC36D8BACAE43827                                           
00003760  __covrec_E2465670407F53ED                                           
00003788  __covrec_34809DF8D1BF4D26                                           
000037b0  __covrec_3F1A72753EA94A4E                                           
000037d8  __covrec_E89EBDEE7B0C4C6C                                           
00003800  __covrec_13354F613ADA5F58                                           
00003828  __covrec_35D987AB78D74FB7                                           
00003850  __covrec_D585869A703FE009                                           
00003878  __covrec_4F43DD462170D6A7                                           
000038a0  __covrec_865B1AD397798868                                           
000038c8  __covrec_EC3F91A38F79747B                                           
000038f0  __covrec_56FBA9E085BE9A7C                                           
00003918  __covrec_DE6536B9BA7850DC                                           
00003940  __covrec_2816FFB101FCFA61                                           
00003968  __covrec_77CAA1683AAB0909                                           
00003990  __covrec_BBD7FFD4B02EB896                                           
000039b8  __covrec_D9B731F23040D351                                           
000039e0  __covrec_C3D835A944FBF584                                           
00003a08  __covrec_A22CCC7F4FC210C1                                           
00003a30  __covrec_CAC9E307594C3C2F                                           
00003a58  __covrec_A82651BCD2545452                                           
00003a80  __covrec_CD268E13E7F0366F                                           
00003aa8  __covrec_945CFC19F442BD7D                                           
00003ad0  __covrec_F2551F0473CE827F                                           
00003af8  __covrec_EB533A1C351E648F                                           
00003b20  __covrec_2B35A21EC67A8DF0                                           
00003b48  __covrec_34341448736923FB                                           
00003b70  __covrec_BAEC130FA49D36F7                                           
00003b98  __covrec_7F215DEC01634412                                           
00003bc0  __covrec_165D1CC5470CD365                                           
00003be8  __covrec_F8B4ACDCE80C3E49                                           
00003c10  __covrec_9751D26657681B28                                           
00003c38  __covrec_F32FB62C8EA7DB6A                                           
00003c60  __covrec_85EC960AB8029FDB                                           
00003c88  __covrec_3283E5A9A4CF0BC4                                           
00003cb0  __covrec_4F9D25F183F38EFE                                           
00003cd8  __covrec_4E39159A7DC2D1D7                                           
00003d00  __covrec_9087566523BD0D7E                                           
00003d28  __covrec_59AAD31544B5076F                                           
00003d50  __covrec_E37B27B12CE288F9                                           
00003d78  __covrec_5AD669155A7FD3BC                                           
00003da0  __covrec_16170A0C8B8FAF39                                           
00003dc8  __covrec_CF22339D599462A3                                           
00003df0  __covrec_B1180BB7556D04F1                                           
00003e18  __covrec_F384C2C5186E3D4C                                           
00003e40  __covrec_5012195C2A75603C                                           
00003e68  __covrec_AB057AC5DA43E35F                                           
00003e90  __covrec_B217622196419513                                           
00003eb8  __covrec_8123C5AF99C2D013                                           
00003ee0  __covrec_AEEEF7484FF69811                                           
00003f08  __covrec_5BD9DF22CCFAE98                                            
00003f30  __covrec_D8D12F6440AA397E                                           
00003f58  __covrec_93E559E349DEFEB                                            
00003f80  __covrec_8478DBC3FB02C4BE                                           
00003fa8  __covrec_F1512F45681C796                                            
00003fd0  __covrec_FAE6DD496E3257CA                                           
00003ff8  __covrec_C9CCF07968B7DB0A                                           
00004020  __covrec_3B88FB2307EC5396                                           
00004048  __covrec_F7528FB1CB9F0D0D                                           
00004070  __covrec_6B610540AEDBE3D9                                           
00004098  __covrec_4168E9C5BA014C04                                           
000040c0  __covrec_10795250D785534B                                           
000040e8  __covrec_A9D7AD06152CEB30                                           
00004110  __covrec_6538C684323396FC                                           
00004138  __covrec_CA517F231FBFD956                                           
00004160  __covrec_1659655F14839ECE                                           
00004188  __covrec_9BDF4BF2331D45B2                                           
000041b0  __covrec_A9F8F947236B8CAC                                           
000041d8  __covrec_2A8C9F78F4701320                                           
00004200  __covrec_EEB14E2F595061E5                                           
00004228  __covrec_F1DC204D0E61A816                                           
00004250  __covrec_EEDCC2EA918DCB66                                           
00004278  __covrec_6B4018E023B2448C                                           
000042a0  __covrec_8AC73B9F2A394A8D                                           
000042c8  __covrec_4564E0D99522DAB4                                           
000042f0  __covrec_53E99002C74A19FD                                           
00004318  __covrec_2D8B5955ACDCDA5D                                           
00004340  __covrec_3E39DF23C74A38E5                                           
00004368  __covrec_9CCEB7B1090A483F                                           
00004390  __covrec_E53737C50ABE00B8                                           
000043b8  __covrec_849C2704EF8C6B49                                           
000043e0  __covrec_1F0273257C74DA34                                           
00004408  __covrec_7D0A08FD24C34835                                           
00004430  __covrec_C9BF26B7B2C22935                                           
00004458  __covrec_E00E05C9ADF33C09                                           
00004480  __covrec_C6B3F9E912F54268                                           
000044a8  __covrec_488332ED3830E0A1                                           
000044d0  __covrec_27B44FDC172F780F                                           
000044f8  __covrec_782CC13AE7D03020                                           
00004520  __covrec_B902F138457398CA                                           
00004548  __covrec_44552CAD93172DC4                                           
00004570  __covrec_877C734241086E91                                           
00004598  __covrec_70BF86CAF7586804                                           
000045c0  __covrec_108D7B465AEE2311                                           
000045e8  __covrec_4161706FC0727DDF                                           
00004610  __covrec_4131CCDFE265F063                                           
00004638  __covrec_94CACAA4846D3E65                                           
00004660  __covrec_86AEC23F55F8191F                                           
00004688  __covrec_6D00EDEF5950BE18                                           
000046b0  __covrec_5234D9BA8DA701A0                                           
000046d8  __covrec_6F4181D801950305                                           
00004700  __covrec_F980086903362537                                           
00004728  __covrec_4ED473186836C9F8                                           
00004750  __covrec_A2AF77FB7A85962                                            
00004778  __covrec_660B421D0F3AED0D                                           
000047a0  __covrec_283D186B557C953C                                           
000047c8  __covrec_EE8A3725B01A4A55                                           
000047f0  __covrec_E73370ED22CBCAF7                                           
00004818  __covrec_E465E9C13B8CECEB                                           
00004840  __covrec_2D5C73063D05BBBA                                           
00004868  __covrec_EF2F5F46E6CC5220                                           
00004890  __covrec_4AB53885E10B1CD1                                           
000048b8  __covrec_348C30B49144F67F                                           
000048e0  __covrec_10DBB256204F1295                                           
00004908  __covrec_B118ACA34C4131FB                                           
00004930  __covrec_C3A05CCC5F1115FC                                           
00004958  __covrec_F548F4551174DC31                                           
00004980  __covrec_4ACD14DB65A6ECF                                            
000049a8  __covrec_628B61BE319F9679                                           
000049d0  __covrec_66549FEF22F4CBF2                                           
000049f8  __covrec_E29A762D3FB528C                                            
00004a20  __covrec_3E1B71F073B73EE5                                           
00004a48  __covrec_B5804F7CBC53D07E                                           
00004a70  __covrec_6BC6425809386662                                           
00004a98  __covrec_19307B0467A6F369                                           
00004ac0  __covrec_16EA7A32421EA039                                           
00004ae8  __covrec_8F7619A0841F7C58                                           
00004b10  __covrec_F36FE9CAD562AA23                                           
00004b38  __covrec_AFC5B63CADD5A61C                                           
00004b60  __covrec_29B5C829D5578951                                           
00004b88  __covrec_517D97B0D9F66267                                           
00004bb0  __covrec_57A6D5A65C5B3378                                           
00004bd8  __covrec_F76241F0D5DC932D                                           
00004c00  __covrec_C25D1AE00BC2AF2B                                           
00004c28  __covrec_FF52AB9510862AC9                                           
00004c50  __covrec_CEC6550499C2508B                                           
00004c78  __covrec_1769DC6A5FACA719                                           
00004ca0  __covrec_C47507CB5AF1C8A1                                           
00004cc8  __covrec_67CA448EDB527C2E                                           
00004cf0  __covrec_C8AD4BEB3C4ED322                                           
00004d18  __covrec_D076C8BB94D7463C                                           
00004d40  __covrec_1791812CCAA39464                                           
00004d68  __covrec_B88F81FC0B4B1321                                           
00004d90  __covrec_72E6C5D80B3C427B                                           
00004db8  __covrec_5AEADFBB5946BE30                                           
00004de0  __covrec_C9E136BB3DC83F36                                           
00004e08  __covrec_61D2FB3054744554                                           
00004e30  __covrec_16EF33E1310F128D                                           
00004e58  __covrec_7385D0385FFF7221                                           
00004e80  __covrec_9826026DFE81289D                                           
00004ea8  __covrec_C2E98241F9B9E939                                           
00004ed0  __covrec_8834AF593DA98367                                           
00004ef8  __covrec_6246F31A890E1052                                           
00004f20  __covrec_544D884798225780                                           
00004f48  __covrec_2ED13F8E6634D49F                                           
00004f70  __covrec_8B6BE8C87F5917FE                                           
00004f98  __covrec_B9B27803852C39B6                                           
00004fc0  __covrec_C176BF6870490891                                           
00004fe8  __covrec_86CEC0191B7E03EC                                           
00005010  __covrec_5B96B74B87817C00                                           
00005038  __covrec_58AB0095D0462155                                           
00005060  __covrec_DC724B3B904C3912                                           
00005088  __covrec_4285CF593845455A                                           
000050b0  __covrec_93044255BD1A6A83                                           
000050d8  __covrec_54A61207AB1C8803                                           
00005100  __covrec_D65F3DF86CC343D9                                           
00005128  __covrec_1FF1F362AD7BA30D                                           
00005150  __covrec_CF367CA3E7A908F5                                           
00005178  __covrec_3019980DDC50367                                            
000051a0  __covrec_9368F092D22DC14E                                           
000051c8  __covrec_D2BAD2F436C6AD86                                           
000051f0  __covrec_148F3D29401CDF62                                           
00005218  __covrec_EA3417B7F598D003                                           
00005240  __covrec_C7C8834F72C143B1                                           
00005268  __covrec_F16354F28BFC50CF                                           
00005290  __covrec_4B3A9EFE59CA0F49                                           
000052b8  __covrec_5EBA757AD5362FB2                                           
000052e0  __covrec_A51DF121A0E416C3                                           
00005308  __covrec_17152CF918A0EAE8                                           
00005330  __covrec_D62AD01075E42B01                                           
00005358  __covrec_C00C10267E53FF91                                           
00005380  __covrec_7FEF9494DD412115                                           
000053a8  __covrec_1EADF052E12C364                                            
000053d0  __covrec_F6DE13508C541D9D                                           
000053f8  __covrec_94BB527E72C6AF70                                           
00005420  __covrec_37CD18880083987A                                           
00005448  __covrec_45C0DBC71DA8684C                                           
00005470  __covrec_B73ADDCCBE85EE48                                           
00005498  __covrec_F239F54C77E9FE38                                           
000054c0  __covrec_E0ADD0BF37A3C927                                           
000054e8  __covrec_409D19F4B84A0F58                                           
00005510  __covrec_7DF4E4893D6968B4                                           
00005538  __covrec_B7428284170B6762                                           
00005560  __covrec_BBD379A79D130B54                                           
00005588  __covrec_2542989910C897A2                                           
000055b0  __covrec_56CEDE8163B3CB8B                                           
000055d8  __covrec_1A1EEB8D447D5F1C                                           
00005600  __covrec_C79095B0D05AE2EB                                           
00005628  __covrec_56085ADF5836AA9F                                           
00005650  __covrec_3912347DA8298BAA                                           
00005678  __covrec_544741C7626FC489                                           
000056a0  __covrec_88A8609BB7C2F3D8                                           
000056c8  __covrec_F984855AA2FA9D8C                                           
000056f0  __covrec_22C11553F54C0BDF                                           
00005718  __covrec_819EFCE2A9A8D9D8                                           
00005740  __covrec_4165235CA24C1B9                                            
00005768  __covrec_70ABE6AB2E0A44F0                                           
00005790  __covrec_7767458722D3F499                                           
000057b8  __covrec_ECF32EB1DD9A5019                                           
000057e0  __covrec_B3319075481A60B9                                           
00005808  __covrec_65FE78A027491217                                           
00005830  __covrec_35239701729AF62B                                           
00005858  __covrec_3504DD5C743EF86A                                           
00005880  __covrec_A2AB5890D2036003                                           
000058a8  __covrec_FBFF79AAE3C9D4E9                                           
000058d0  __covrec_17B572A82BA3DAF8                                           
000058f8  __covrec_A70D594ACFE50176                                           
00005920  __covrec_5E724785C75D8B1C                                           
00005948  __covrec_70E36BBB41B2DA3D                                           
00005970  __covrec_A982A15AB6BD74C3                                           
00005998  __covrec_4A9E5727820F0B79                                           
000059c0  __covrec_C8BD16855D0FA696                                           
000059e8  __covrec_67E16177FB2CA184                                           
00005a10  __covrec_ABBE6F9D36DE8498                                           
00005a38  __covrec_608E33FAF71CD46C                                           
00005a60  __covrec_5C97293B9A1446F8                                           
00005a88  __covrec_BF559052781D4DB7                                           
00005ab0  __covrec_DE9C2ABC6E054D19                                           
00005ad8  __covrec_74A2C8659FB00465                                           
00005b00  __covrec_5480EF413009591B                                           
00005b28  __covrec_91551CDF1655846B                                           
00005b50  __covrec_FB8E7071F9C233B7                                           
00005b78  __covrec_DBA11B385BA92440                                           
00005ba0  __covrec_C1F53E5D3B6AC587                                           
00005bc8  __covrec_408A5C1A5EBA36CA                                           
00005bf0  __covrec_EA0C6128E7AAF500                                           
00005c18  __covrec_62084489AF7C8B7C                                           
00005c40  __covrec_6FB7F472A5FC4D9A                                           
00005c68  __covrec_9216DFCC5DCFB048                                           
00005c90  __covrec_B00DBB181EA4A875                                           
00005cb8  __covrec_418367DD7B7DA8DC                                           
00005ce0  __covrec_188212301894CE71                                           
00005d08  __covrec_CF26FF9D87813558                                           
00005d30  __covrec_FCC547D254E5BC03                                           
00005d58  __covrec_5ABFC33597442B1                                            
00005d80  __covrec_FD443B3DDDED3BC3                                           
00005da8  __covrec_D3EE9FA453229DF5                                           
00005dd0  __covrec_C0EA90B569A02B45                                           
00005df8  __covrec_925BA9A23C8E8526                                           
00005e20  __covrec_66306A416DA96275                                           
00005e48  __covrec_A3C695CF55F1E179                                           
00005e70  __covrec_A334930F4BE9BBB5                                           
00005e98  __covrec_73454A4CC88E4C01                                           
00005ec0  __covrec_5AF3AB8A2D222FFC                                           
00005ee8  __covrec_AA6924235A468D1                                            
00005f10  __covrec_29F1FC19B1A53805                                           
00005f38  __covrec_B9985B170AE47E5E                                           
00005f60  __covrec_B31BB41678CE18AD                                           
00005f88  __covrec_925D4EF12324E791                                           
00005fb0  __covrec_F53FF70A9952EFCE                                           
00005fd8  __covrec_2C7DBBDB5226120C                                           
00006000  __covrec_FC7671567CC9557B                                           
00006028  __covrec_2B6491C874BC38                                             
00006050  __covrec_51735FBBEA80D60                                            
00006078  __covrec_CD511070BE1CDCEB                                           
000060a0  __covrec_1A25BEF943BC8E28                                           
000060c8  __covrec_F2803E5783C4854C                                           
000060f0  __covrec_AFC489C0205595EA                                           
00006118  __covrec_E17ECC88E6C014C4                                           
00006140  __covrec_4BF43358D9C784D5                                           
00006168  __covrec_73915CB04DEAF1A5                                           
00006190  __covrec_B2A319AE6B6AC0CE                                           
000061b8  __covrec_FF7ED784D6FAE758                                           
000061e0  __covrec_CAA716E3E35DF94A                                           
00006208  __covrec_2CB713957594919A                                           
00006230  __covrec_C2CF3C9AE01B1DB1                                           
00006258  __covrec_D04D7D22ECBC829E                                           
00006280  __covrec_258C9CB28AFFA41E                                           
000062a8  __covrec_5598C2D3A595D088                                           
000062d0  __covrec_6CF4C146DDBAB0AA                                           
000062f8  __covrec_F8C71442C0648B24                                           
00006320  __covrec_D752C8B0DB118B00                                           
00006348  __covrec_70C1FB1762D3B02                                            
00006370  __covrec_249018A50CF14B2A                                           
00006398  __covrec_469E637CA988FC48                                           
000063c0  __covrec_8147130BB5BBB78B                                           
000063e8  __covrec_FE1F1042212AFD5B                                           
00006410  __covrec_6B857797428775CB                                           
00006438  __covrec_17C59C094ECBE8A                                            
00006460  __covrec_FCD37ABE86BE90D2                                           
00006488  __covrec_C7830523CEC31720                                           
000064b0  __covrec_48D2196A3097E1AA                                           
000064d8  __covrec_CFFA2A8305ACC8E4                                           
00006500  __covrec_6A3F1DF39DBDE263                                           
00006528  __covrec_F674678029898F54                                           
00006550  __covrec_F23344E44A017328                                           
00006578  __covrec_60A7C3C6CFFBF6BB                                           
000065a0  __covrec_745EAEF1B3E26EB9                                           
000065c8  __covrec_75C1DD23A5633C01                                           
000065f0  __covrec_4EB4DE6278586942                                           
00006618  __covrec_5DD57223B0C9C8E7                                           
00006640  __covrec_7453CBCFD2C7A1C1                                           
00006668  __covrec_4A62D11BFF32F158                                           
00006690  __covrec_854E8274021D9E02                                           
000066b8  __covrec_F4B22AE7BC6D0073                                           
000066e0  __covrec_3E6BBDC4F16A0399                                           
00006708  __covrec_F5CF4434B8FEF5B1                                           
00006730  __covrec_FFA71F2C767122FD                                           
00006758  __covrec_D87F0F8BC763BB1D                                           
00006780  __covrec_D644D1786C856123                                           
000067a8  __covrec_AC9543A6FE4B3E05                                           
000067d0  __covrec_AEABB6D39BD86DEB                                           
000067f8  __covrec_B29FAA963F8B4BAD                                           
00006820  __covrec_848FC286A86F550C                                           
00006848  __covrec_4341B94A2E722AFF                                           
00006870  __covrec_12949BC9633D6407                                           
00006898  __covrec_F22A707406D9CA1C                                           
000068c0  __covrec_8968BEA53B6FDF72                                           
000068e8  __covrec_204B09876D9D99B5                                           
00006910  __covrec_ECA0A44B0562D5ED                                           
00006938  __covrec_6DA74E5F566A1580                                           
00006960  __covrec_7DA0373C5B6ECD5B                                           
00006988  __covrec_74391D792AD4170E                                           
000069b0  __covrec_DAFF0ACFC87A44ED                                           
000069d8  __covrec_12A75C473BB67C71                                           
00006a00  __covrec_34C502341677FECD                                           
00006a28  __covrec_5E90C8A7C77E62B                                            
00006a50  __covrec_CE7FBBDF2E28DF23                                           
00006a78  __covrec_9DCC1495DB0505CD                                           
00006aa0  __covrec_121576B4B3AEC6AA                                           
00006ac8  __covrec_42BC449C21DA185                                            
00006af0  __covrec_542AC2B7D26F630E                                           
00006b18  __covrec_F2ACEBFC20A90F24                                           
00006b40  __covrec_D4E2075A479E03B9                                           
00006b68  __covrec_B71ECE00BAC094C6                                           
00006b90  __covrec_980E73D1F6408347                                           
00006bb8  __covrec_1CA685A06FA828C2                                           
00006be0  __covrec_31385D0A5C5ECCD9                                           
00006c08  __covrec_166E935050528FD9                                           
00006c30  __covrec_206C9F659DE18C4F                                           
00006c58  __covrec_90F68CD9B0CC7B30                                           
00006c80  __covrec_89C7A5A378BB05C2                                           
00006ca8  __covrec_2CB7B6AAB9D0BE7F                                           
00006cd0  __covrec_885267D8D4EC1E6F                                           
00006cf8  __covrec_DC1E06BA01B2035B                                           
00006d20  __covrec_570038A39016DCA6                                           
00006d48  __covrec_EA5C72D189E9A4EF                                           
00006d70  __covrec_7AE65A96E6D73410                                           
00006d98  __covrec_C98F30D53FA0A327                                           
00006dc0  __covrec_80FB625967A42812                                           
00006de8  __covrec_A7CF45332081AF8F                                           
00006e10  __covrec_1A1F064FE0E8B510                                           
00006e38  __covrec_51E307723B773C8F                                           
00006e60  __covrec_65F5DD547A710F2C                                           
00006e88  __covrec_816371CB845B59F7                                           
00006eb0  __covrec_B64CE5E3E7DDA0C9                                           
00006ed8  __covrec_35830D69832371D1                                           
00006f00  __covrec_F663FDFE2B5B48BE                                           
00006f28  __covrec_8E01E13ECE5363C4                                           
00006f50  __covrec_15ADDC2DE26ABDEE                                           
00006f78  __covrec_13B340DA6884AAFA                                           
00006fa0  __covrec_5D117E2F2348EE1D                                           
00006fc8  __covrec_D145166A4F5F6426                                           
00006ff0  __covrec_B31FA00F83901C3D                                           
00007018  __covrec_60268C04E157130                                            
00007040  __covrec_2B4301EB82D03B74                                           
00007068  __covrec_E1CADC27087C001D                                           
00007090  __covrec_4F5A0016AA3C5F0E                                           
000070b8  __covrec_E902A499E6C5E90E                                           
000070e0  __covrec_38287782C5C79C88                                           
00007108  __covrec_402DB03729397EC                                            
00007130  __covrec_A4048A0865FBE9E4                                           
00007158  __covrec_84DD193B35E42C70                                           
00007180  __covrec_4B2009B7B57A282                                            
000071a8  __covrec_EF653596CC5A0D52                                           
000071d0  __covrec_7B8191C42D1A466                                            
000071f8  __covrec_2A9B1F8CAF79830                                            
00007220  __covrec_9F609CE93D6974BF                                           
00007248  __covrec_30BD8DE109F6A6C0                                           
00007270  __covrec_AE947EC30BAEA8CA                                           
00007298  __covrec_851458891CDD87D5                                           
000072c0  __covrec_442B73EC1631C6C7                                           
000072e8  __covrec_6D80AC7ED9EC12AA                                           
00007310  __covrec_12CA111AEC727CD                                            
00007338  __covrec_93052189F2C310FA                                           
00007360  __covrec_3D3D45815DDAB1B1                                           
00007388  __covrec_2A0495B196D82C27                                           
000073b0  __covrec_2307C91C1B581608                                           
000073d8  __covrec_4A5833104821FE1A                                           
00007400  __covrec_CA3AF406308A56C                                            
00007428  __covrec_268241823EE96C12                                           
00007450  __covrec_98D1D5572C9707C6                                           
00007478  __covrec_5A69C2B4BBDEF984                                           
000074a0  __covrec_A4CC5D613F06E4A2                                           
000074c8  __covrec_3F1747B5273764D1                                           
000074f0  __covrec_98ED880A6CCD2388                                           
00007518  __covrec_47A1AAD6D2864DCD                                           
00007540  __covrec_E84212617F8F492E                                           
00007568  __covrec_1C754B95FEB1EF2E                                           
00007590  __covrec_18401A623BA29029                                           
000075b8  __covrec_709AE09C042464C2                                           
000075e0  __covrec_7CEAE8765D581DE7                                           
00007608  __covrec_90E01BE8946B6896                                           
00007630  __covrec_A90AC2A86F2DC8A                                            
00007658  __covrec_20BECB1811109A2A                                           
00007680  __covrec_DE41F40ED9023DFA                                           
000076a8  __covrec_EA0F78F075F65130                                           
000076d0  __covrec_69E23090EDC44A08                                           
000076f8  __covrec_407844472D54F4E9                                           
00007720  __covrec_ED7EE8AFD1448A76                                           
00007748  __covrec_1D5990E2D32883DB                                           
00007770  __covrec_FAE6F48940A1EE6A                                           
00007798  __covrec_8BC303D4E3B3A392                                           
000077c0  __covrec_6720F6E112D47B70                                           
000077e8  __covrec_FA681AC7A66412F4                                           
00007810  __covrec_DAB2ED886F563438                                           
00007838  __covrec_B674F34043A78B1B                                           
00007860  __covrec_B06FA9B5BF635E36                                           
00007888  __covrec_6B14B2305FB93EC7                                           
000078b0  __covrec_66F8D9355BB91267                                           
000078d8  __covrec_349B04B237865073                                           
00007900  __covrec_9CDCF2E4E1615304                                           
00007928  __covrec_9BA11773176B858B                                           
00007950  __covrec_780837B77E070772                                           
00007978  __covrec_3F56134F3A837B32                                           
000079a0  __covrec_9DCB966194177B1C                                           
000079c8  __covrec_DABA1CE00121DAB1                                           
000079f0  __covrec_62B1E1752379B12                                            
00007a18  __covrec_7A9526D5F51E58B2                                           
00007a40  __covrec_FDD445A6685DC22A                                           
00007a68  __covrec_D3C9124D5C1F173E                                           
00007a90  __covrec_6146E250077EC09F                                           
00007ab8  __covrec_62D6F001D375B980                                           
00007ae0  __covrec_4DD7FE0063D6F801                                           
00007b08  __covrec_3C0402302E250449                                           
00007b30  __covrec_DE072B7625C500BF                                           
00007b58  __covrec_1CF458B90AC0BEE5                                           
00007b80  __covrec_B52A1FA3EC56344E                                           
00007ba8  __covrec_4B3F45FC9CDB9EFC                                           
00007bd0  __covrec_68893DEBD5238A7C                                           
00007bf8  __covrec_7AEF22C3C5A790FD                                           
00007c20  __covrec_3A4C82A0E7698A95                                           
00007c48  __covrec_8669035756F9D6D0                                           
00007c70  __covrec_FDDF9F3C820D07C4                                           
00007c98  __covrec_178BA392E28D3CD1                                           
00007cc0  __covrec_71A970415B1F17F1                                           
00007ce8  __covrec_921BB96B7236B2A5                                           
00007d10  __covrec_FA5D1880267EAA9C                                           
00007d38  __covrec_2CE3EEB7DCAC845F                                           
00007d60  __covrec_2EA32D5399CD1202                                           
00007d88  __covrec_C647494A993F71E1                                           
00007db0  __covrec_3BBA6A23C252B0F9                                           
00007dd8  __covrec_8BF6B7FCE93A0974                                           
00007e00  __covrec_8D92367B393E0A1E                                           
00007e28  __covrec_F6ADDD867E4F5531                                           
00007e50  __covrec_D719D38D949F852B                                           
00007e78  __covrec_87B7381D6C5B06FC                                           
00007ea0  __covrec_813FC4590BF13BF0                                           
00007ec8  __covrec_D20644B6A04081D1                                           
00007ef0  __covrec_B0E325674A703A7                                            
00007f18  __covrec_442A430F20FC86A3                                           
00007f40  __covrec_2D339403DFDCEABE                                           
00007f68  __covrec_E074F2870036C26                                            
00007f90  __covrec_745B1FFE34D7CF64                                           
00007fb8  __covrec_6459BAA298CF9CE                                            
00007fe0  __covrec_EBB93D3326105013                                           
00008008  __covrec_6FF4F2965D901313                                           
00008030  __covrec_F915642E3107F335                                           
00008058  __covrec_592920B80EA0F6AA                                           
00008080  __covrec_16B2B4CD9D25A7B6                                           
000080a8  __covrec_8CDE5432F465FC                                             
000080d0  __covrec_5C05E803D49D9BEE                                           
000080f8  __covrec_2D664FD4CD07387                                            
00008120  __covrec_3C7F9E5F17A20A10                                           
00008148  __covrec_7175EB5C17997144                                           
00008170  __covrec_29E4D40E1F4AABF4                                           
00008198  __covrec_6BF3D5C13127096D                                           
000081c0  __covrec_6364703EFF600AA6                                           
000081e8  __covrec_B6F13A0198FD6B81                                           
00008210  __covrec_CBC387C18C32975A                                           
00008238  __covrec_8C1044548E765540                                           
00008260  __covrec_7B5CB03FB8B421F0                                           
00008288  __covrec_29F26544E772E67B                                           
000082b0  __covrec_97A433B982DB5C93                                           
000082d8  __covrec_C91DE7837E9D6912                                           
00008300  __covrec_58A256A381B8741C                                           
00008328  __covrec_E62E91514D076424                                           
00008350  __covrec_FF1AD869EB1B1462                                           
00008378  __covrec_DB4CFE5CB264B53B                                           
000083a0  __covrec_1909BFAD685F9713                                           
000083c8  __covrec_BB22AC13BA7CBC8A                                           
000083f0  __covrec_FDAD5F756D9405FB                                           
00008418  __covrec_FA3684B72FD00193                                           
00008440  __covrec_C3A5959089114948                                           
00008468  __covrec_95CEB01F7FE8DDF2                                           
00008490  __covrec_BD59FD8A4A75A2C                                            
000084b8  __covrec_3508B8496631ADA3                                           
000084e0  __covrec_9F1371FBCBE496F7                                           
00008508  __covrec_2F925E46719C52D                                            
00008530  __covrec_63706C8790FA7816                                           
00008558  __covrec_21FF8BDEC67885BF                                           
00008580  __covrec_479305AD7137086                                            
000085a8  __covrec_1C420836149D7583                                           
000085d0  __covrec_5DC57B6C5387B0BF                                           
000085f8  __covrec_F6BB49248BD0D73D                                           
00008620  __covrec_E6002594915BE0F8                                           
00008648  __covrec_718EA69841000F82                                           
00008670  __covrec_D403396BA3CDE02E                                           
00008698  __covrec_D43CA48CF39A9F49                                           
000086c0  __covrec_56A017C820E5D3BD                                           
000086e8  __covrec_DC7CFADC43D1112D                                           
00008710  __covrec_BDE414DF6D3BA77B                                           
00008738  __covrec_AEA7EC8945B80247                                           
00008760  __covrec_2027486A252B9EFA                                           
00008788  __covrec_424F9ABB3A934781                                           
000087b0  __covrec_27DA4C8796B725B2                                           
000087d8  __covrec_CD58FDEBAEB3AEBB                                           
00008800  __covrec_977E6E85CC84738C                                           
00008828  __covrec_6728AFB98B59E0F6                                           
00008850  __covrec_398B0C6EC5A542F3                                           
00008878  __covrec_CE761FD5DA6BB656                                           
000088a0  __covrec_5ACB30537B3EB18B                                           
000088c8  __covrec_31A47AAB2C67F6A1                                           
000088f0  __covrec_BBB5616E7C5390E                                            
00008918  __covrec_C5EF30E59232EC09                                           
00008940  __covrec_5860C371925C50B3                                           
00008968  __covrec_910120354673E963                                           
00008990  __covrec_9EC43CE435C030FB                                           
000089b8  __covrec_8092F6A1C28B6EFB                                           
000089e0  __covrec_F993F7630CEF5C65                                           
00008a08  __covrec_479711A5E93BCD79                                           
00008a30  __covrec_122F5418ADACF4D3                                           
00008a58  __covrec_AAD104A01E53F088                                           
00008a80  __covrec_393B0491E4F8D00D                                           
00008aa8  __covrec_D71C19661CAEED7A                                           
00008ad0  __covrec_77A6BDE22A6B804A                                           
00008af8  __covrec_6CDDB9B722D7B1CD                                           
00008b20  __covrec_7DCE2A0C2F989C24                                           
00008b48  __covrec_A02271DE78E5BAD8                                           
00008b70  __covrec_B6ADE8C8C5B4CD66                                           
00008b98  __covrec_54334786232CBA15                                           
00008bc0  __covrec_DA3EA8C394416CAD                                           
00008be8  __covrec_DB4EB1B807C83705                                           
00008c10  __covrec_88BDDB0E0DAED77                                            
00008c38  __covrec_E9839D3F223D1C94                                           
00008c60  __covrec_C70B9E955DEA7657                                           
00008c88  __covrec_16E946C8BB96B0EF                                           
00008cb0  __covrec_BD1839126D610F7                                            
00008cd8  __covrec_2176BD124C8C9EC1                                           
00008d00  __covrec_5954765430B71D2A                                           
00008d28  __covrec_AEDFDC80D1C426D9                                           
00008d50  __covrec_242E47E83A3A0F84                                           
00008d78  __covrec_1BCFA1485B6055E5                                           
00008da0  __covrec_E775051CF88F82BE                                           
00008dc8  __covrec_598DB71CCC9658BD                                           
00008df0  __covrec_9008B4CF69D28A5                                            
00008e18  __covrec_50BFCFBD37B02BA7                                           
00008e40  __covrec_A3DD201818A649BA                                           
00008e68  __covrec_96177CC6C04A126E                                           
00008e90  __covrec_7F180B02348BDD56                                           
00008eb8  __covrec_7AD5F74206F94A2                                            
00008ee0  __covrec_ACD7B7F98D375F15                                           
00008f08  __covrec_167E6DEE7C22394                                            
00008f30  __covrec_D75967D85D36C099                                           
00008f58  __covrec_F2EBAE606C0239DE                                           
00008f80  __covrec_DDF2EF64F4A7C7FE                                           
00008fa8  __covrec_A32BAB4EC1F1039E                                           
00008fd0  __covrec_603C4A24A72CD084                                           
00008ff8  __covrec_976CCEF9620CFF99                                           
00009020  __covrec_B8FC1181B057FE15                                           
00009048  __covrec_D3D1FC72BF0CAA96                                           
00009070  __covrec_A56BEB01A6625C60                                           
00009098  __covrec_83241CDE1A2A1BE5                                           
000090c0  __covrec_ACFAF0475BA219D9                                           
000090e8  __covrec_25562743D8C8D521                                           
00009110  __covrec_47719EF0C2505C6D                                           
00009138  __covrec_E2B80CD87AAE5D42                                           
00009160  __covrec_F251D37E46DA8EE8                                           
00009188  __covrec_EAB11C4AFFD9BD8C                                           
000091b0  __covrec_62F58EE238111E5F                                           
000091d8  __covrec_9C61694170F6EBE4                                           
00009200  __covrec_9D80A050D79CB85A                                           
00009228  __covrec_8E7314B6F5C8B4A                                            
00009250  __covrec_E5217E5709215668                                           
00009278  __covrec_F5B52FCC0D77C305                                           
000092a0  __covrec_4FF1D189217509C1                                           
000092c8  __covrec_295B73633BFC3E7C                                           
000092f0  __covrec_F7EE3FE10D3CC668                                           
00009318  __covrec_6FEFCF087A7A31B0                                           
00009340  __covrec_7248740CA5A948C5                                           
00009368  __covrec_BF1E8A894D7451C4                                           
00009390  __covrec_937DC04D11C5CA60                                           
000093b8  __covrec_C72B5DD730FE9607                                           
000093e0  __covrec_42902BB808A4D1EF                                           
00009408  __covrec_EEFFDFB849C5FA87                                           
00009430  __covrec_180A07292FF400F4                                           
00009458  __covrec_42F33F88ABFAC61E                                           
00009480  __covrec_68CA334CAEA443FD                                           
000094a8  __covrec_4D369D9F8B447C9                                            
000094d0  __covrec_693EEEF3AE8BDAFC                                           
000094f8  __covrec_2460CA59370749C                                            
00009520  __covrec_FD5C69CE58135DD5                                           
00009548  __covrec_DF45AEB24EF38B6C                                           
00009570  __covrec_E7927401377F9AE6                                           
00009598  __covrec_ED0C63C83F12C300                                           
000095c0  __covrec_DE8B1F1528854145                                           
000095e8  __covrec_A5E8FAFEE3EB4AEB                                           
00009610  __covrec_1D3A5561EED216E7                                           
00009638  __covrec_CD302A2DDAEF92A7                                           
00009660  __covrec_AAFCB0A088045DE9                                           
00009688  __covrec_11BE188C2379376                                            
000096b0  __covrec_15E9342E4F580831                                           
000096d8  __covrec_53B7B03D06DAD846                                           
00009700  __covrec_F6926606DCBA4E02                                           
00009728  __covrec_D654951030E66D2D                                           
00009750  __covrec_C980DAA0C608DB7D                                           
00009778  __covrec_40B821E5CAB93869                                           
000097a0  __covrec_D0B9EA4B13115ED2                                           
000097c8  __covrec_AC8CDC8F7679A4ED                                           
000097f0  __covrec_26D1C59352114C24                                           
00009818  __covrec_1499378ECE188E7A                                           
00009840  __covrec_13CC0EC0E7C1617                                            
00009868  __covrec_9029AAD574450C9A                                           
00009890  __covrec_65295D897BB0CBCC                                           
000098b8  __covrec_BC817EC07C404035                                           
000098e0  __covrec_617875CD5ECA105A                                           
00009908  __covrec_D3745359EB8B5CBC                                           
00009930  __covrec_9174A6BDD4EEB8                                             
00009958  __covrec_CDE309034A767150                                           
00009980  __covrec_C21FBE5352460E73                                           
000099a8  __covrec_3F436FF351A506BA                                           
000099d0  __covrec_9BF565024BD40ADD                                           
000099f8  __covrec_3AEDC6040279E949                                           
00009a20  __covrec_AFC974AEC1164ADD                                           
00009a48  __covrec_D48DB7AAD5027576                                           
00009a70  __covrec_4D2C1FCED3663AAD                                           
00009a98  __covrec_5D6B604BE1688422                                           
00009ac0  __covrec_A2A2EFF72443BA98                                           
00009ae8  __covrec_A9AAF9C2C3762703                                           
00009b10  __covrec_29ECFDB8C4616474                                           
00009b38  __covrec_6EAC611B0E0D6323                                           
00009b60  __covrec_5B28372F2578CA17                                           
00009b88  __covrec_13F4922932B5B5AA                                           
00009bb0  __covrec_CA0EB06388A12DC                                            
00009bd8  __covrec_1015614E4B08E61D                                           
00009c00  __covrec_C3FB3FD3FF8B153A                                           
00009c28  __covrec_FE8DFD64253CE9A1                                           
00009c50  __covrec_2DFF8B240B04B8F5                                           
00009c78  __covrec_4F78411F447223B5                                           
00009ca0  __covrec_1023C2726819110                                            
00009cc8  __covrec_6968E0AA64E330C                                            
00009cf0  __covrec_BCD838959D230AA2                                           
00009d18  __covrec_1910D787EFCB5053                                           
00009d40  __covrec_DDEF16C925418CDC                                           
00009d68  __covrec_D53EDEB70363CB13                                           
00009d90  __covrec_BF632D033DB6305E                                           
00009db8  __covrec_AA581DCBFB8C516C                                           
00009de0  __covrec_87A6F96949EC6BE0                                           
00009e08  __covrec_B4C4FF7AD9371888                                           
00009e30  __covrec_CA99BBBC3777764D                                           
00009e58  __covrec_4D37CEC82BD0624A                                           
00009e80  __covrec_1C8B9F984ACFE926                                           
00009ea8  __covrec_E9684F39C3FEDBA4                                           
00009ed0  __covrec_8BCE28BFAF90EEC                                            
00009ef8  __covrec_A4C57347782F42EC                                           
00009f20  __covrec_7032240A560FBC9B                                           
00009f48  __covrec_106B316B39F3E8F9                                           
00009f70  __covrec_2337A9E2EE1C7B42                                           
00009f98  __covrec_FA09C8A55BC92C90                                           
00009fc0  __covrec_61EF2AFE98DB8055                                           
00009fe8  __covrec_7989C326531FB912                                           
0000a010  __covrec_C4CD0C3EB85C8048                                           
0000a038  __covrec_37577A44EB1B098D                                           
0000a060  __covrec_4F5034F68A0F6868                                           
0000a088  __covrec_1B0D5808699F7651                                           
0000a0b0  __covrec_99009CC5930307BD                                           
0000a0d8  __covrec_70261151D964C5A3                                           
0000a100  __covrec_CC6D20FC1CE8A67                                            
0000a128  __covrec_C534A37671FD9CC4                                           
0000a150  __covrec_3BE9423D50EA9D45                                           
0000a178  __covrec_CBD9180EB7C703A9                                           
0000a1a0  __covrec_ED9E02482F9C80B8                                           
0000a1c8  __covrec_7052D8D50CB2993C                                           
0000a1f0  __covrec_2F24102A9C51A2ED                                           
0000a218  __covrec_CB2DAAD41DDC8D7E                                           
0000a240  __covrec_5AF037AFEF81DD4C                                           
0000a268  __covrec_4BC92750F6E4394D                                           
0000a290  __covrec_E94D14C39D3CDF74                                           
0000a2b8  __covrec_922DAC649159BA82                                           
0000a2e0  __covrec_9CD6EF61BDF302B5                                           
0000a308  __covrec_7A0676277243BAD3                                           
0000a330  __covrec_9EE716C8E6B7517E                                           
0000a358  __covrec_57D16D6D6948EB01                                           
0000a380  __covrec_FC39C21514B09B44                                           
0000a3a8  __covrec_2C840298C27AB9F9                                           
0000a3d0  __covrec_AE13889EF6EEAF65                                           
0000a3f8  __covrec_4B52E7E277D2906A                                           
0000a420  __covrec_1AE7156E72CC2ABC                                           
0000a448  __covrec_C3717DAA372F3CE2                                           
0000a470  __covrec_A8AA7DDD4D96A434                                           
0000a498  __covrec_FE0184011D6EE560                                           
0000a4c0  __covrec_446F5DADE651B560                                           
0000a4e8  __covrec_CD433498C29EC237                                           
0000a510  __covrec_AA75C4EA6B57BB9E                                           
0000a538  __covrec_B6D699B906DDACF                                            
0000a560  __covrec_1CE16BEA6E372DF6                                           
0000a588  __covrec_DF407467C333668B                                           
0000a5b0  __covrec_5A858D3F59642680                                           
0000a5d8  __covrec_9678A269E2F830B0                                           
0000a600  __covrec_3795D86443E81AC1                                           
0000a628  __covrec_8D5A86C8047BE8DA                                           
0000a650  __covrec_E0C6493F218D723F                                           
0000a678  __covrec_B3C54925F6A72632                                           
0000a6a0  __covrec_A53CD13C650A0F8D                                           
0000a6c8  __covrec_542EDA095F9F10C0                                           
0000a6f0  __covrec_8E59DAE820650A3F                                           
0000a718  __covrec_31E428D7E2D46BD5                                           
0000a740  __covrec_839D89700B8495CB                                           
0000a768  __covrec_304E18D2F9F45EDB                                           
0000a790  __covrec_800D3757DFC43742                                           
0000a7b8  __covrec_7EF04239D7946C5B                                           
0000a7e0  __covrec_775472B4957149E5                                           
0000a808  __covrec_323107E4A53950D0                                           
0000a830  __covrec_2E45306D3CEBBFFA                                           
0000a858  __covrec_4218969EDD2F96                                             
0000a880  __covrec_257876866FE9E7C4                                           
0000a8a8  __covrec_BC9A5981836270B1                                           
0000a8d0  __covrec_4CE4D14CBC122464                                           
0000a8f8  __covrec_53B5B24542B7B7B2                                           
0000a920  __covrec_33E711B8D37BFCF7                                           
0000a948  __covrec_9AF99E1E8D0D2A49                                           
0000a970  __covrec_37E4E8B3CF98DF5                                            
0000a998  __covrec_787CCE372ECE1703                                           
0000a9c0  __covrec_80AE8DC0E44D9934                                           
0000a9e8  __covrec_F691C0F48AAB17F3                                           
0000aa10  __covrec_1965922A3A7575B8                                           
0000aa38  __covrec_9D7F189D18D9145                                            
0000aa60  __covrec_D426D73B146373FB                                           
0000aa88  __covrec_7E362BC88F155F12                                           
0000aab0  __covrec_47E765846A35F5F0                                           
0000aad8  __covrec_302AECCC0C858B3B                                           
0000ab00  __covrec_DFE2F34A3E14EDCE                                           
0000ab28  __covrec_4B4401ABB5A490E5                                           
0000ab50  __covrec_D6906745245FA8B9                                           
0000ab78  __covrec_AEB6B3FCA342B1E                                            
0000aba0  __covrec_13EEBDEB1507CEB2                                           
0000abc8  __covrec_DD8D851CFD2430A1                                           
0000abf0  __covrec_FEB814010EE1E189                                           
0000ac18  __covrec_F502F2592BB2BD                                             
0000ac40  __covrec_88BF6BD180C3C372                                           
0000ac68  __covrec_9312F9DF566C661B                                           
0000ac90  __covrec_4C5690A5ADD061BC                                           
0000acb8  __covrec_393EC39D4A1D073D                                           
0000ace0  __covrec_C85D3D98B3A44572                                           
0000ad08  __covrec_9CAC1CE443AB4B23                                           
0000ad30  __covrec_B2B073C9465843D5                                           
0000ad58  __covrec_1C7FA1260212AD5                                            
0000ad80  __covrec_B2B970D0FBA5133A                                           
0000ada8  __covrec_C77CF0904800F9F9                                           
0000add0  __covrec_E78C75D3A73A6C72                                           
0000adf8  __covrec_F1B3398206200D82                                           
0000ae20  __covrec_5492BAC5784C87A                                            
0000ae48  __covrec_F2F8CF0A854FC179                                           
0000ae70  __covrec_218F12CA9F1277A6                                           
0000ae98  __covrec_AA60AE05588F02C2                                           
0000aec0  __covrec_9DC92CF7C458707D                                           
0000aee8  __covrec_F55B63098831580A                                           
0000af10  __covrec_B0493C6EED2B3E0F                                           
0000af38  __covrec_60D379CDD6602B55                                           
0000af60  __covrec_4E58DBF4327476                                             
0000af88  __covrec_21DE6C1446A83F18                                           
0000afb0  __covrec_FCBA70ABD5D23A7E                                           
0000afd8  __covrec_DB33DFF21D344FE1                                           
0000b000  __covrec_96A1F28444E60F75                                           
0000b028  __covrec_BFDD05DA5AB8464B                                           
0000b050  __covrec_74644F9FD4276C45                                           
0000b078  __covrec_DF765CF2CEA5CBE5                                           
0000b0a0  __covrec_745FC0507DBF5653                                           
0000b0c8  __covrec_C69D67C508DC0D29                                           
0000b0f0  __covrec_9029FB168089A64                                            
0000b118  __covrec_1861FC4C42BB20D                                            
0000b140  __covrec_9637258B90682E53                                           
0000b168  __covrec_8A717ABB7D7FA223                                           
0000b190  __covrec_11E69E13C8198983                                           
0000b1b8  __covrec_E86642EB7DF2582C                                           
0000b1e0  __covrec_E60074CEB33FD374                                           
0000b208  __covrec_233F85B45FE09805                                           
0000b230  __covrec_251ACC369E405A37                                           
0000b258  __covrec_4FE67DC2E1EF49E8                                           
0000b280  __covrec_BBFE31996E38B45E                                           
0000b2a8  __covrec_EBBD10FBD7F0B6B2                                           
0000b2d0  __covrec_8E68B9E211E881C0                                           
0000b2f8  __covrec_48CE50F8D52B7FC2                                           
0000b320  __covrec_A6E5FBDB9EA0A908                                           
0000b348  __covrec_ECADB604EA77E678                                           
0000b370  __covrec_D4410CE70E74D2A3                                           
0000b398  __covrec_9833DFB19FC761AF                                           
0000b3c0  __covrec_CC00B429870B1C6B                                           
0000b3e8  __covrec_DD5989721CF29DF0                                           
0000b410  __covrec_30F3886B58C722DA                                           
0000b438  __covrec_AC01D7B3BF7FFE49                                           
0000b460  __covrec_776C1AE014694DDC                                           
0000b488  __covrec_EDA9FE308045CD4                                            
0000b4b0  __covrec_FF54B39FF356E9BD                                           
0000b4d8  __covrec_3D39F38A838BA87D                                           
0000b500  __covrec_D97355420F1ABDCD                                           
0000b528  __covrec_EA39EEEB3FFB1851                                           
0000b550  __covrec_284EE434571A2D20                                           
0000b578  __covrec_BC4EB6761F52A9C8                                           
0000b5a0  __covrec_4E0009E35F9820B6                                           
0000b5c8  __covrec_62051AEAC0DB039E                                           
0000b5f0  __covrec_F52EE534D87FF238                                           
0000b618  __covrec_A8E1A719CBA75311                                           
0000b640  __covrec_BE4F00F9B1A35D74                                           
0000b668  __covrec_A0E6D10552814C8C                                           
0000b690  __covrec_D53ACBADB85E2C0F                                           
0000b6b8  __covrec_E8D29782E04D680F                                           
0000b6e0  __covrec_446622ED9C1840B3                                           
0000b708  __covrec_F036903AB376193E                                           
0000b730  __covrec_960ED3CA418CCF88                                           
0000b758  __covrec_2B95CE779AD7E70D                                           
0000b780  __covrec_9357D26B34DF12C5                                           
0000b7a8  __covrec_E45E3ACA040B56ED                                           
0000b7d0  __covrec_8CCFC28D8E2733D4                                           
0000b7f8  __covrec_D31466C737A8BC52                                           
0000b820  __covrec_AEEAA40EB8AA1C59                                           
0000b848  __covrec_EAAB44DBE1EE9F96                                           
0000b870  __covrec_56F720173E8E275F                                           
0000b898  __covrec_9A8748024046FB59                                           
0000b8c0  __covrec_CBB96F0D582366A8                                           
0000b8e8  __covrec_8373A61F00A06D76                                           
0000b910  __covrec_399CFEF338DB8D25                                           
0000b938  __covrec_3DF8EB9EB81C9F94                                           
0000b960  __covrec_F41EA1424A2ABF13                                           
0000b988  __covrec_E1E417A7615EEB93                                           
0000b9b0  __covrec_E8B91B15EACB4757                                           
0000b9d8  __covrec_CF784E75FFDC193D                                           
0000ba00  __covrec_84D8531B8666ACB7                                           
0000ba28  __covrec_DC2E639A1A0D9DD7                                           
0000ba50  __covrec_A35EEA193D432FAE                                           
0000ba78  __covrec_DC3487D5BD79A3C                                            
0000baa0  __covrec_8437CAC55E9F7AA5                                           
0000bac8  __covrec_76845CF680C9FCF6                                           
0000baf0  __covrec_A321E0F12A5BDD4C                                           
0000bb18  __covrec_8E971BE5879B5455                                           
0000bb40  __covrec_4DFB2826E662DF64                                           
0000bb68  __covrec_1D9CE723FB6B2755                                           
0000bb90  __covrec_4122889FA736072C                                           
0000bbb8  __covrec_BF5F6F363288A0DA                                           
0000bbe0  __covrec_2A359C91FD8D1C1C                                           
0000bc08  __covrec_2F5C49410451F66E                                           
0000bc30  __covrec_4ABA73B77A14DAD2                                           
0000bc58  __covrec_265E86ECEC6F2823                                           
0000bc80  __covrec_6526B58678A09D49                                           
0000bca8  __covrec_79DF84256646FB6                                            
0000bcd0  __covrec_3554A3535079A9B8                                           
0000bcf8  __covrec_350A5D4826DC45C7                                           
0000bd20  __covrec_2C32F38E202C00F5                                           
0000bd48  __covrec_BD9557B33156364                                            
0000bd70  __covrec_DEC188C1A3A80664                                           
0000bd98  __covrec_CF6C471A9CB47D49                                           
0000bdc0  __covrec_614199C48FE1C6FE                                           
0000bde8  __covrec_569E36D24E405724                                           
0000be10  __covrec_DC9799907DA924FA                                           
0000be38  __covrec_58D078CB4DF7EA19                                           
0000be60  __covrec_F3E6856394E5AF66                                           
0000be88  __covrec_B39C18432448734F                                           
0000beb0  __covrec_8DB9DD12F96D579C                                           
0000bed8  __covrec_E27FAC7E325BB49C                                           
0000bf00  __covrec_97FD55834456AC56                                           
0000bf28  __covrec_492BD43910BF35D2                                           
0000bf50  __covrec_8B9CB16919B76C7A                                           
0000bf78  __covrec_DD845E5C17F45058                                           
0000bfa0  __covrec_55F2F6FEE16873A3                                           
0000bfc8  __covrec_FB9718C0D3DEF22A                                           
0000bff0  __covrec_BC88E073CD80AEAB                                           
0000c018  __covrec_5021B2C9510FC692                                           
0000c040  __covrec_24C744C6890B0052                                           
0000c068  __covrec_8A9BD8BB96C8BFFC                                           
0000c090  __covrec_696761E3DEA56327                                           
0000c0b8  __covrec_ABB8A94B92B5EC2A                                           
0000c0e0  __covrec_18C55F3A7C96DCA3                                           
0000c108  __covrec_8B85AA92DE156C93                                           
0000c130  __covrec_F78E4AB863DD48B6                                           
0000c158  __covrec_8E48E065F6A89743                                           
0000c180  __covrec_BC45095510A7671C                                           
0000c1a8  __covrec_FFB68A3AE689EA31                                           
0000c1d0  __covrec_58273DDAF5EF7BCB                                           
0000c1f8  __covrec_DCEB82A5AFAE4F1F                                           
0000c220  __covrec_AE7B2673513B220E                                           
0000c248  __covrec_E770F8B90A4D8010                                           
0000c270  __covrec_A881F028F2BCA305                                           
0000c298  __covrec_18C94FE8970DF7B6                                           
0000c2c0  __covrec_117EEA3DE190270E                                           
0000c2e8  __covrec_F1CA1B6877D29C02                                           
0000c310  __covrec_E4E696DC4BBCB36C                                           
0000c338  __covrec_522B85D7DD261692                                           
0000c360  __covrec_CFA3592458A9C33F                                           
0000c388  __covrec_32EB7C29B8B7D10D                                           
0000c3b0  __covrec_9E156DA1011A3A6C                                           
0000c3d8  __covrec_15F16235D3A2FA3E                                           
0000c400  __covrec_5C640ED73BB5AC77                                           
0000c428  __covrec_9FE66E7C892EEDD3                                           
0000c450  __covrec_3457B91BDC322763                                           
0000c478  __covrec_EAABEA81A2D2EB62                                           
0000c4a0  __covrec_9BE190805D406C23                                           
0000c4c8  __covrec_A1E112C26E8FDA36                                           
0000c4f0  __covrec_5C1576647B188489                                           
0000c518  __covrec_17F50C2BBE1442B2                                           
0000c540  __covrec_A285CA31DD703B2C                                           
0000c568  __covrec_BF6B6F85B14B4140                                           
0000c590  __covrec_2E9AAF47407C6D97                                           
0000c5b8  __covrec_3ADE431F4254482A                                           
0000c5e0  __covrec_A1881B094B1A0E8B                                           
0000c608  __covrec_A39C0CA79DE12B59                                           
0000c630  __covrec_FBDDFE0D8DB25460                                           
0000c658  __covrec_23C3B3858F12A774                                           
0000c680  __covrec_20451F7186A9AA65                                           
0000c6a8  __covrec_C8FE4F6398A717E5                                           
0000c6d0  __covrec_ED51E9FB35FEA82                                            
0000c6f8  __covrec_5E63994024C272DD                                           
0000c720  __covrec_8424EEBDEE7B44FA                                           
0000c748  __covrec_FD9B6C17B5E7BC33                                           
0000c770  __covrec_94F5F19E556A55FE                                           
0000c798  __covrec_5060055544111B77                                           
0000c7c0  __covrec_EAE9B6B66DA65B2A                                           
0000c7e8  __covrec_9B4179326DD8B1C4                                           
0000c810  __covrec_272C17D368D935DC                                           
0000c838  __covrec_69C3FB96747DC8D5                                           
0000c860  __covrec_19B11F3401CDF6CC                                           
0000c888  __covrec_887ED9EF8A1CEA45                                           
0000c8b0  __covrec_6C826EB2E67739D7                                           
0000c8d8  __covrec_E4DC80ACE25DF583                                           
0000c900  __covrec_4E389136703DAA00                                           
0000c928  __covrec_B52C3790F7D7CB62                                           
0000c950  __covrec_AF6C909240F65352                                           
0000c978  __covrec_F28C3753C750C484                                           
0000c9a0  __covrec_90DB1580FD3976C3                                           
0000c9c8  __covrec_1E42351BF0C82C5A                                           
0000c9f0  __covrec_90E87E4BB277AF67                                           
0000ca18  __covrec_76FE5E9F622492AD                                           
0000ca40  __covrec_F524D4C08558FABA                                           
0000ca68  __covrec_E4DFC02D1E68460                                            
0000ca90  __covrec_8D8202BF920164C5                                           
0000cab8  __covrec_97D56B78849A1C3F                                           
0000cae0  __covrec_AC771618B84FA192                                           
0000cb08  __covrec_60ABE3D4642716F5                                           
0000cb30  __covrec_6BEBEED0547734F                                            
0000cb58  __covrec_733D26D6BCAA58F0                                           
0000cb80  __covrec_3295A3A04841FC98                                           
0000cba8  __covrec_D53EFDEC719E3E9F                                           
0000cbd0  __covrec_17676CFFC21A8DEB                                           
0000cbf8  __covrec_F96733497E2F46E9                                           
0000cc20  __covrec_A5D4DB45D6259DE8                                           
0000cc48  __covrec_5152F22C0290C38F                                           
0000cc70  __covrec_D3E9D6F1831DF734                                           
0000cc98  __covrec_117CA647C49548CB                                           
0000ccc0  __covrec_AC3AFBBBBC8A0758                                           
0000cce8  __covrec_770C7C9EA3F651B0                                           
0000cd10  __covrec_65607F8F175D3DF3                                           
0000cd38  __covrec_6C154DF9A0952D50                                           
0000cd60  __covrec_E2496B9A485C1097                                           
0000cd88  __covrec_64404D100FD6C22D                                           
0000cdb0  __covrec_AA3ACD92DED8A6BA                                           
0000cdd8  __covrec_C338205170140FE6                                           
0000ce00  __covrec_A663DF13D03CDEC4                                           
0000ce28  __covrec_F4AF518851EB469E                                           
0000ce50  __covrec_F247AB1837D206CE                                           
0000ce78  __covrec_E2FC180D9E91BDE7                                           
0000cea0  __covrec_202C96EB3F7B8080                                           
0000cec8  __covrec_33B0B1BABA644397                                           
0000cef0  __covrec_8DD1DCA4CF50B601                                           
0000cf18  __covrec_94FF4331295563C2                                           
0000cf40  __covrec_1EEE2A34CAE6E300                                           
0000cf68  __covrec_2F39D195F2C3CB75                                           
0000cf90  __covrec_80AB49A1817EF9BF                                           
0000cfb8  __covrec_A7B439A98F551363                                           
0000cfe0  __covrec_3CEA1FCCEF3DBC71                                           
0000d008  __covrec_80DFFE46C52FF29D                                           
0000d030  __covrec_1AA0DAB3D5A1092A                                           
0000d058  __covrec_D1B079BA6AD5D6E4                                           
0000d080  __covrec_B819BF1D9DFEF741                                           
0000d0a8  __covrec_1FCD8084A8AD94C7                                           
0000d0d0  __covrec_56F29B357FBA9AEE                                           
0000d0f8  __covrec_C8068DADE76421C8                                           
0000d120  __covrec_27D5EE4E42D2F8FB                                           
0000d148  __covrec_E1FC1A338E21D93B                                           
0000d170  __covrec_2ADC47AE9A1EFEA4                                           
0000d198  __covrec_B018BF2C91460E84                                           
0000d1c0  __covrec_57A6B7CE85908727                                           
0000d1e8  __covrec_3EEF23B8764362AD                                           
0000d210  __covrec_94459AF344393855                                           
0000d238  __covrec_4F603E9B159454D0                                           
0000d260  __covrec_6E20C05915C835E9                                           
0000d288  __covrec_74267C0695C72F51                                           
0000d2b0  __covrec_8401DE39810A3D1C                                           
0000d2d8  __covrec_B70A7A6EF44800E4                                           
0000d300  __covrec_2CDF07F48A6D982E                                           
0000d328  __covrec_423B32735ABEE139                                           
0000d350  __covrec_49836DD0588C9E28                                           
0000d378  __covrec_79AA2E716B0186E6                                           
0000d3a0  __covrec_E376985B5C25D714                                           
0000d3c8  __covrec_A76DB0660E7B33B5                                           
0000d3f0  __covrec_F4296E3A41A8F703                                           
0000d418  __covrec_6FA754AA5ADC144                                            
0000d440  __covrec_FBDCC81F09CD47A3                                           
0000d468  __covrec_D92491D4E3A73E87                                           
0000d490  __covrec_6192B153F7A45656                                           
0000d4b8  __covrec_57C8E993CFB21865                                           
0000d4e0  __covrec_FC00C811F594C133                                           
0000d508  __covrec_F467FE24703C9382                                           
0000d530  __covrec_D8B31576A6B64536                                           
0000d558  __covrec_8FEF06AC21DAD39B                                           
0000d580  __covrec_65A36E377BFF4140                                           
0000d5a8  __covrec_B916B0286C2C7B74                                           
0000d5d0  __covrec_97E0310CCF40C8E2                                           
0000d5f8  __covrec_354B464C0F657B6D                                           
0000d620  __covrec_9B271709DF893740                                           
0000d648  __covrec_AA93C0708B38E67F                                           
0000d670  __covrec_8A930C96FFF97522                                           
0000d698  __covrec_D4D3B8F3CE1E777D                                           
0000d6c0  __covrec_4E79604DA6C33FBE                                           
0000d6e8  __covrec_24CA4CDBACD6553                                            
0000d710  __covrec_FEEE5FD8F1E8D74B                                           
0000d738  __covrec_9535021043EFE404                                           
0000d760  __covrec_C35568601D7BCF31                                           
0000d788  __covrec_D12D546919F375B0                                           
0000d7b0  __covrec_9A56EF0C84E04B69                                           
0000d7d8  __covrec_13D209C83AB139F3                                           
0000d800  __covrec_CF768E9FE9073E66                                           
0000d828  __covrec_314BFFF2ED3BAB39                                           
0000d850  __covrec_14A79F283BFABACD                                           
0000d878  __covrec_5D759AD54A51C560                                           
0000d8a0  __covrec_DEAC6DBD1C1E5E9                                            
0000d8c8  __covrec_4976D361B44A5AA3                                           
0000d8f0  __covrec_63437E4292F0A2A2                                           
0000d918  __covrec_D07A37B1939E5D54                                           
0000d940  __covrec_83CF5A4BBF635463                                           
0000d968  __covrec_428E1F3CAAE4C04F                                           
0000d990  __covrec_1FA29A6965EA697A                                           
0000d9b8  __covrec_B78224EA4F54088F                                           
0000d9e0  __covrec_9702EEA551CAD06A                                           
0000da08  __covrec_9BE75536C7AA01CE                                           
0000da30  __covrec_E12F9CFDFB65858A                                           
0000da58  __covrec_A7873F0FA79D32E5                                           
0000da80  __covrec_B0ED8A53CC14318B                                           
0000daa8  __covrec_CABDE2662CE4E99D                                           
0000dad0  __covrec_E7E5E77E4790561B                                           
0000daf8  __covrec_9A96AAEEA4ADEE58                                           
0000db20  __covrec_615D4DFDAEE8F5FA                                           
0000db48  __covrec_A8F9AC07D15724E9                                           
0000db70  __covrec_526342166FE9AD5D                                           
0000db98  __covrec_E4A8E76C9BD4D8EE                                           
0000dbc0  __covrec_B94AA69A3BB493DA                                           
0000dbe8  __covrec_AD9CFA1F1A6A3F5D                                           
0000dc10  __covrec_BBE2AB49A198DD45                                           
0000dc38  __covrec_503B0E149A309351                                           
0000dc60  __covrec_D6857CD3212C9731                                           
0000dc88  __covrec_B422C517245AC61C                                           
0000dcb0  __covrec_B64D86C76C8AAD43                                           
0000dcd8  __covrec_B746C909C3621F48                                           
0000dd00  __covrec_F75305B21EDFC409                                           
0000dd28  __covrec_4F40815ADE61F553                                           
0000dd50  __covrec_D1C932F0535573F5                                           
0000dd78  __covrec_D8382B5E0B73A19F                                           
0000dda0  __covrec_3F2849ACFD37338                                            
0000ddc8  __covrec_D950A2AAB0958AEE                                           
0000ddf0  __covrec_B892DC87501F911D                                           
0000de18  __covrec_52B889F10C63FA0F                                           
0000de40  __covrec_3FF7CDC1E5FA420E                                           
0000de68  __covrec_21FA824B88D6AD1D                                           
0000de90  __covrec_4057D4434CEB1901                                           
0000deb8  __covrec_A2FC1524981AEC4C                                           
0000dee0  __covrec_1D99CCB594089A41                                           
0000df08  __covrec_5133B7C7ED853A06                                           
0000df30  __covrec_D18F16CFBDDDAF90                                           
0000df58  __covrec_48937F495609D83D                                           
0000df80  __covrec_191692FA231B07B4                                           
0000dfa8  __covrec_2567E9C03E157DB1                                           
0000dfd0  __covrec_98EF7F7E7DF1C73B                                           
0000dff8  __covrec_35D0AF4CE8D9BB74                                           
0000e020  __covrec_33DFA63102C832AB                                           
0000e048  __covrec_75346CDAEBEF94B4                                           
0000e070  __covrec_2513C5EA59AE773                                            
0000e098  __covrec_16CD1192FCE26EA1                                           
0000e0c0  __covrec_298CA05804ACFE00                                           
0000e0e8  __covrec_220AC222F0E2A846                                           
0000e110  __covrec_CFFCBE755B3A13E0                                           
0000e138  __covrec_A85F1C0DE6EE161D                                           
0000e160  __covrec_5C6AAE09FC477053                                           
0000e188  __covrec_E34C86727FC6FD46                                           
0000e1b0  __covrec_DA15D81B7651C938                                           
0000e1d8  __covrec_C1C101DA9618338E                                           
0000e200  __covrec_50D9C2907F2F177B                                           
0000e228  __covrec_D41E8AAA9E2B6410                                           
0000e250  __covrec_24A93D96FB9BF831                                           
0000e278  __covrec_4A4BE10CC563067C                                           
0000e2a0  __covrec_C7524CA75810942B                                           
0000e2c8  __covrec_FCADD26215A1388A                                           
0000e2f0  __covrec_E6460CD2D4F83E38                                           
0000e318  __covrec_C397AC493E8DDD70                                           
0000e340  __covrec_C9A5B4F13A94491C                                           
0000e368  __covrec_55935849ED96C911                                           
0000e390  __covrec_D654905C8A54BBBD                                           
0000e3b8  __covrec_6AB560A63580B474                                           
0000e3e0  __covrec_D2F1954F70E5EFFB                                           
0000e408  __covrec_BBC289A7DACFE5C7                                           
0000e430  __covrec_1A2A0C671F027882                                           
0000e458  __covrec_AC094D99E9A36A27                                           
0000e480  __covrec_7AF15341018DC87E                                           
0000e4a8  __covrec_4D6B2F6A0E873DE1                                           
0000e4d0  __covrec_962A8CB589DE2E74                                           
0000e4f8  __covrec_E0EACB2A8987267E                                           
0000e520  __covrec_9910356D0F595667                                           
0000e548  __covrec_5CD26FB90BCED7C0                                           
0000e570  __covrec_E71E3EE8FFC099C6                                           
0000e598  __covrec_E7D593E7E8FEE7                                             
0000e5c0  __covrec_9DB578BB72898793                                           
0000e5e8  __covrec_18E2C2AEBDE126AA                                           
0000e610  __covrec_7F5B448C2F73CF                                             
0000e638  __covrec_ED6EB4CF148E2A01                                           
0000e660  __covrec_8562E276DDDD73B0                                           
0000e688  __covrec_C586BFBBBF98D9D5                                           
0000e6b0  __covrec_9BEFFD925C6B65CB                                           
0000e6d8  __covrec_5D8191A06357DB48                                           
0000e700  __covrec_D101D64316D5B0B0                                           
0000e728  __covrec_F888F8504FBA196A                                           
0000e750  __covrec_C7FD1617C63B3887                                           
0000e778  __covrec_A12878985AE4FD46                                           
0000e7a0  __covrec_B8D0BDBEECD6328F                                           
0000e7c8  __covrec_9F314263037524A                                            
0000e7f0  __covrec_2E6930B9B2F72D51                                           
0000e818  __covrec_9D5B8B34DEF48B29                                           
0000e840  __covrec_E9A7C5F5256CA1CF                                           
0000e868  __covrec_A1F36B83650B39EF                                           
0000e890  __covrec_27666800B092B196                                           
0000e8b8  __covrec_6CED2B31BF175C92                                           
0000e8e0  __covrec_8157D792337D030F                                           
0000e908  __covrec_40D1C91CB225CDE7                                           
0000e930  __covrec_7EEE72D65E4C94D                                            
0000e958  __covrec_3479AFF692E8911D                                           
0000e980  __covrec_7F702AD9417C52E2                                           
0000e9a8  __covrec_D3E5A6D38E6C5BB1                                           
0000e9d0  __covrec_D0DB042F795A0414                                           
0000e9f8  __covrec_202C7A455CD6E333                                           
0000ea20  __covrec_75F4B41DAC5D5FA8                                           
0000ea48  __covrec_E9A2FCB92EFA12C7                                           
0000ea70  __covrec_D62D55F3F01A0888                                           
0000ea98  __covrec_7E08409EF7334EC2                                           
0000eac0  __covrec_3888426049BC3634                                           
0000eae8  __covrec_4A8C95F2901A2A17                                           
0000eb10  __covrec_C1BC76294A14ECF8                                           
0000eb38  __covrec_CBDE5594830D6352                                           
0000eb60  __covrec_E7F6AC2196ABC312                                           
0000eb88  __covrec_BD094507720B5F9E                                           
0000ebb0  __covrec_A1643B6D07064403                                           
0000ebd8  __covrec_827F9E87DDDBA34D                                           
0000ec00  __covrec_AFAC91A229182DA0                                           
0000ec28  __covrec_2388F5C50AB5599C                                           
0000ec50  __covrec_F75631BA688A7D16                                           
0000ec78  __covrec_6CABFDF727DEB99D                                           
0000eca0  __covrec_3DFC6A438A14851B                                           
0000ecc8  __covrec_9835F6EFF97E449E                                           
0000ecf0  __covrec_A8DF0CDE3D8C8EC                                            
0000ed18  __covrec_4185E97B66CAE26D                                           
0000ed40  __covrec_12535760FC4ADAC1                                           
0000ed68  __covrec_EB03BABFEDDC0D56                                           
0000ed90  __covrec_5AB5CF63C45A393C                                           
0000edb8  __covrec_38E439AA27968E3                                            
0000ede0  __covrec_B67AFA65FA243A86                                           
0000ee08  __covrec_FA712F2B365C8A11                                           
0000ee30  __covrec_BA5B0627C0679EDB                                           
0000ee58  __covrec_944B83265044EBC2                                           
0000ee80  __covrec_F0A4196E8DE486BB                                           
0000eea8  __covrec_C66C300848C1C3A1                                           
0000eed0  __covrec_F7B6927D0C230FAA                                           
0000eef8  __covrec_4F299318312286E8                                           
0000ef20  __covrec_9ABD29FA3C0EB16D                                           
0000ef48  __covrec_2339956FA0387BA6                                           
0000ef70  __covrec_8280B760B3FC813                                            
0000ef98  __covrec_3948C13DF4657192                                           
0000efc0  __covrec_7DE42E6F8214B4DD                                           
0000efe8  __covrec_41EAD252A13439                                             
0000f010  __covrec_32C1B7F23D8464C3                                           
0000f038  __covrec_B4FCB8836F8E814F                                           
0000f060  __covrec_FB56AB2FA2F47069                                           
0000f088  __covrec_123EF23556749C8B                                           
0000f0b0  __covrec_74AEBC6A6A083FBA                                           
0000f0d8  __covrec_19C3E106639278BB                                           
0000f100  __covrec_5FC90BCB9BDEE2F0                                           
0000f128  __covrec_AD38A1B6D2EEA56B                                           
0000f150  __covrec_CFC3953EB5D6AE21                                           
0000f178  __covrec_187B1171A4D17848                                           
0000f1a0  __covrec_ACE0C62D4FEE04DE                                           
0000f1c8  __covrec_4B7058B238D5EE8C                                           
0000f1f0  __covrec_ED56068CDDCCFA3D                                           
0000f218  __covrec_48A933F3EC50F0A8                                           
0000f240  __covrec_11500CDD97232ECC                                           
0000f268  __covrec_BCA8B86FD76368C2                                           
0000f290  __covrec_DA0A1FD561552DCB                                           
0000f2b8  __covrec_312E870E011EC8B2                                           
0000f2e0  __covrec_E513A61E0DF66E5C                                           
0000f308  __covrec_C393FE117C15FDE0                                           
0000f330  __covrec_B22F63C73E638519                                           
0000f358  __covrec_4A72F70204081B46                                           
0000f380  __covrec_54DB41EDF6719D19                                           
0000f3a8  __covrec_15B256E28F0CF71B                                           
0000f3d0  __covrec_AC64B8798AC6F6CB                                           
0000f3f8  __covrec_6B3CE2BBE9AC8D08                                           
0000f420  __covrec_CEEC01DDD493738D                                           
0000f448  __covrec_F16E47EE8F911159                                           
0000f470  __covrec_D3DAB2AA8B76E17D                                           
0000f498  __covrec_D58CE91F610E2E2F                                           
0000f4c0  __covrec_658B61B2852291                                             
0000f4e8  __covrec_2E86848407425624                                           
0000f510  __covrec_6AB07BF230A81BB2                                           
0000f538  __covrec_81920FF0658AC4B8                                           
0000f560  __covrec_45B647E39B682649                                           
0000f588  __covrec_9E72BD6DB893198A                                           
0000f5b0  __covrec_59BE15B1181A9B83                                           
0000f5d8  __covrec_4C2BC544BEC29D43                                           
0000f600  __covrec_871CE3C7662B6451                                           
0000f628  __covrec_EC219A2ED0205320                                           
0000f650  __covrec_CAEEBA5CCD7A90B5                                           
0000f678  __covrec_CBB5E475D9F87272                                           
0000f6a0  __covrec_2A8D51B2E218C148                                           
0000f6c8  __covrec_B857CC6179121589                                           
0000f6f0  __covrec_841A3E89DE7B1503                                           
0000f718  __covrec_AA614F02A1CAE253                                           
0000f740  __covrec_754DBCEF0C91EC86                                           
0000f768  __covrec_32406CE96AD54CC6                                           
0000f790  __covrec_F78305407694B4D                                            
0000f7b8  __covrec_D6678463B0397822                                           
0000f7e0  __covrec_6D42232FDDEC3C8E                                           
0000f808  __covrec_B43C1008A92C715A                                           
0000f830  __covrec_D4CD7FEC96B7299F                                           
0000f858  __covrec_BF93987F441C76B                                            
0000f880  __covrec_DF6264F59FF180AE                                           
0000f8a8  __covrec_1FFD87196D393A5                                            
0000f8d0  __covrec_217A60EA0747DA3D                                           
0000f8f8  __covrec_69778F10E0095724                                           
0000f920  __covrec_6AAF52BB6CA8D4E1                                           
0000f948  __covrec_7E79DF9231D22F72                                           
0000f970  __covrec_B1571C2600AD6A7D                                           
0000f998  __covrec_46E927B734E17863                                           
0000f9c0  __covrec_3DBE3CD7FBE30937                                           
0000f9e8  __covrec_97409D1B05E866DA                                           
0000fa10  __covrec_B94528FBF7821792                                           
0000fa38  __covrec_77E5CDDADDBA78DF                                           
0000fa60  __covrec_51D64361C3BC16DE                                           
0000fa88  __covrec_70C4D8C01CD09878                                           
0000fab0  __covrec_CF6296B2BFB76AC6                                           
0000fad8  __covrec_F70068D25D1F1B03                                           
0000fb00  __covrec_79DB03467E5AD05B                                           
0000fb28  __covrec_56A6F3E240263F82                                           
0000fb50  __covrec_9E3BF448F2BDC4EC                                           
0000fb78  __covrec_960A784E7C4814C3                                           
0000fba0  __covrec_A2F9CD1972AC8A15                                           
0000fbc8  __covrec_96979FA90748D718                                           
0000fbf0  __covrec_CF8A5E988A43C975                                           
0000fc18  __covrec_FDA2C9D32CE6808C                                           
0000fc40  __covrec_8EFDB1ECDD8F7F9A                                           
0000fc68  __covrec_F3D0AC9D45DFEA9D                                           
0000fc90  __covrec_417105283F34FA91                                           
0000fcb8  __covrec_64D4D25B998153EF                                           
0000fce0  __covrec_D1A4A94F5450281C                                           
0000fd08  __covrec_590AB443330E8D7                                            
0000fd30  __covrec_6F43901BF0C5BF3E                                           
0000fd58  __covrec_C1CD6E7915AFE417                                           
0000fd80  __covrec_EA0C1992A2FCCD44                                           
0000fda8  __covrec_C6F08418978F9D5                                            
0000fdd0  __covrec_9EBBAF613629BCB0                                           
0000fdf8  __covrec_DF50453AB1183B8A                                           
0000fe20  __covrec_4D893FD47865BD7D                                           
0000fe48  __covrec_15FEAC848F528C6B                                           
0000fe70  __covrec_EB618F5B9FA517F1                                           
0000fe98  __covrec_E6DCF9FFC5C0D092                                           
0000fec0  __covrec_5677D1460C676295                                           
0000fee8  __covrec_2F00E2DBF679952C                                           
0000ff10  __covrec_B3712F35BD12652                                            
0000ff38  __covrec_64C5CA9C95669B3C                                           
0000ff60  __covrec_79D6C9B6AB30DFDE                                           
0000ff88  __covrec_2C2C228A4F28479F                                           
0000ffb0  __covrec_77B456D3892D4D60                                           
0000ffd8  __covrec_38D88FC9BFD6A295                                           
00010000  __covrec_D664BB3962988E61                                           
00010028  __covrec_ED95CE15A7B6B533                                           
00010050  __covrec_8975B44E75AA770D                                           
00010078  __covrec_6FCDA577449FD68D                                           
000100a0  __covrec_C92BE0C7FCE731DF                                           
000100c8  __covrec_265D2618BDEC7C47                                           
000100f0  __covrec_2977657D71223940                                           
00010118  __covrec_2EBC23AAF74450FC                                           
00010140  __covrec_48F5EAAD9E6C8EE                                            
00010168  __covrec_35C020036EBBC4CF                                           
00010190  __covrec_DE4692A25B562034                                           
000101b8  __covrec_4BF9B0DAF0D91016                                           
000101e0  __covrec_4CD0F71F925E9B51                                           
00010208  __covrec_ADA5778C0D701718                                           
00010230  __covrec_4A95379E049807A4                                           
00010258  __covrec_97A25FA94E493053                                           
00010280  __covrec_2F745AB821F8946B                                           
000102a8  __covrec_87AFAB7CBD8DD2FF                                           
000102d0  __covrec_C4A63862D333E2A7                                           
000102f8  __covrec_51F410CB3925D6BF                                           
00010320  __covrec_8430DAE45D32A5F1                                           
00010348  __covrec_4C011B2E588F3AD8                                           
00010370  __covrec_50158A1C814E88F1                                           
00010398  __covrec_D25B518CBFBCCE7A                                           
000103c0  __covrec_792012C6E86331AD                                           
000103e8  __covrec_7EF02E878D70B9C9                                           
00010410  __covrec_3DA9EF63272D03D6                                           
00010438  __covrec_AA7A796FA25F2E6                                            
00010460  __covrec_A16190F41D4145AE                                           
00010488  __covrec_C3755C63A5F65192                                           
000104b0  __covrec_F682FBAD213A6256                                           
000104d8  __covrec_29B7CB608F723A15                                           
00010500  __covrec_778A7931576CD100                                           
00010528  __covrec_C6B512C0EDE94477                                           
00010550  __covrec_76324FF454CA8C86                                           
00010578  __covrec_5ADA9B0D2A5017BB                                           
000105a0  __covrec_867A50C4C80A3BC0                                           
000105c8  __covrec_D7FCE8013E1A7E47                                           
000105f0  __covrec_73F689707721D1AD                                           
00010618  __covrec_2651D34D170ED9A0                                           
00010640  __covrec_E9416C0FE82C21A7                                           
00010668  __covrec_2E7E0A7D08EE48C7                                           
00010690  __covrec_3ECB4620D4F2B54                                            
000106b8  __covrec_36F31055BFEFEE2B                                           
000106e0  __covrec_6128075D70C3749A                                           
00010708  __covrec_25D9A1BD64EDF5BD                                           
00010730  __covrec_CF568B3DFDF1C20A                                           
00010758  __covrec_844B4E70F5B3C45C                                           
00010780  __covrec_D490D54BA6F71A1F                                           
000107a8  __covrec_377070A394B5568B                                           
000107d0  __covrec_147509653EA2F5AC                                           
000107f8  __covrec_4EE49BB3AB220CA6                                           
00010820  __covrec_A869DDBABE0ABB5A                                           
00010848  __covrec_F4110C4189C24251                                           
00010870  __covrec_4A56FA659AA55CD7                                           
00010898  __covrec_4F1FACCBCFB28F3B                                           
000108c0  __covrec_FD64975E07553916                                           
000108e8  __covrec_B9243449487FC55E                                           
00010910  __covrec_46E76E8E360A0C1E                                           
00010938  __covrec_254FCBEC80F1C133                                           
00010960  __covrec_5D02235509BFC90B                                           
00010988  __covrec_86DA2D20878BAF80                                           
000109b0  __covrec_14C4223211CF080A                                           
000109d8  __covrec_C4CADF83656F92D1                                           
00010a00  __covrec_ABF5FAEFFCFFED05                                           
00010a28  __covrec_DED25F039A71A4B4                                           
00010a50  __covrec_C035BC44C83C4CE9                                           
00010a78  __covrec_B6C065DC38E139EF                                           
00010aa0  __covrec_5AC7226CF1898722                                           
00010ac8  __covrec_DBBE8B0EA20C3944                                           
00010af0  __covrec_1238FFC6C0414155                                           
00010b18  __covrec_D0CB8B99216A2BE9                                           
00010b40  __covrec_6B453CD6DD04C026                                           
00010b68  __covrec_A3A8D12C2069F132                                           
00010b90  __covrec_8C198C6DE0EA2A85                                           
00010bb8  __covrec_B74B7462C2123191                                           
00010be0  __covrec_42150677174D23DD                                           
00010c08  __covrec_BAEAF3D8B120B7F                                            
00010c30  __covrec_D14A42CC925B9C8D                                           
00010c58  __covrec_9B09AFE5C7500E7B                                           
00010c80  __covrec_9A8EA006670ADADA                                           
00010ca8  __covrec_42581A22AA3172D                                            
00010cd0  __covrec_31F379EA8C23BAF                                            
00010cf8  __covrec_53F8B818284C7377                                           
00010d20  __covrec_94300D5026E2216                                            
00010d48  __covrec_357DBB1D373C5745                                           
00010d70  __covrec_F7204AF9D62BEE3C                                           
00010d98  __covrec_89DA5A7AC4CAC786                                           
00010dc0  __covrec_78D316F9D4D52749                                           
00010de8  __covrec_C9A3BFFB550F2EE6                                           
00010e10  __covrec_D7FA8C1A6AE3CFB5                                           
00010e38  __covrec_4BB13C6D2C07FA75                                           
00010e60  __covrec_8647183FF23AB3F8                                           
00010e88  __covrec_11C39D69F5CFBFFB                                           
00010eb0  __covrec_8FE888FF1FF5E559                                           
00010ed8  __covrec_9526502DD42A997F                                           
00010f00  __covrec_CA6DB3EE240D056C                                           
00010f28  __covrec_C6CF8F5C398F03F8                                           
00010f50  __covrec_C2EF148862555454                                           
00010f78  __covrec_8F67E3FE41C8DE12                                           
00010fa0  __covrec_ED319991AAA32315                                           
00010fc8  __covrec_1D1AF4AD760EBD0B                                           
00010ff0  __covrec_A2F482B2DBC60022                                           
00011018  __covrec_3949055E6442241B                                           
00011040  __covrec_4F80FCB6AF56C1BF                                           
00011068  __covrec_BE934D512341874F                                           
00011090  __covrec_C92B7A378BC186E1                                           
000110b8  __covrec_5C8A3517134A2F75                                           
000110e0  __covrec_131088E6AD3ACCAD                                           
00011108  __covrec_F6F69E854D41348C                                           
00011130  __covrec_F5982A8EC992AFB8                                           
00011158  __covrec_17E5EA330C09BF0B                                           
00011180  __covrec_77EED7747D921AD6                                           
000111a8  __covrec_8FAE06D0D93E074                                            
000111d0  __covrec_B0BBBD6BE8F32D65                                           
000111f8  __covrec_5E2793446CE62405                                           
00011220  __covrec_C518FBE673DB7057                                           
00011248  __covrec_6B7AC8582912A706                                           
00011270  __covrec_DD27DEFB065550FC                                           
00011298  __covrec_ACCC18B9806D90E7                                           
000112c0  __covrec_AC39D13BD8CE65E9                                           
000112e8  __covrec_CD200358C341AAF                                            
00011310  __covrec_1667140CB11964E4                                           
00011338  __covrec_F5E9FBE5DA739505                                           
00011360  __covrec_9202711EDAD5D024                                           
00011388  __covrec_56FE177820412F34                                           
000113b0  __covrec_29A3D88E1029BC72                                           
000113d8  __covrec_B6A587D2AEB30D0B                                           
00011400  __covrec_8E6E8B57A0E136A9                                           
00011428  __covrec_66D411F20F714460                                           
00011450  __covrec_4A61F6B9BC8DF04E                                           
00011478  __covrec_6958F1651247860D                                           
000114a0  __covrec_EAF81E9446EEB44E                                           
000114c8  __covrec_D534DE2A8E92EDF4                                           
000114f0  __covrec_A530E260A30B19DA                                           
00011518  __covrec_567F876D6677D11D                                           
00011540  __covrec_A7D6A43231E3E91C                                           
00011568  __covrec_B729D282B8E99F2C                                           
00011590  __covrec_F2D772483524CE27                                           
000115b8  __covrec_1E193250FA962C0E                                           
000115e0  __covrec_77932A5C4EFE99AA                                           
00011608  __covrec_25261BF28E6E7B76                                           
00011630  __covrec_50C76919062D84EF                                           
00011658  __covrec_8FA116A2C93D8DEE                                           
00011680  __covrec_CD9ABCDE6D0D6623                                           
000116a8  __covrec_81BF6E9A128378FB                                           
000116d0  __covrec_F9561632D93AC963                                           
000116f8  __covrec_4A6AE6D3DB383E83                                           
00011720  __covrec_3DBC39666C08BE1A                                           
00011748  __covrec_4305B0ECA8CA430C                                           
00011770  __covrec_985D2CBDC086C681                                           
00011798  __covrec_896E3BBCAB83D694                                           
000117c0  __covrec_81E7AE8A19811057                                           
000117e8  __covrec_30C3839985E99589                                           
00011810  __covrec_EE542AC449596B4E                                           
00011838  __covrec_B348C02CBDBA7062                                           
00011860  __covrec_659293771E06CFC4                                           
00011888  __covrec_64C7A4BF5A8DF1E8                                           
000118b0  __covrec_5C23E1E19E04E29E                                           
000118d8  __covrec_1A817747AB50388D                                           
00011900  __covrec_7C09B740FBD55353                                           
00011928  __covrec_73FA822B9937464B                                           
00011950  __covrec_F526DD0024C66174                                           
00011978  __covrec_B08B216CB52206A0                                           
000119a0  __covrec_1859A1966B6E3A06                                           
000119c8  __covrec_ABE73C7233B17BE1                                           
000119f0  __covrec_94408095CB5AECE0                                           
00011a18  __covrec_D777EF649DB88A72                                           
00011a40  __covrec_A7E7FE4718D342BB                                           
00011a68  __covrec_60B66828073175A3                                           
00011a90  __covrec_C49DE2E1CEC0B1C2                                           
00011ab8  __covrec_9E067B8036BFA292                                           
00011ae0  __covrec_5ABBE65F0653BE84                                           
00011b08  __covrec_D19EA0397B5C3E0E                                           
00011b30  __covrec_E8DE5C07AF2A28C0                                           
00011b58  __covrec_DA37655C7FE16524                                           
00011b80  __covrec_2CD97E9C253EE935                                           
00011ba8  __covrec_9D9E2F558AB0FBE4                                           
00011bd0  __covrec_D16E9414128619D                                            
00011bf8  __covrec_AD1BE74848DC15D                                            
00011c20  __covrec_54D9E3CE8ABC54B                                            
00011c48  __covrec_7DBFA9FA2B174F6E                                           
00011c70  __covrec_229321D45BF5FD30                                           
00011c98  __covrec_A3547ED3550B6766                                           
00011cc0  __covrec_484915A1660C4ADD                                           
00011ce8  __covrec_9C54BD5A617C92F1                                           
00011d10  __covrec_4F39CC6FFDC46A21                                           
00011d38  __covrec_63110FBAC80097F6                                           
00011d60  __covrec_BD1E5D58F76D1490                                           
00011d88  __covrec_F26F055AC87C1E55                                           
00011db0  __covrec_5A0C9143FD84E425                                           
00011dd8  __covrec_ED63CE54F5C5BB15                                           
00011e00  __covrec_528FD4CE93671574                                           
00011e28  __covrec_2B5E8C48782B6E42                                           
00011e50  __covrec_A673A4EC8D5851F                                            
00011e78  __covrec_9A9958B68856A9DC                                           
00011ea0  __covrec_B4BBEF278698D91D                                           
00011ec8  __covrec_185D94558A52B925                                           
00011ef0  __covrec_EFFFBFF25E810F7A                                           
00011f18  __covrec_88876920E7372B35                                           
00011f40  __covrec_DD200715A63E8E1                                            
00011f68  __covrec_B19A85F21170AEDA                                           
00011f90  __covrec_A067CD47AAA67307                                           
00011fb8  __covrec_44E69B74BCCD13D4                                           
00011fe0  __covrec_42D7E6BFF8F28128                                           
00012008  __covrec_26080A47B295C177                                           
00012030  __covrec_9093E69E3F41FD76                                           
00012058  __covrec_87B6EF534ED63016                                           
00012080  __covrec_6DEF844F5306A3D5                                           
000120a8  __covrec_66A098987A7F89B4                                           
000120d0  __covrec_398E34A9689A87E5                                           
000120f8  __covrec_7342A38FC7016E18                                           
00012120  __covrec_FB9F7806619A5CED                                           
00012148  __covrec_F3BF79C3C0B3470E                                           
00012170  __covrec_C18F83E553AC126F                                           
00012198  __covrec_BFDF0B48638CE81F                                           
000121c0  __covrec_EE77834AB5E75BA5                                           
000121e8  __covrec_D494683101F6015                                            
00012210  __covrec_64C9E02EF6F2E8C0                                           
00012238  __covrec_4F8E90F8B87E841B                                           
00012260  __covrec_8C80C2ED1239F2D0                                           
00012288  __covrec_EE9257CBCE499C19                                           
000122b0  __covrec_E279589CABE6DE42                                           
000122d8  __covrec_EA454A7325D2958A                                           
00012300  __covrec_751788504F3D6385                                           
00012328  __covrec_48E78E3FDA48EE20                                           
00012350  __covrec_13E1A05045145CD3                                           
00012378  __covrec_6F9DBC0879E6F780                                           
000123a0  __covrec_79B221631BF16FA                                            
000123c8  __covrec_C30924248DFD5F16                                           
000123f0  __covrec_F26141924E3D664F                                           
00012418  __covrec_C27D06AE82A293D                                            
00012440  __covrec_F7EBEB7111B150C6                                           
00012468  __covrec_CDEEA0644ADBF558                                           
00012490  __covrec_D69D04A412471EF6                                           
000124b8  __covrec_8E7160727841C0F2                                           
000124e0  __covrec_41100A100CA13801                                           
00012508  __covrec_5487E132B81AC176                                           
00012530  __covrec_F8755B5E23A68066                                           
00012558  __covrec_D7D58EE6260EFFD5                                           
00012580  __covrec_3DA4DA35CA36371B                                           
000125a8  __covrec_E291ECBA961FEE95                                           
000125d0  __covrec_534285ACC9CA037D                                           
000125f8  __covrec_92C8C968B11645C9                                           
00012620  __covrec_6132AAB3C0E55139                                           
00012648  __covrec_8DFCBEBBC448B6B3                                           
00012670  __covrec_83C84E78BC80998A                                           
00012698  __covrec_C1BF6DE9B55DAAB3                                           
000126c0  __covrec_C0385C455F437C0E                                           
000126e8  __covrec_A165173154412DEC                                           
00012710  __covrec_DBBC192E70D41103                                           
00012738  __covrec_EBA8D0CE8C4046B0                                           
00012760  __covrec_BE1376A45F7FF929                                           
00012788  __covrec_98BF38AF517CF36                                            
000127b0  __covrec_4BD5C6BAF3982F25                                           
000127d8  __covrec_A9AA554AD604DA08                                           
00012800  __covrec_4D540ADD089969D1                                           
00012828  __covrec_46ECCAB0D20E2D2F                                           
00012850  __covrec_CB2CC41427F04B94                                           
00012878  __covrec_5572EB51769482B6                                           
000128a0  __covrec_6E4F8D8FE46E140F                                           
000128c8  __covrec_A9912E96A4EE2AC4                                           
000128f0  __covrec_D315E5A5ADB42A12                                           
00012918  __covrec_E4075D897982288A                                           
00012940  __covrec_9A9FA4BDCFD67D0F                                           
00012968  __covrec_522A7AAA33520C67                                           
00012990  __covrec_7FAB3DB31A7F9BC4                                           
000129b8  __covrec_AB4E735D825C2932                                           
000129e0  __covrec_A615E945EAE0C03                                            
00012a08  __covrec_FD0A6E2458CC0FAD                                           
00012a30  __covrec_CFFE21ED9DFA8798                                           
00012a58  __covrec_E44F75E1AA52DCEF                                           
00012a80  __covrec_DF2994853A168ADB                                           
00012aa8  __covrec_629BC61C748AAD39                                           
00012ad0  __covrec_457085E76B282B6C                                           
00012af8  __covrec_334BD7A87CCBE1B3                                           
00012b20  __covrec_A30A146324128543                                           
00012b48  __covrec_8B6F54DF424AA4D7                                           
00012b70  __covrec_20C0FEDE50289563                                           
00012b98  __covrec_25E84E7404DEEBBB                                           
00012bc0  __covrec_21D4E69A6502BA1                                            
00012be8  __covrec_8AA416F13D55B683                                           
00012c10  __covrec_1BD924C239483FB4                                           
00012c38  __covrec_CD433A8C325953BC                                           
00012c60  __covrec_919BD1877891C411                                           
00012c88  __covrec_CD83C4AC0A0169E2                                           
00012cb0  __covrec_B27813A7DDBF46D                                            
00012cd8  __covrec_19A8EF313153C479                                           
00012d00  __covrec_658A0406798EE4A3                                           
00012d28  __covrec_6A0345376AE15E64                                           
00012d50  __covrec_4AA97523FC44D7AA                                           
00012d78  __covrec_AE2288C0428D9D90                                           
00012da0  __covrec_E5A77E86D05A371B                                           
00012dc8  __covrec_E41F95FC3CADC35F                                           
00012df0  __covrec_8F09C13CEE95F65F                                           
00012e18  __covrec_3447398A55683CD8                                           
00012e40  __covrec_F6C7EFE189CBDBE5                                           
00012e68  __covrec_91086B65DCC39320                                           
00012e90  __covrec_4134C91BA68EDB6                                            
00012eb8  __covrec_6DF6092064767CAA                                           
00012ee0  __covrec_AC71223011F202FE                                           
00012f08  __covrec_A9E99FBC1469F0EE                                           
00012f30  __covrec_825C2097246D4F9A                                           
00012f58  __covrec_E685E572EC7AFAC8                                           
00012f80  __covrec_3DA3843A27A81DD6                                           
00012fa8  __covrec_F75FD25169461EA7                                           
00012fd0  __covrec_A76AA477A7364808                                           
00012ff8  __covrec_83854F1EF683B63C                                           
00013020  __covrec_8ECDB072589C3D63                                           
00013048  __covrec_EE3B624BA76DF02u                                           
00013078  __covrec_8A9FB042CC4F2B10u                                          
000130d0  __covrec_347F5236CD6A8821u                                          
000132f0  __covrec_C7CF69551785A508u                                          
00013330  __covrec_73D06BFCEB79115Fu                                          
000133b0  __covrec_4E1A7F59973ACCB2u                                          
00013400  __covrec_F99B5A9295D4E4A4u                                          
00013430  __covrec_CD4A8BBF42B93D9Du                                          
00013480  __covrec_BEEFAD7D9530066Eu                                          
000134c0  __covrec_8DCACE79A3C220A9u                                          
00013510  __covrec_9613F930BEF71DDDu                                          
00013550  __covrec_A5A75A50A6681C5Cu                                          
00013588  __covrec_57CDA72D04A5E694u                                          
000135c0  __covrec_DD2DAE6733804F42u                                          
000135e8  __covrec_6497BFE2A00B8653u                                          
00013610  __covrec_90C9B803289D8B5Bu                                          
00013648  __covrec_CAC374A65142BF09u                                          
00013688  __covrec_52DA6B89AFD9BEEFu                                          
000136b0  __covrec_D7DFE1844D8B0F8Cu                                          
000136e8  __covrec_B44C2FD68F1F000Au                                          
00013718  __covrec_754DE0ABC1699C52u                                          
00013750  __covrec_BE2747E0B77C11DCu                                          
00013788  __covrec_A72580571A0F056Du                                          
000137c0  __covrec_AFB7312F1F304372u                                          
00013808  __covrec_60BB75E91683A620u                                          
00013840  __covrec_9A4402462CFB25DF                                           
00013868  __covrec_46BEBFAC6345CB29                                           
00013890  __covrec_FF2F71DB13F48ED9                                           
000138b8  __covrec_A817DEA7EA22BFD4                                           
000138e0  __covrec_D7C7FD587CF7F27E                                           
00013908  __covrec_64798FC843A57EC4                                           
00013930  __covrec_FF3F3C37D1ECEF0E                                           
00013958  __covrec_365DCC393F100621                                           
00013980  __covrec_C0751327896BCD4C                                           
000139a8  __covrec_4378EEF47529ACB7                                           
000139d0  __covrec_4442015EC0C5EEBB                                           
000139f8  __covrec_9672CC8BFCA5E55F                                           
00013a20  __covrec_107802700ECD7C02                                           
00013a48  __covrec_166C82B5B146B5D7                                           
00013a70  __covrec_8833BE5CC8D8CD39                                           
00013a98  __covrec_E570407CEC6CB7F0                                           
00013ac0  __covrec_AE0BED86C6A7FF8E                                           
00013ae8  __covrec_547CF9FBFA8DAB2                                            
00013b10  __covrec_C9152F537137F215                                           
00013b38  __covrec_78A6620B2B654D40                                           
00013b60  __covrec_D68C7935EACE4A97                                           
00013b88  __covrec_54BFE4BB339D82FA                                           
00013bb0  __covrec_754324FB8D9A7A07                                           
00013bd8  __covrec_3FD1311A037EBF95                                           
00013c00  __covrec_31B0598EDF1F8AA0                                           
00013c28  __covrec_A04768BF98A46F04                                           
00013c50  __covrec_2ADD8BD0BF6DAA7F                                           
00013c78  __covrec_7E833D27BC76F69                                            
00013ca0  __covrec_1313DC5687DCCBE4                                           
00013cc8  __covrec_A1138DE5EAE933DC                                           
00013cf0  __covrec_75F1BF7FBDDFEB47                                           
00013d18  __covrec_F6DE419292C4B531                                           
00013d40  __covrec_6041B4936B66AE76                                           
00013d68  __covrec_38A0CEE2744B092C                                           
00013d90  __covrec_98A9B8719202C524                                           
00013db8  __covrec_724B69EBC536E402                                           
00013de0  __covrec_8BB0E9BD6752B68F                                           
00013e08  __covrec_D5B4CC8656A701E4                                           
00013e30  __covrec_260485F951D8CFA2                                           
00013e58  __covrec_831E1A4E4267625                                            
00013e80  __covrec_8A64EB646297B7C9                                           
00013ea8  __covrec_4C80DA44FB3A96A9                                           
00013ed0  __covrec_C637502431AE366C                                           
00013ef8  __covrec_F87F2A62EAC8F4FB                                           
00013f20  __covrec_DEECC6CD28815579                                           
00013f48  __covrec_6772213A314354D1                                           
00013f70  __covrec_5DF05A020DDAC415                                           
00013f98  __covrec_8CC88C2980D5E8E7                                           
00013fc0  __covrec_688EB108228CD2D5                                           
00013fe8  __covrec_FB54D5102C521951                                           
00014010  __covrec_B27A7CC7DFBAAB69                                           
00014038  __covrec_2B9ED78528214928                                           
00014060  __covrec_7A9D5D7B9AB5F84B                                           
00014088  __covrec_F9850F6D40ADE08F                                           
000140b0  __covrec_76904C01277EB08D                                           
000140d8  __covrec_2429638F3104CEC6                                           
00014100  __covrec_FDD8526D2A93F33C                                           
00014128  __covrec_9371DF3BA7A24845                                           
00014150  __covrec_4A7ED0D2F2AEA5EE                                           
00014178  __covrec_10D83D798DF85215                                           
000141a0  __covrec_E7E547A68226B4AD                                           
000141c8  __covrec_22D092EAE16D02EF                                           
000141f0  __covrec_3A26CCF0B62A8E89                                           
00014218  __covrec_927B310F26D3C792                                           
00014240  __covrec_5F8A9EEA556599FE                                           
00014268  __covrec_B9537AAE86C9A6BD                                           
00014290  __covrec_24D80F5FFDB3B16                                            
000142b8  __covrec_C72CDDA90EDC4BAD                                           
000142e0  __covrec_153C71C9353F6537                                           
00014308  __covrec_C165DBE4DFA429BB                                           
00014330  __covrec_3C4C09DA7A2DAAD2                                           
00014358  __covrec_F4D430A9AC32DC03                                           
00014380  __covrec_6286C85827C38416                                           
000143a8  __covrec_172B59B25D72358A                                           
000143d0  __covrec_B7020FE632FE5CBA                                           
000143f8  __covrec_AC85984330425F4                                            
00014420  __covrec_93B792D30284781D                                           
00014448  __covrec_17F9955224B25587                                           
00014470  __covrec_36AB183A395E4CAF                                           
00014498  __covrec_D682D97A67E8CF22                                           
000144c0  __covrec_1BC9AF92F5A17ABA                                           
000144e8  __covrec_96B898C1AEF5ABFE                                           
00014510  __covrec_7F5390900BC1E039                                           
00014538  __covrec_76E4256734D158F0                                           
00014560  __covrec_D41E15BD3C137045                                           
00014588  __covrec_D4A58762ABE74B26                                           
000145b0  __covrec_536847D883D87D6E                                           
000145d8  __covrec_D2FBD09CF9175ADA                                           
00014600  __covrec_5C3E23360D9CC29D                                           
00014628  __covrec_392FECAD18A74184                                           
00014650  __covrec_EA38372D951F349C                                           
00014678  __covrec_FEC5D3DE69CA8E17                                           
000146a0  __covrec_174915AB4E2EDF5C                                           
000146c8  __covrec_39C130C9E557E548                                           
000146f0  __covrec_8B65E50AD9B90CB2                                           
00014718  __covrec_51BBACEB942ABDE0                                           
00014740  __covrec_3325AABB0D89DD6E                                           
00014768  __covrec_E8917193E5FEF053                                           
00014790  __covrec_31B1F8CB4704B234                                           
000147b8  __covrec_CD2ABFA5EBEDE95E                                           
000147e0  __covrec_945B320FDD26C251                                           
00014808  __covrec_DC3FCB1CD0B907FA                                           
00014830  __covrec_843E4D1E9BF6B555                                           
00014858  __covrec_E6B1F129216596D                                            
00014880  __covrec_E1A6791F0E05F114                                           
000148a8  __covrec_BC45A73D645FD3FC                                           
000148d0  __covrec_7B0D1997C0B96950                                           
000148f8  __covrec_4EC6A12FB13E3388                                           
00014920  __covrec_F0BB4BC77CD8C0EB                                           
00014948  __covrec_4600AE4381D2A14B                                           
00014970  __covrec_ECF55B1F21E4B275                                           
00014998  __covrec_B11B2EE5DD5BF989                                           
000149c0  __covrec_9CE83C69FDCAB33F                                           
000149e8  __covrec_8D041F01DCFF76E9                                           
00014a10  __covrec_6BD34685A631A1D6                                           
00014a38  __covrec_8C68376B81A654D                                            
00014a60  __covrec_6C6F66E03D089E18                                           
00014a88  __covrec_DB095F1DF7361C4                                            
00014ab0  __covrec_17E07C5FF5F82422                                           
00014ad8  __covrec_5C2CCE1E95C8ED88                                           
00014b00  __covrec_68D7D6BD174BD691                                           
00014b28  __covrec_1A3FA77D293B3485                                           
00014b50  __covrec_6984BC0E4025AAAD                                           
00014b78  __covrec_B9B5FC828B38D38D                                           
00014ba0  __covrec_3DC72BA4C9ECB1F9                                           
00014bc8  __covrec_F65571CE4E3F88C                                            
00014bf0  __covrec_CC106C1DC2E570F1                                           
00014c18  __covrec_A35E9CF26F2BDBBC                                           
00014c40  __covrec_2A8B557658325237                                           
00014c68  __covrec_338D56CED01B062B                                           
00014c90  __covrec_9FD05553BDBB26A0                                           
00014cb8  __covrec_45D841902927495C                                           
00014ce0  __covrec_2D13BBFC3A449323                                           
00014d08  __covrec_D601B461E1A36E5E                                           
00014d30  __covrec_753F40F7B964E92B                                           
00014d58  __covrec_D94C1F618B4FD7E8                                           
00014d80  __covrec_A582FD26365EDEB5                                           
00014da8  __covrec_DF2ACD149E3EC26B                                           
00014dd0  __covrec_BD0209660F1F417F                                           
00014df8  __covrec_7A071E65D3316B74                                           
00014e20  __covrec_9BED06F3F05054A7                                           
00014e48  __covrec_97FE914C95D2847E                                           
00014e70  __covrec_6A0D657EAAFA6D83                                           
00014e98  __covrec_B99C443DB87550BB                                           
00014ec0  __covrec_FBE2FAF21937296B                                           
00014ee8  __covrec_826D827693E26F8E                                           
00014f10  __covrec_982A03B6F4015226                                           
00014f38  __covrec_1CC14C8A376E03E3                                           
00014f60  __covrec_33562C81DF7B10BF                                           
00014f88  __covrec_6BF83EE06BDBD2E2                                           
00014fb0  __covrec_2A5F24567CA81B28                                           
00014fd8  __covrec_E0EAD5EDA1401596                                           
00015000  __covrec_AD57993B2D1B4ADD                                           
00015028  __covrec_AFA442495C6D179E                                           
00015050  __covrec_CC76C5EF96D89539                                           
00015078  __covrec_F17DC41AD5655B1D                                           
000150a0  __covrec_C17BEFE86E29456D                                           
000150c8  __covrec_E2F64C6B079FF5AB                                           
000150f0  __covrec_A60CE06FA61792A8                                           
00015118  __covrec_245CEEBD24015B1F                                           
00015140  __covrec_16F02D052FF565BE                                           
00015168  __covrec_5EF187E37416A4F9                                           
00015190  __covrec_8B1AB1F5C66D6D39                                           
000151b8  __covrec_AEF580CD966715F9                                           
000151e0  __covrec_8ADC157C3BA0D74                                            
00015208  __covrec_E748C901CEE0C64                                            
00015230  __covrec_36CAFF9A6A4269C6                                           
00015258  __covrec_C66DD2C07ECA2C23                                           
00015280  __covrec_A94C22CB595C43D7                                           
000152a8  __covrec_2356CFAA058BDA63                                           
000152d0  __covrec_ACC0C4F85F9EECDE                                           
000152f8  __covrec_FF79AF72E78DEE41                                           
00015320  __covrec_C4A3B254D2D9F398                                           
00015348  __covrec_51DD21FD505FE478                                           
00015370  __covrec_3C422C657214FCF6                                           
00015398  __covrec_E87D88B23CD18670                                           
000153c0  __covrec_82D68F70652044A4                                           
000153e8  __covrec_904ACE8D0D9342BF                                           
00015410  __covrec_67DA54DDFC65307F                                           
00015438  __covrec_8EF895267F5CDD60                                           
00015460  __covrec_2D61228427B0BF14                                           
00015488  __covrec_AD7F2294BFBEBDD6                                           
000154b0  __covrec_C8956EA37A365FE5                                           
000154d8  __covrec_5A3EEBA233C7FD36                                           
00015500  __covrec_5EEB11B587254FC6                                           
00015528  __covrec_9D61967B1604A9FF                                           
00015550  __covrec_759DA5659B0848DA                                           
00015578  __covrec_51932377A8B429F2                                           
000155a0  __covrec_B4C2F0FEBCAF2F60                                           
000155c8  __covrec_A23437AA47C4156F                                           
000155f0  __covrec_DE76C20852CC2132                                           
00015618  __covrec_614A14DB5C7FA19C                                           
00015640  __covrec_5F54C48325B5A57F                                           
00015668  __covrec_87C9BEA1359FC9A0                                           
00015690  __covrec_99723926C2A9DDD1                                           
000156b8  __covrec_2662EFE42B16DEE1                                           
000156e0  __covrec_B24530735833F91C                                           
00015708  __covrec_C36BC5DC6B7BAC00                                           
00015730  __covrec_AB53902A6CB08F7A                                           
00015758  __covrec_9684DC37DE1EE5D0                                           
00015780  __covrec_6FA5483804028977                                           
000157a8  __covrec_37752C52AA74DBFE                                           
000157d0  __covrec_3B3A4AD98C182DE4                                           
000157f8  __covrec_9F301B3FF3F09194                                           
00015820  __covrec_D15FC9E9035023E4                                           
00015848  __covrec_32F0D770382D1DA9                                           
00015870  __covrec_333383517C1FF008                                           
00015898  __covrec_C820D13AAADDFBF9                                           
000158c0  __covrec_81193C19F1226052                                           
000158e8  __covrec_F623BD0F22F6A4D                                            
00015910  __covrec_CBFAAF6E85E67C2A                                           
00015938  __covrec_3D0A3FF0C21D6472                                           
00015960  __covrec_B1FB48C95F950150                                           
00015988  __covrec_755B8BFE980A79C2                                           
000159b0  __covrec_AD930365B8D74045                                           
000159d8  __covrec_8546DDDFA9C4DAA6                                           
00015a00  __covrec_74BCAFA8ECADE0A0                                           
00015a28  __covrec_5F2C4E1FA0B9AA98                                           
00015a50  __covrec_4BCFC91C4159B7BB                                           
00015a78  __covrec_6BDA03C7088A51E1                                           
00015aa0  __covrec_8EE48BF767F05E71                                           
00015ac8  __covrec_CBD9B5558060A720                                           
00015af0  __covrec_BEA364F8E4F6612A                                           
00015b18  __covrec_24C869B71C1745EC                                           
00015b40  __covrec_EEAE4C8C4CDDB260                                           
00015b68  __covrec_F5BC47E50C3570B4                                           
00015b90  __covrec_83FC5939804F48BE                                           
00015bb8  __covrec_674309A670714414                                           
00015be0  __covrec_3A479AE32438F206                                           
00015c08  __covrec_511C8E60BD52A8FB                                           
00015c30  __covrec_302F2AC2878AEE63                                           
00015c58  __covrec_D55622F88F5226B7                                           
00015c80  __covrec_449CAC6A58F3AD72                                           
00015ca8  __covrec_3EA0432BC3C9FA6C                                           
00015cd0  __covrec_DFB5D1D33A87B86B                                           
00015cf8  __covrec_4351608A646C6B0                                            
00015d20  __covrec_51714BA3B36DEA32                                           
00015d48  __covrec_B5B67982233FDBC                                            
00015d70  __covrec_6DDBBF9D5036FD29                                           
00015d98  __covrec_32E8DB488C68B78D                                           
00015dc0  __covrec_EC974998F0B94BAA                                           
00015de8  __covrec_FFA9859ECBCE5FF5                                           
00015e10  __covrec_C19614860C5B3309                                           
00015e38  __covrec_B3D5A60E04922FE                                            
00015e60  __covrec_4665283335DF6F97                                           
00015e88  __covrec_7462DC7A71D86840                                           
00015eb0  __covrec_86BE7AAE5C9A1D91                                           
00015ed8  __covrec_1AE60D0DA8D77CF0                                           
00015f00  __covrec_E076DE5CF10EA0F6                                           
00015f28  __covrec_FBFF4A8CB46E08B0                                           
00015f50  __covrec_7BB562F45E0D5B23                                           
00015f78  __covrec_358682B259B0A962                                           
00015fa0  __covrec_73DD9FCB2CCA7C8E                                           
00015fc8  __covrec_DED677DADB7BB886                                           
00015ff0  __covrec_259FE72B02F982E3                                           
00016018  __covrec_59FF2B4C942CC8BA                                           
00016040  __covrec_3E5598E6C0B42553                                           
00016068  __covrec_934A4CFD323FFCEA                                           
00016090  __covrec_BE6EA14CE4CA1756                                           
000160b8  __covrec_DC612321FB754968                                           
000160e0  __covrec_2F298529E754A752                                           
00016108  __covrec_2DD25A1E0605CEF0                                           
00016130  __covrec_80DCCF459AA832D6                                           
00016158  __covrec_6EFB6DE4C2F58B43                                           
00016180  __covrec_62C0A1F549FDA73                                            
000161a8  __covrec_CA08C308926F86A5                                           
000161d0  __covrec_75AAF50C859E50CC                                           
000161f8  __covrec_AB18DF03A4278F7C                                           
00016220  __covrec_F0078734676383D6                                           
00016248  __covrec_133E6E5754396960                                           
00016270  __covrec_619272C7739451E2                                           
00016298  __covrec_36371372719FAE20                                           
000162c0  __covrec_F9448A84AD8185BA                                           
000162e8  __covrec_68D88CCC12AD2A3F                                           
00016310  __covrec_AA551E34D18F74A4                                           
00016338  __covrec_831A63E7C251114F                                           
00016360  __covrec_AFCA5308CBE5226                                            
00016388  __covrec_C6E5A9332171B0BC                                           
000163b0  __covrec_889A5AA5ACC834CB                                           
000163d8  __covrec_823F1D2457AF8D4E                                           
00016400  __covrec_34D87877B62187C0                                           
00016428  __covrec_BF2D601022292D70                                           
00016450  __covrec_B6093B1DCE09925C                                           
00016478  __covrec_2B9D588B68FFC9FD                                           
000164a0  __covrec_1F4169E57C49DBAC                                           
000164c8  __covrec_6C58C8CB7A51E29B                                           
000164f0  __covrec_583D9624CEFEF063                                           
00016518  __covrec_AA6FBA67DEF67586                                           
00016540  __covrec_7B4F680C24B702F2                                           
00016568  __covrec_D996028D5A69C6F2                                           
00016590  __covrec_60463F3D453FCBCE                                           
000165b8  __covrec_AF5F32085D968C75                                           
000165e0  __covrec_5E1546171B50C0C5                                           
00016608  __covrec_5AA5C0ECFAA2F10                                            
00016630  __covrec_280C086A8D3E033A                                           
00016658  __covrec_5749A9E4CCC687D1                                           
00016680  __covrec_62A98C93F42CDCD3                                           
000166a8  __covrec_3B9AD5E448524FFF                                           
000166d0  __covrec_B30841581A67FF30                                           
000166f8  __covrec_DD7190B3978EBC39                                           
00016720  __covrec_73B1F7479AB6411A                                           
00016748  __covrec_FE88999DF0EAFFD6                                           
00016770  __covrec_5959C51EAFB0B0AB                                           
00016798  __covrec_E85969F560DDD631                                           
000167c0  __covrec_BE863C686EAC33EF                                           
000167e8  __covrec_C14829C5FDA5D6EA                                           
00016810  __covrec_650B600441780F70                                           
00016838  __covrec_3A36369733F8D5B6                                           
00016860  __covrec_3CC05BCBB89EC8C0                                           
00016888  __covrec_78AD70B3007626BA                                           
000168b0  __covrec_58173AEB70F92F68                                           
000168d8  __covrec_ACDEA53952D33B4F                                           
00016900  __covrec_E08A7D27AEA0B6C4                                           
00016928  __covrec_D85940657E5DE4DF                                           
00016950  __covrec_E67E7DC7B1601F23                                           
00016978  __covrec_36CEC9582B8D65CF                                           
000169a0  __covrec_CBF2E73A32284FE9                                           
000169c8  __covrec_A129DDC39A66AF54                                           
000169f0  __covrec_5C20B4D769B6D32F                                           
00016a18  __covrec_9637A9217038C34B                                           
00016a40  __covrec_BDE4D2739B89D2E9                                           
00016a68  __covrec_6471B342D16BEEB2                                           
00016a90  __covrec_97A00561A864863A                                           
00016ab8  __covrec_F65C7AC0F7EB18B5                                           
00016ae0  __covrec_CE63BEA95B1AAA26                                           
00016b08  __covrec_64CC73B6A273C4C6                                           
00016b30  __covrec_9BB5C9E7D8F22F76                                           
00016b58  __covrec_B52663DA78115B23                                           
00016b80  __covrec_65CF7FB8BFC9DCA0                                           
00016ba8  __covrec_4B1752517A897C5                                            
00016bd0  __covrec_D9D1CA770677649C                                           
00016bf8  __covrec_DA73F3FA2202180A                                           
00016c20  __covrec_433BCD6A7AE9A476                                           
00016c48  __covrec_E701EA8D7F416EB9                                           
00016c70  __covrec_5333A61D2C451B71                                           
00016c98  __covrec_910A6D471848A06A                                           
00016cc0  __covrec_AA7C108880CD93D6                                           
00016ce8  __covrec_93AB60BEB75C916D                                           
00016d10  __covrec_A0DAA40F9ED6261A                                           
00016d38  __covrec_657DCEB9CBC9A15                                            
00016d60  __covrec_23A2723218FB953F                                           
00016d88  __covrec_3BB04CDDF195DCC8                                           
00016db0  __covrec_37BBD65DD58D473                                            
00016dd8  __covrec_75F48255A7DB16EE                                           
00016e00  __covrec_50443E9660573DAD                                           
00016e28  __covrec_E960579F8AE392F0                                           
00016e50  __covrec_B98076446EF295FD                                           
00016e78  __covrec_CF07008B357FC16E                                           
00016ea0  __covrec_94E6AF6193706E7F                                           
00016ec8  __covrec_BA9D085EEB283A31                                           
00016ef0  __covrec_A1ADEE0AAE7AB6EF                                           
00016f18  __covrec_887A079051E440D0                                           
00016f40  __covrec_4F2301F1873D147E                                           
00016f68  __covrec_F3F4BEC6FC4C603                                            
00016f90  __covrec_8A1E5EF64B22B12B                                           
00016fb8  __covrec_D0FDD256AE50233D                                           
00016fe0  __covrec_4FE47ABC0D76B93E                                           
00017008  __covrec_D9DF300B9FB82770                                           
00017030  __covrec_EBD4B15D669FF5C6                                           
00017058  __covrec_7092067BD5916200                                           
00017080  __covrec_87E2C683173C05DA                                           
000170a8  __covrec_FAB52BFBB5CA2B3                                            
000170d0  __covrec_B065FF55E74FCCD1                                           
000170f8  __covrec_3BEB96B4128A074A                                           
00017120  __covrec_E4B0626E416B19B5                                           
00017148  __covrec_49838A933E918F6A                                           
00017170  __covrec_735D7B941E383EA1                                           
00017198  __covrec_DC44040CD5577CAF                                           
000171c0  __covrec_4125B57286A5529                                            
000171e8  __covrec_E98E4523C76567FC                                           
00017210  __covrec_5284D5E45F2661CB                                           
00017238  __covrec_3660EF20DA7A07C2                                           
00017260  __covrec_A423D128DFA778BC                                           
00017288  __covrec_25B72A3D7BD5840F                                           
000172b0  __covrec_3A1D4C8225602426                                           
000172d8  __covrec_4F98EC9A5D6C22FC                                           
00017300  __covrec_7E094802DB2C7872                                           
00017328  __covrec_1B9CA30A65B78731                                           
00017350  __covrec_B7F8AA0A75D437ED                                           
00017378  __covrec_106C0A8F47E4EBF5                                           
000173a0  __covrec_7228F69D8F36EB6F                                           
000173c8  __covrec_328AFB179A26404D                                           
000173f0  __covrec_329ACE27EDB24189                                           
00017418  __covrec_7B1BF4E8C50F2A0D                                           
00017440  __covrec_78597822E22CC415                                           
00017468  __covrec_BD5CC9630DBCBBE9                                           
00017490  __covrec_41AEBAB8BD1FD2DB                                           
000174b8  __covrec_5F8EB310E228C202                                           
000174e0  __covrec_BA12879443A2327D                                           
00017508  __covrec_9329FD48AB2E1274                                           
00017530  __covrec_9C5BA9E739FA244E                                           
00017558  __covrec_E49524A10E027AC6                                           
00017580  __covrec_E30F78146A77D9A7                                           
000175a8  __covrec_24DBDAA504A8EB                                             
000175d0  __covrec_B158C101AA167696                                           
000175f8  __covrec_25644B6D8D9339A2                                           
00017620  __covrec_2E459FB28F5F2122                                           
00017648  __covrec_140C87832FFAF923                                           
00017670  __covrec_C6C59DFD81F45453                                           
00017698  __covrec_70073D59154FBB90                                           
000176c0  __covrec_9C553D2B368997E4                                           
000176e8  __covrec_600121E2FBDF7D4E                                           
00017710  __covrec_C0AA7AE1236408C6                                           
00017738  __covrec_61EA836F28914C82                                           
00017760  __covrec_5B5EF01BC99E5A86                                           
00017788  __covrec_D46C6760916F836A                                           
000177b0  __covrec_EBB9657C4CBDFB97                                           
000177d8  __covrec_A5C15D890B087722                                           
00017800  __covrec_8BE702C3BEFDEA81                                           
00017828  __covrec_79080B738D71DCA0                                           
00017850  __covrec_C03E22A2F6E2E4EF                                           
00017878  __covrec_E9006A34444A2A37                                           
000178a0  __covrec_80EFDD160ECC63A5                                           
000178c8  __covrec_79177773D074D56A                                           
000178f0  __covrec_31FD0D502C5066BA                                           
00017918  __covrec_6A1E7BC147A9A584                                           
00017940  __covrec_FD6EFDF54A7E61F9                                           
00017968  __covrec_70EC87587136D382                                           
00017990  __covrec_6498EABD08FE2134                                           
000179b8  __covrec_920260ADD4BAECEC                                           
000179e0  __covrec_E96F6C670CC524BB                                           
00017a08  __covrec_F1E83CA2B0CD6A20                                           
00017a30  __covrec_A14E5249FF6D9B73                                           
00017a58  __covrec_CF30B3F8389553FA                                           
00017a80  __covrec_D9BFBE2790C83171                                           
00017aa8  __covrec_192A7CE8DD30AE20                                           
00017ad0  __covrec_3F3F06B0DE5DFDFD                                           
00017af8  __covrec_9AC3CF09EF2C674                                            
00017b20  __covrec_ABA022C0A714032                                            
00017b48  __covrec_C93E92B492002ABF                                           
00017b70  __covrec_347D20A347D54D3B                                           
00017b98  __covrec_B26FE818C9BBF2BF                                           
00017bc0  __covrec_70226340E9DAF01A                                           
00017be8  __covrec_36C64B2F466F1472                                           
00017c10  __covrec_5DCBC94E2F239EF0                                           
00017c38  __covrec_F2618F42DC968004                                           
00017c60  __covrec_F454D8ABE2DC2387                                           
00017c88  __covrec_2A736453A4775CC3                                           
00017cb0  __covrec_79D6AA16F231D6E                                            
00017cd8  __covrec_F555D7D565E23141                                           
00017d00  __covrec_6D31441440B2B830                                           
00017d28  __covrec_44C5379EEB9C4                                              
00017d50  __covrec_40835A27C3B3C9BC                                           
00017d78  __covrec_D9B5BBF5883ABD67                                           
00017da0  __covrec_E25E3C69A2C093FE                                           
00017dc8  __covrec_5B4547B2E6288EA9                                           
00017df0  __covrec_601FDE1BE8C6AAE0                                           
00017e18  __covrec_1D5453C0FE32606E                                           
00017e40  __covrec_862F74E5EAEB7D2C                                           
00017e68  __covrec_B09D4FD458CDE129                                           
00017e90  __covrec_15599278F6628FD9                                           
00017eb8  __covrec_E3CF855287A82BEC                                           
00017ee0  __covrec_174F15FCCDC74864                                           
00017f08  __covrec_A78911E3D047929E                                           
00017f30  __covrec_5B93A986E69D6689                                           
00017f58  __covrec_9E844E7AE3CA768E                                           
00017f80  __covrec_C31D13C77667C7D8                                           
00017fa8  __covrec_476992FF089351FB                                           
00017fd0  __covrec_1DA2DF1D9481285F                                           
00017ff8  __covrec_960AA1E8FBB5B563                                           
00018020  __covrec_48B35313DF575FFA                                           
00018048  __covrec_ADC012B52C9206AC                                           
00018070  __covrec_FDFA5CAFBD69AC08                                           
00018098  __covrec_B1C3981F9634D369                                           
000180c0  __covrec_322133A61A45AB4E                                           
000180e8  __covrec_697D5C899E463194                                           
00018110  __covrec_FF6BB409FA34F363                                           
00018138  __covrec_85D07076A9880596                                           
00018160  __covrec_E4D053578B19A849                                           
00018188  __covrec_33066D15E3040297                                           
000181b0  __covrec_B3FCF4E02B6C0FD4                                           
000181d8  __covrec_EA2293814417AE2                                            
00018200  __covrec_11E4D0BB9C3E8C30                                           
00018228  __covrec_6C6D0F2F16F1F38D                                           
00018250  __covrec_AD047280576A3B69                                           
00018278  __covrec_DE7AA2ACCED77C8                                            
000182a0  __covrec_B15D06C22FEC71D9                                           
000182c8  __covrec_1707DC81A21DBC1C                                           
000182f0  __covrec_168493D43873B111                                           
00018318  __covrec_5CDB53EB55DAC376                                           
00018340  __covrec_929C3D7BA5E7A98D                                           
00018368  __covrec_4DE3D6A3E8BDB070                                           
00018390  __covrec_25E129209C6D6E08                                           
000183b8  __covrec_6450FD0A03211B5F                                           
000183e0  __covrec_619C2FAE5D265277                                           
00018408  __covrec_B253B33871D9C4D2                                           
00018430  __covrec_858246B40FF97B3A                                           
00018458  __covrec_D47BE27B68D57C53                                           
00018480  __covrec_47FB578411340773                                           
000184a8  __covrec_9C2775F1FB7FD0B3                                           
000184d0  __covrec_4372B022B5546D6B                                           
000184f8  __covrec_5767CF3A670B399C                                           
00018520  __covrec_48DB928E5EA29731                                           
00018548  __covrec_3163B63F3B49E158                                           
00018570  __covrec_B63BB6869D812CAF                                           
00018598  __covrec_BF99175D50CA1867                                           
000185c0  __covrec_622C64949E26680D                                           
000185e8  __covrec_E77E74F8DA2AF574                                           
00018610  __covrec_E8170BC21DBCAFEB                                           
00018638  __covrec_D9DA8721215694F0                                           
00018660  __covrec_FBABB1CFAA0837B                                            
00018688  __covrec_8BA3D2C2EDECD73D                                           
000186b0  __covrec_3838EAEF37C9B024                                           
000186d8  __covrec_2B07AC81363554B8                                           
00018700  __covrec_AECF195AE0C883E0                                           
00018728  __covrec_69790632A0BC140D                                           
00018750  __covrec_17302E52AA89C0CD                                           
00018778  __covrec_18ACCAC5D58EF3D4                                           
000187a0  __covrec_BC1E770725353BFE                                           
000187c8  __covrec_57DC8F9B3C4337A2                                           
000187f0  __covrec_9712907A002D60F7                                           
00018818  __covrec_18ACAD82B94D6601                                           
00018840  __covrec_CA8DBCD54A2B28B1                                           
00018868  __covrec_7B7E33D7E8902EE6                                           
00018890  __covrec_71DB72C3301D9EA2                                           
000188b8  __covrec_7E3C84C442B06ADC                                           
000188e0  __covrec_B7FE008276F99331                                           
00018908  __covrec_1267B4521C0A50E3                                           
00018930  __covrec_14D1DCA4E67C18C5                                           
00018958  __covrec_79E89AE24E1E33A3                                           
00018980  __covrec_F6A64CBDA47317FD                                           
000189a8  __covrec_8D4838020815225E                                           
000189d0  __covrec_8040F2CFD3D473A4                                           
000189f8  __covrec_BE5A92894152D5DE                                           
00018a20  __covrec_22AA610D5E826481                                           
00018a48  __covrec_BB50BDBE0E77D3AD                                           
00018a70  __covrec_8E0F7C647D51BFD2                                           
00018a98  __covrec_E1530E7A17298A76                                           
00018ac0  __covrec_D895D93EA590B5A1                                           
00018ae8  __covrec_6EE2BF9459318274                                           
00018b10  __covrec_C3A1DC3CF32D203A                                           
00018b38  __covrec_39BD400369155FF7                                           
00018b60  __covrec_9255662AF750EBBF                                           
00018b88  __covrec_4474B8D0BC074C04                                           
00018bb0  __covrec_CFF4B1D49D637D05                                           
00018bd8  __covrec_BB9DB7256D55E22C                                           
00018c00  __covrec_726A5C9D52F7F5E7                                           
00018c28  __covrec_40C3C35157F185E9                                           
00018c50  __covrec_BB43D7D806F4CBD6                                           
00018c78  __covrec_66FCC1F75E2E4197                                           
00018ca0  __covrec_99992A15E457B36F                                           
00018cc8  __covrec_B8D875108F459ADA                                           
00018cf0  __covrec_8DFC72E8925CC73                                            
00018d18  __covrec_8D1AA427298D1344                                           
00018d40  __covrec_BA1ECAA1A7696E1A                                           
00018d68  __covrec_EB354C3B55D00E6E                                           
00018d90  __covrec_6D66CFB74E90B79C                                           
00018db8  __covrec_41838BAC8E2D2787                                           
00018de0  __covrec_84E26731CB5A9EAC                                           
00018e08  __covrec_27F653CEA4118248                                           
00018e30  __covrec_9455C9786A09CB57                                           
00018e58  __covrec_30ED4319F76DB893                                           
00018e80  __covrec_EC14A2237089E2CD                                           
00018ea8  __covrec_B2DF3A96F478E43B                                           
00018ed0  __covrec_D5253C2D081AEC51                                           
00018ef8  __covrec_CD3F17D62E99D72F                                           
00018f20  __covrec_611766D475D70993                                           
00018f48  __covrec_778D7F40FA03F2E9                                           
00018f70  __covrec_406378224CE7840F                                           
00018f98  __covrec_2286D5FF0FC802ED                                           
00018fc0  __covrec_CA685C0901188451                                           
00018fe8  __covrec_B2E7260EC55D2713                                           
00019010  __covrec_E114898DAAA5BEF6                                           
00019038  __covrec_F4A6E46EEBB7430F                                           
00019060  __covrec_D163700B248786AA                                           
00019088  __covrec_3D5160002BBF26F9                                           
000190b0  __covrec_436280033B12932A                                           
000190d8  __covrec_DE34EC45D2197840                                           
00019100  __covrec_A178521A967058F3                                           
00019128  __covrec_B869702795BA3180                                           
00019150  __covrec_F86E8E4C58460891                                           
00019178  __covrec_6100AF97F9A9E9F7                                           
000191a0  __covrec_96AA8D61B3A8DA35                                           
000191c8  __covrec_E3C48853351D961                                            
000191f0  __covrec_FB1D8691C0553F                                             
00019218  __covrec_23BDC91C28D00DEB                                           
00019240  __covrec_61840838A007A7EE                                           
00019268  __covrec_CF1DAB8B6A2AA843                                           
00019290  __covrec_C8340AF3DD76DEA5                                           
000192b8  __covrec_5341AC3ACCD56D5A                                           
000192e0  __covrec_CE081AE001D392A7                                           
00019308  __covrec_61C676D4F7B32687                                           
00019330  __covrec_65FB37FD3ECB0783                                           
00019358  __covrec_1F81DC0331A088EE                                           
00019380  __covrec_EEEC5419627FC981                                           
000193a8  __covrec_D3BCCDBD67187C42                                           
000193d0  __covrec_46EDCBBEAFD38B16                                           
000193f8  __covrec_A72768145C3B258D                                           
00019420  __covrec_2597CFE535DF7925                                           
00019448  __covrec_C268EEC39DA3B21C                                           
00019470  __covrec_D9DDA3EAD197CE88                                           
00019498  __covrec_D1A6617A5EDDDD2C                                           
000194c0  __covrec_366594CABF5FBBE1                                           
000194e8  __covrec_FACA0D83EF2252D9                                           
00019510  __covrec_E5BADA89A063A7FE                                           
00019538  __covrec_ECA9C1C44D4A3387                                           
00019560  __covrec_E40BD4FBEC9475E                                            
00019588  __covrec_8D17775B98F2D331                                           
000195b0  __covrec_F31B4D53596DC8E7                                           
000195d8  __covrec_E18B4A3D28292E1                                            
00019600  __covrec_2E714EFCCE61715E                                           
00019628  __covrec_7ACF2422A306985E                                           
00019650  __covrec_B25D5E7D963D0469                                           
00019678  __covrec_CD52D5354BACA035                                           
000196a0  __covrec_D0C19A2C829A1D55                                           
000196c8  __covrec_D70154E3E201FB1                                            
000196f0  __covrec_6CC6679ECBEE14F9                                           
00019718  __covrec_7291D6678338BC48                                           
00019740  __covrec_8EBE3C0B375841A4                                           
00019768  __covrec_BB7CDB87DF7DC393                                           
00019790  __covrec_2B5FFCF4F8CB86BC                                           
000197b8  __covrec_D954D0998E13AAD4                                           
000197e0  __covrec_883C1BD346B3B6A7                                           
00019808  __covrec_7BEAFE9253C2DC91                                           
00019830  __covrec_FEDB316D835D59CB                                           
00019858  __covrec_3D25EC3DE4E423F3                                           
00019880  __covrec_8C3011EFB7930608                                           
000198a8  __covrec_E83844EB97E41293                                           
000198d0  __covrec_E34511D25E36A244                                           
000198f8  __covrec_831EB062A57A0618                                           
00019920  __covrec_63D016BC5F283A2B                                           
00019948  __covrec_F69D3E0B112353E9                                           
00019970  __covrec_5942973784CEEA25                                           
00019998  __covrec_3AF95226F44434B7                                           
000199c0  __covrec_3CFE3402D2666528                                           
000199e8  __covrec_A7959569B6A5A56F                                           
00019a10  __covrec_82D6940BA8D59531                                           
00019a38  __covrec_15E9C88B8913D74B                                           
00019a60  __covrec_3AAA2A3C5CE52BA3                                           
00019a88  __covrec_89DB25962A5EB408                                           
00019ab0  __covrec_66E9970543670AE8                                           
00019ad8  __covrec_E65B615C74CEBB96                                           
00019b00  __covrec_EABD2DB4D7FE38C3                                           
00019b28  __covrec_BF6A0C809C015679                                           
00019b50  __covrec_59EA745BFA1ABDC0                                           
00019b78  __covrec_78426C8A160B6351                                           
00019ba0  __covrec_4B5ADC67ED6C8790                                           
00019bc8  __covrec_C9E60D5E928F5EEC                                           
00019bf0  __covrec_E9CD8EC02240DD72                                           
00019c18  __covrec_6769A1B6579C1917                                           
00019c40  __covrec_9C93726BBC48186D                                           
00019c68  __covrec_92B52E0B3366C97                                            
00019c90  __covrec_22F1260B2ECCC08F                                           
00019cb8  __covrec_1D8009E1123EFE18                                           
00019ce0  __covrec_B329A0B3FCA532E3                                           
00019d08  __covrec_810D579CAA1E6A5D                                           
00019d30  __covrec_D35B061DD72A8133                                           
00019d58  __covrec_208E88AD446ED6FF                                           
00019d80  __covrec_8656F45CC3A9BD8D                                           
00019da8  __covrec_AE6F1168B53990C8                                           
00019dd0  __covrec_ED5378248E071109                                           
00019df8  __covrec_7C1807FD8A2400E0                                           
00019e20  __covrec_D8357A951D6CC3AD                                           
00019e48  __covrec_67345CC240590D89                                           
00019e70  __covrec_E0575EF810248D3C                                           
00019e98  __covrec_86EFB8D70E3195D9                                           
00019ec0  __covrec_20502D4EF27C8C51                                           
00019ee8  __covrec_BAFF080CE41F419B                                           
00019f10  __covrec_50E1A630398A4DB2                                           
00019f38  __covrec_D0F6FDA3D53C6FE4                                           
00019f60  __covrec_6EEA99F60149DC25                                           
00019f88  __covrec_217DB9DBC67C1EFE                                           
00019fb0  __covrec_2C5B3AD84DE89A09                                           
00019fd8  __covrec_331725AF5DF50438                                           
0001a000  __covrec_29CB61A807DB331C                                           
0001a028  __covrec_EB884DF891B7C0B5                                           
0001a050  __covrec_AB271BB12C7B2E99                                           
0001a078  __covrec_FBDF9DFB9E695E89                                           
0001a0a0  __covrec_78E44053E051208B                                           
0001a0c8  __covrec_1409994ABADCA9DB                                           
0001a0f0  __covrec_80FFFF73B4ABC887                                           
0001a118  __covrec_10D7C14A5E1269A                                            
0001a140  __covrec_230E01EBA14683DA                                           
0001a168  __covrec_75E3E8E045B77C3                                            
0001a190  __covrec_9CDBAE3A4C8F2B61                                           
0001a1b8  __covrec_EB5AED9D23042DB4                                           
0001a1e0  __covrec_61449AE38B530A4                                            
0001a208  __covrec_E2BACE41E30617A9                                           
0001a230  __covrec_572E084EA8EAC4C5                                           
0001a258  __covrec_10ACAC719BF92A02                                           
0001a280  __covrec_A0EDF6B61594B5D2                                           
0001a2a8  __covrec_525C3DF9C95B7EC                                            
0001a2d0  __covrec_5A2DEE3595B11481                                           
0001a2f8  __covrec_ADDF4235E39AF004                                           
0001a320  __covrec_43D8C40C41906745                                           
0001a348  __covrec_6FC2A34653C7B741                                           
0001a370  __covrec_538F62B599A02D85                                           
0001a398  __covrec_E4610D219A4ED31                                            
0001a3c0  __covrec_C18C03D15A8F8D51                                           
0001a3e8  __covrec_1528E95DCB01A67C                                           
0001a410  __covrec_2D0041D38F4C7BA8                                           
0001a438  __covrec_53274C6784AC6740                                           
0001a460  __covrec_5CFAB2D619F63C5                                            
0001a488  __covrec_C4CB3B4E9E7F3A34                                           
0001a4b0  __covrec_650D813178C6FBA0                                           
0001a4d8  __covrec_1881D5B34314DF64                                           
0001a500  __covrec_F0026EB50F7B8029                                           
0001a528  __covrec_E343A047350791DF                                           
0001a550  __covrec_C2EA69130D5DE4D6                                           
0001a578  __covrec_4EFD1DA62AB1D0E3                                           
0001a5a0  __covrec_D7983C05E0832327                                           
0001a5c8  __covrec_D171F092417D4735                                           
0001a5f0  __covrec_F13A8066761C463B                                           
0001a618  __covrec_7970AA4372F62F23                                           
0001a640  __covrec_149ACD14E0572626                                           
0001a668  __covrec_7BCFB99D45157AF6                                           
0001a690  __covrec_B23169270BEA3591                                           
0001a6b8  __covrec_1317F30DAB07CEFD                                           
0001a6e0  __covrec_A8A70DDF5F2056BA                                           
0001a708  __covrec_31F7B8F147936BE1                                           
0001a730  __covrec_7D5CB73C05FC6F34                                           
0001a758  __covrec_500923B66EDC1559                                           
0001a780  __covrec_C8F4E67F540B3236                                           
0001a7a8  __covrec_D998495D77F56213                                           
0001a7d0  __covrec_56994D288387D9E1                                           
0001a7f8  __covrec_2E3C982E9C9C353                                            
0001a820  __covrec_CB401E04B85A55F6                                           
0001a848  __covrec_A80BD7A623AB578                                            
0001a870  __covrec_F573A0ADEA913771                                           
0001a898  __covrec_F2C38226B0B6E63B                                           
0001a8c0  __covrec_D04DC704886886C6                                           
0001a8e8  __covrec_D149E6B126AFF09E                                           
0001a910  __covrec_DB2B422DD9C5F163                                           
0001a938  __covrec_642A5D35D62CCC35                                           
0001a960  __covrec_2B68E5DDE2E9662B                                           
0001a988  __covrec_644EE4DEA57C92BA                                           
0001a9b0  __covrec_9189174E9CA856EE                                           
0001a9d8  __covrec_1CA1AE9514CE36B4                                           
0001aa00  __covrec_96AE1425C6CA1E9C                                           
0001aa28  __covrec_3129FF84AE3F76E2                                           
0001aa50  __covrec_AF0B549003A6C852                                           
0001aa78  __covrec_483E582084ED31BD                                           
0001aaa0  __covrec_182EBC3292D8B057                                           
0001aac8  __covrec_9E55FF8E109C4C33                                           
0001aaf0  __covrec_1930B2CB90352D46                                           
0001ab18  __covrec_8D6FF92E7B672D3F                                           
0001ab40  __covrec_DCFDECC609924E0D                                           
0001ab68  __covrec_AB7956570CA67670                                           
0001ab90  __covrec_18DDFB0FE08ED969                                           
0001abb8  __covrec_BD20025876B40285                                           
0001abe0  __covrec_341863ACF88CD371                                           
0001ac08  __covrec_76D4C9D79366C347                                           
0001ac30  __covrec_6964C0ABD1B3D33E                                           
0001ac58  __covrec_E8E82BD5A06CBDFD                                           
0001ac80  __covrec_3435C80BC3722BAD                                           
0001aca8  __covrec_46453BBBC5316FD3                                           
0001acd0  __covrec_79483E28CA94B7B7                                           
0001acf8  __covrec_AB304C8261FDEB8F                                           
0001ad20  __covrec_4D32569C34B2D696                                           
0001ad48  __covrec_8BE10D2019571717                                           
0001ad70  __covrec_BC56D22003F30EB                                            
0001ad98  __covrec_707AD4A7445FB443                                           
0001adc0  __covrec_51A09EDC84208728                                           
0001ade8  __covrec_191831FA0CEE1893                                           
0001ae10  __covrec_352F9E2440E9C139                                           
0001ae38  __covrec_6280E7CD83141F1B                                           
0001ae60  __covrec_859E28C748FFE64C                                           
0001ae88  __covrec_DA78BB48445AA633                                           
0001aeb0  __covrec_1CE8FD9CC832CE68                                           
0001aed8  __covrec_BB37BA4602A701B5                                           
0001af00  __covrec_2239F1A9CC961427                                           
0001af28  __covrec_BC620F117425D53                                            
0001af50  __covrec_DD4A0C4B99122703                                           
0001af78  __covrec_D3555C4264598523                                           
0001afa0  __covrec_B0D24101139E4F24                                           
0001afc8  __covrec_16A0659A24000E67                                           
0001aff0  __covrec_DC3FF53EE745C134                                           
0001b018  __covrec_981A9F8688DAB97D                                           
0001b040  __covrec_DD8F3F4BB452940E                                           
0001b068  __covrec_6A6362E7A2077239                                           
0001b090  __covrec_24DC5A464E150DEB                                           
0001b0b8  __covrec_A0759E883AB3A266                                           
0001b0e0  __covrec_9E26C402F00A2F32                                           
0001b108  __covrec_88AFBC48C36297DD                                           
0001b130  __covrec_16D434825183503F                                           
0001b158  __covrec_AC783881F1762401                                           
0001b180  __covrec_8FA27FFC6507F02D                                           
0001b1a8  __covrec_91A85A47E46E837B                                           
0001b1d0  __covrec_E322092842F7340                                            
0001b1f8  __covrec_7267E5B89742BDEF                                           
0001b220  __covrec_9DD34F2822473557                                           
0001b248  __covrec_CA8C60D3EA5362E1                                           
0001b270  __covrec_B4A7C58ED4F2BBE5                                           
0001b298  __covrec_A56E213FAEA092D9                                           
0001b2c0  __covrec_B1CE96BC945B0CBF                                           
0001b2e8  __covrec_3F67DCC65271B3FF                                           
0001b310  __covrec_F1B36A5B4773B81                                            
0001b338  __covrec_60CD53922E0964B6                                           
0001b360  __covrec_EA87A98CE1D84D5D                                           
0001b388  __covrec_5B7AB3B015354B82                                           
0001b3b0  __covrec_30B7C7B021FF32BD                                           
0001b3d8  __covrec_B871D12F39A6AF36                                           
0001b400  __covrec_C14519F9FADE6C9A                                           
0001b428  __covrec_6A20DA2468D71674                                           
0001b450  __covrec_889B730B19F33BB5                                           
0001b478  __covrec_DD47B775D2BA38FC                                           
0001b4a0  __covrec_AB5B451F3E10B919                                           
0001b4c8  __covrec_1B0D2750B34B1703                                           
0001b4f0  __covrec_E2CB17AF898C3228                                           
0001b518  __covrec_14C92017E2A5AC67                                           
0001b540  __covrec_18C79462758238BA                                           
0001b568  __covrec_57A66E83E0547B4C                                           
0001b590  __covrec_E0574A7F6C7FE9EB                                           
0001b5b8  __covrec_C3F7D722BD7A26A9                                           
0001b5e0  __covrec_C7DC5231AA70BA0F                                           
0001b608  __covrec_CEFB9F7F6D63820E                                           
0001b630  __covrec_CDBF3A5FF7EE087                                            
0001b658  __covrec_15EBD46F714DA966                                           
0001b680  __covrec_4FF6C882AEFBE71                                            
0001b6a8  __covrec_FFFB116B4E183B3A                                           
0001b6d0  __covrec_638756E0999BF942                                           
0001b6f8  __covrec_B7F5FFCDF30CB218                                           
0001b720  __covrec_13150132607A5180                                           
0001b748  __covrec_1F323AB5CF4D4A72                                           
0001b770  __covrec_8196FC9DDEF99D32                                           
0001b798  __covrec_608554DE1C9501C7                                           
0001b7c0  __covrec_F97C6C392C8944F3                                           
0001b7e8  __covrec_B9AB8834A2237901                                           
0001b810  __covrec_E7E7144D5ECBBB5                                            
0001b838  __covrec_BB3928FABB4339BB                                           
0001b860  __covrec_E3518C62E0440A85                                           
0001b888  __covrec_67F252814530E1AE                                           
0001b8b0  __covrec_C8E89BD540C9114F                                           
0001b8d8  __covrec_F42DCE2D205E9019                                           
0001b900  __covrec_74BF17EF8000DDA7                                           
0001b928  __covrec_CD808DC22BF44FE8                                           
0001b950  __covrec_17E08951EDF009B4                                           
0001b978  __covrec_CE07E47036E86558                                           
0001b9a0  __covrec_2DF772145F02FC49                                           
0001b9c8  __covrec_FDAA4CDD67C3D058                                           
0001b9f0  __covrec_40C30177E58A8F00                                           
0001ba18  __covrec_4891A72BFF7F5031                                           
0001ba40  __covrec_E801FF57F7B8F56C                                           
0001ba68  __covrec_643F4F8E75138635                                           
0001ba90  __covrec_5FFD77205848B964                                           
0001bab8  __covrec_133B487217BB2E5A                                           
0001bae0  __covrec_512002C148919CFE                                           
0001bb08  __covrec_8B3C2D954ED0BA75                                           
0001bb30  __covrec_C71D83EEEEBD25C5                                           
0001bb58  __covrec_1AFE76699DCE6D3D                                           
0001bb80  __covrec_BA973D6E4001920E                                           
0001bba8  __covrec_F5AFEB1EEA354D61                                           
0001bbd0  __covrec_B441970F37224737                                           
0001bbf8  __covrec_D70EA4A8A98751CE                                           
0001bc20  __covrec_C047E60BD8866964                                           
0001bc48  __covrec_C634E91CD196F85E                                           
0001bc70  __covrec_C28518340856F2B0                                           
0001bc98  __covrec_5DCE58CE14EFB2DE                                           
0001bcc0  __covrec_9B85596B8A1AE901                                           
0001bce8  __covrec_E72B77A267908E6C                                           
0001bd10  __covrec_8F06D388B748E7A8                                           
0001bd38  __covrec_78368865D6205216                                           
0001bd60  __covrec_B1A9F6BF4A203553                                           
0001bd88  __covrec_A4F309C69DE758AC                                           
0001bdb0  __covrec_BFAFD22F7BF690C5                                           
0001bdd8  __covrec_12A84A218C9DEA06                                           
0001be00  __covrec_6C743F583DE17023                                           
0001be28  __covrec_473C66096BA722FD                                           
0001be50  __covrec_ACF4230EF393C5BA                                           
0001be78  __covrec_C4D78141AF2572F5                                           
0001bea0  __covrec_76FA1361CF01BDA3                                           
0001bec8  __covrec_95D71764A59AEC27                                           
0001bef0  __covrec_CCE8587A3277B01F                                           
0001bf18  __covrec_8813AE4156258C77                                           
0001bf40  __covrec_BAB821C194D33E0C                                           
0001bf68  __covrec_C6E5746A589295D1                                           
0001bf90  __covrec_FB91A69921C0AA0                                            
0001bfb8  __covrec_14465F9D45D58042                                           
0001bfe0  __covrec_60C4F50F13ECC26                                            
0001c008  __covrec_FEC7313548E6B0A0                                           
0001c030  __covrec_5543982661761F02                                           
0001c058  __covrec_EDDFCB24481343C8                                           
0001c080  __covrec_A142625DB4946496                                           
0001c0a8  __covrec_D384089B6507668C                                           
0001c0d0  __covrec_47BE7FD010B31ACF                                           
0001c0f8  __covrec_A6F91C9DE4E92CCF                                           
0001c120  __covrec_9EDD55D5C8BE933C                                           
0001c148  __covrec_3E1568D9541C8352                                           
0001c170  __covrec_75A8DE6340DA4CB3                                           
0001c198  __covrec_967BFC98B61002E2                                           
0001c1c0  __covrec_5540FB3D09913541                                           
0001c1e8  __covrec_18A4EB207556A42C                                           
0001c210  __covrec_F95EAA333DB23898                                           
0001c238  __covrec_8DA516C1E6826A9E                                           
0001c260  __covrec_69C8694219275654                                           
0001c288  __covrec_1A22B483B14D442                                            
0001c2b0  __covrec_CBC9F45CB78F8B90                                           
0001c2d8  __covrec_1D1393F256C668B4                                           
0001c300  __covrec_E88140DB696B12FA                                           
0001c328  __covrec_5431C2A10E3AF27F                                           
0001c350  __covrec_D98E6A74FFF9D8A                                            
0001c378  __covrec_9E7667E7EBD723A3                                           
0001c3a0  __covrec_B1FA2164EC3E6151                                           
0001c3c8  __covrec_F6DAA592595F28C                                            
0001c3f0  __covrec_548397170303D112                                           
0001c418  __covrec_1908F0908D2CBF18                                           
0001c440  __covrec_EE0F6CF5ED5E776E                                           
0001c468  __covrec_8BCACFC8A7CAB002                                           
0001c490  __covrec_9CB452459D1C403B                                           
0001c4b8  __covrec_DAB8E868E50A27CF                                           
0001c4e0  __covrec_33495A652304E49                                            
0001c508  __covrec_7D0DD1100E5C3292                                           
0001c530  __covrec_C470FE3D8AEB00D9                                           
0001c558  __covrec_6F87E0D31011FA87                                           
0001c580  __covrec_D4AC32A10CD7CB0F                                           
0001c5a8  __covrec_7E4E238AD334240D                                           
0001c5d0  __covrec_97BE04EE290C2F02                                           
0001c5f8  __covrec_3D0817C7DF21F89F                                           
0001c620  __covrec_6335E4F87C82DFDD                                           
0001c648  __covrec_F0ACEBB6D32F523D                                           
0001c670  __covrec_B359F814EED190EC                                           
0001c698  __covrec_AA520EFB2821E557                                           
0001c6c0  __covrec_2BE6C0B46C211135                                           
0001c6e8  __covrec_AC39529A12F08E6B                                           
0001c710  __covrec_59E40C65BB4D18F7                                           
0001c738  __covrec_A4D349F83946625F                                           
0001c760  __covrec_CFDB817D939AB454                                           
0001c788  __covrec_1AF6215EE93D46D6                                           
0001c7b0  __covrec_3B097A2085B9CD1E                                           
0001c7d8  __covrec_3B1FE69DF6A41D79                                           
0001c800  __covrec_F299FB8EC8B5A98D                                           
0001c828  __covrec_55C345FCDBE2932D                                           
0001c850  __covrec_FA6A73CFC94A4F8F                                           
0001c878  __covrec_954D554981613485                                           
0001c8a0  __covrec_60CE23351F0BB0C5                                           
0001c8c8  __covrec_A0D214D928BC709E                                           
0001c8f0  __covrec_BB204FB54CD4EFC                                            
0001c918  __covrec_6357598EEBCB078A                                           
0001c940  __covrec_984F02E3E0699504                                           
0001c968  __covrec_83A7E935CDCDEF7A                                           
0001c990  __covrec_E0842A3A8957D10D                                           
0001c9b8  __covrec_856B515851EDB492                                           
0001c9e0  __covrec_4749F46D3908955F                                           
0001ca08  __covrec_16D70E5A69A3760A                                           
0001ca30  __covrec_A9DA2B99CE47AF13                                           
0001ca58  __covrec_34AF19AADA685B0E                                           
0001ca80  __covrec_3886213F5ECF5BC5                                           
0001caa8  __covrec_60422E52F6D7CCB4                                           
0001cad0  __covrec_C24C11236C197783                                           
0001caf8  __covrec_89030C179EB9C81C                                           
0001cb20  __covrec_E1DBE843867CF66E                                           
0001cb48  __covrec_DD7A9DE99C6C5AF4                                           
0001cb70  __covrec_40C2045D2339AE27                                           
0001cb98  __covrec_163C92947DFA7B45                                           
0001cbc0  __covrec_B77E9FAD3DF35EBE                                           
0001cbe8  __covrec_F8EC7E727BB49656                                           
0001cc10  __covrec_15A6988EB176291B                                           
0001cc38  __covrec_8B4A5432F640F7CC                                           
0001cc60  __covrec_E4C40D5C5CFA6531                                           
0001cc88  __covrec_6F6B58E351921A4C                                           
0001ccb0  __covrec_C3B2B1E927D2AED0                                           
0001ccd8  __covrec_E619CCC955A6862B                                           
0001cd00  __covrec_A06516C97CF745F                                            
0001cd28  __covrec_614E3FACC915D745                                           
0001cd50  __covrec_D6C0ECB4343048C3                                           
0001cd78  __covrec_948B551B6988013C                                           
0001cda0  __covrec_70CF8CA989011034                                           
0001cdc8  __covrec_7D42ED8A1849121                                            
0001cdf0  __covrec_8A1F9CA0D4334F06                                           
0001ce18  __covrec_4F658069E82642B3                                           
0001ce40  __covrec_BC7A07810C2A4EA5                                           
0001ce68  __covrec_17F1308C877F8432                                           
0001ce90  __covrec_BB175E3871FD845                                            
0001ceb8  __covrec_B599D5FE34962FCD                                           
0001cee0  __covrec_9A40F604B5DC964B                                           
0001cf08  __covrec_825B61DE411E2061                                           
0001cf30  __covrec_61126BC06481CB11                                           
0001cf58  __covrec_219DAFA81AFAA2FB                                           
0001cf80  __covrec_55C646F71E54567                                            
0001cfa8  __covrec_91CF93C22BDB4813                                           
0001cfd0  __covrec_656B3D9D6026034                                            
0001cff8  __covrec_56B780A4FDEE900D                                           
0001d020  __covrec_1F9CF73C50D6AB19                                           
0001d048  __covrec_9852984F812F872E                                           
0001d070  __covrec_B0584FEB9BE7B098                                           
0001d098  __covrec_C49D033DE3A9AFB9                                           
0001d0c0  __covrec_CC0E79F34BDE50C1                                           
0001d0e8  __covrec_AFF8EA2E9F42EA4D                                           
0001d110  __covrec_7642F55933F834AD                                           
0001d138  __covrec_FFDFE8E406984E9A                                           
0001d160  __covrec_813E893FC027E207                                           
0001d188  __covrec_2D3B4279E82844EA                                           
0001d1b0  __covrec_9E7D8352594DED0C                                           
0001d1d8  __covrec_5BD32E00C445D602                                           
0001d200  __covrec_FCDCDFD15AC0E740                                           
0001d228  __covrec_30FBE63F83B9D1D                                            
0001d250  __covrec_DD46D3C4DEFB9C99                                           
0001d278  __covrec_890AAC5CB222EC4D                                           
0001d2a0  __covrec_FB7CF8B94050C947                                           
0001d2c8  __covrec_98CE03280FE13541                                           
0001d2f0  __covrec_D166DCE98F6D0E9C                                           
0001d318  __covrec_162CFD0A1B796938                                           
0001d340  __covrec_E1B2D1FEB13F85A6                                           
0001d368  __covrec_60E01FB0FEA6B10F                                           
0001d390  __covrec_60B82B20ADF3A6C9                                           
0001d3b8  __covrec_20F4440F1638C2A5                                           
0001d3e0  __covrec_64C631C3419D8497                                           
0001d408  __covrec_1A6E887ACACAFF76                                           
0001d430  __covrec_DDD36BF1BDB7AA08                                           
0001d458  __covrec_DD1D58311D02EABE                                           
0001d480  __covrec_A892DA4DF516689A                                           
0001d4a8  __covrec_73146D47C2268B40                                           
0001d4d0  __covrec_7A9B0D8ED1CC3EDE                                           
0001d4f8  __covrec_CF4FC1E32151C594                                           
0001d520  __covrec_F29AB24D20F7541B                                           
0001d548  __covrec_A9C81912A7BBEE                                             
0001d570  __covrec_16EB4AA73251958E                                           
0001d598  __covrec_D30E084174151E21                                           
0001d5c0  __covrec_3C99A72BDFB45697                                           
0001d5e8  __covrec_D98016B2FE4D3D31                                           
0001d610  __covrec_9A82C2E58801D4EB                                           
0001d638  __covrec_9E940468EF94664F                                           
0001d660  __covrec_52B97E8CA708B350                                           
0001d688  __covrec_F85390884DDE2EF8                                           
0001d6b0  __covrec_B39D9BE678C85D9F                                           
0001d6d8  __covrec_77EC49B74F3623B4                                           
0001d700  __covrec_DB471C349C709A12                                           
0001d728  __covrec_74B4AAA5875A1A40                                           
0001d750  __covrec_3971B1944E0C574C                                           
0001d778  __covrec_EE26B27D7B570B3D                                           
0001d7a0  __covrec_D13E1DD0A904D1EC                                           
0001d7c8  __covrec_C0D2729B0E6DF1B7                                           
0001d7f0  __covrec_20C5FBED395A9EDE                                           
0001d818  __covrec_8CC132A12E67D303                                           
0001d840  __covrec_7E376119588B9530                                           
0001d868  __covrec_97505DF3A3ED9895                                           
0001d890  __covrec_A8A28DA9DA2B412D                                           
0001d8b8  __covrec_19FA784ADD838849                                           
0001d8e0  __covrec_A6542DEDB8EB9879                                           
0001d908  __covrec_848A2C0F944BCCE0                                           
0001d930  __covrec_982466CC2ACC15EC                                           
0001d958  __covrec_D508958877B7CDD7                                           
0001d980  __covrec_91615256E6397B28                                           
0001d9a8  __covrec_F5588139E339EF27                                           
0001d9d0  __covrec_6CFE6451EC9C52F9                                           
0001d9f8  __covrec_C13AD5850545AB0D                                           
0001da20  __covrec_3B8B8236C02173C2                                           
0001da48  __covrec_66884EF09B90C267                                           
0001da70  __covrec_2D99555663CB507E                                           
0001da98  __covrec_DF7E3D1C5554EC59                                           
0001dac0  __covrec_FBCE000054D77117                                           
0001dae8  __covrec_C55313E71DA0C3B9                                           
0001db10  __covrec_BE5179F5A57B6AE2                                           
0001db38  __covrec_BE65544DFD0F9AD8                                           
0001db60  __covrec_81467A257584C92B                                           
0001db88  __covrec_892CE1FEF10A5D0D                                           
0001dbb0  __covrec_80A35A396107311D                                           
0001dbd8  __covrec_DCB964463AE10E6B                                           
0001dc00  __covrec_A8B2B5CC8DBF4800                                           
0001dc28  __covrec_670FD0ADF37D7A4F                                           
0001dc50  __covrec_51C74FFAA225D32A                                           
0001dc78  __covrec_94FC025036BEDEC0                                           
0001dca0  __covrec_60B6B884D1017516                                           
0001dcc8  __covrec_9592186C0C7D6FA5                                           
0001dcf0  __covrec_22F2AD01BBE54AC3                                           
0001dd18  __covrec_6E1A44D3C8BC259D                                           
0001dd40  __covrec_DC679B92F1EE3E32                                           
0001dd68  __covrec_E1D05ED567AD88B3                                           
0001dd90  __covrec_DAD4941A63D99853                                           
0001ddb8  __covrec_5AD07ACFA2247082                                           
0001dde0  __covrec_325BB6249AC215ED                                           
0001de08  __covrec_72D21F5906349DB2                                           
0001de30  __covrec_D4D6FC7683C95E7A                                           
0001de58  __covrec_4920BE8E09645FFF                                           
0001de80  __covrec_8F284A69A811272                                            
0001dea8  __covrec_AC6538EBC735DD0C                                           
0001ded0  __covrec_79B455E75A91963                                            
0001def8  __covrec_8CCB7565812889A7                                           
0001df20  __covrec_6EF8002856E4CBFC                                           
0001df48  __covrec_DF83ECEE727A5DD6                                           
0001df70  __covrec_B8DFCB0E91A6A538                                           
0001df98  __covrec_2DA3C7F5F3A1833F                                           
0001dfc0  __covrec_988A11D4D2F16FBF                                           
0001dfe8  __covrec_9ED94584C2643908                                           
0001e010  __covrec_6ADB0BC98E99DF0C                                           
0001e038  __covrec_B9BBACA01A41B6C8                                           
0001e060  __covrec_E2E834B6629CE320                                           
0001e088  __covrec_8E12A2008EF3ABE8                                           
0001e0b0  __covrec_67EBF9464B1739FF                                           
0001e0d8  __covrec_7849C203D9D4558A                                           
0001e100  __covrec_DE0C383DAC236695                                           
0001e128  __covrec_FCA71EE4D37F88C6                                           
0001e150  __covrec_656CD7E4E614AD16                                           
0001e178  __covrec_E4BC5C1C9B522724                                           
0001e1a0  __covrec_6BC92AC9CC41220E                                           
0001e1c8  __covrec_73921255196ED739                                           
0001e1f0  __covrec_55266747A4570DA1                                           
0001e218  __covrec_947018608C3D9167                                           
0001e240  __covrec_F9407E25A3F45B0C                                           
0001e268  __covrec_969B534D19665BDF                                           
0001e290  __covrec_8D824999EFBDB130                                           
0001e2b8  __covrec_43CA149CDA99F19C                                           
0001e2e0  __covrec_4EFB28BC93277616                                           
0001e308  __covrec_479B15013490219A                                           
0001e330  __covrec_9256D4F3A2C9619B                                           
0001e358  __covrec_C9EA72700DD2DA54                                           
0001e380  __covrec_1067EFD43AC4737C                                           
0001e3a8  __covrec_BA25A56B15309134                                           
0001e3d0  __covrec_616CE32FFC7272F1                                           
0001e3f8  __covrec_A7E144897978C90C                                           
0001e420  __covrec_5D2E7F106E151629                                           
0001e448  __covrec_C1B2B1A0B6EC290F                                           
0001e470  __covrec_17DAEC6AFA72F54C                                           
0001e498  __covrec_A92884B33FF83C3F                                           
0001e4c0  __covrec_D6CA4E27A30329FF                                           
0001e4e8  __covrec_1740AFC189A8EDA2                                           
0001e510  __covrec_A3F69F3D1A174B83                                           
0001e538  __covrec_87F49CE40477D202                                           
0001e560  __covrec_107B128032F6DB3F                                           
0001e588  __covrec_C2BB13DE1AE343CB                                           
0001e5b0  __covrec_1BD34071CFA619DA                                           
0001e5d8  __covrec_F6E4D297C5804202                                           
0001e600  __covrec_945ECCD4F2946F36                                           
0001e628  __covrec_AA70E0B980B5AC70                                           
0001e650  __covrec_D5424533F9D0A94B                                           
0001e678  __covrec_F743C000ABE7980A                                           
0001e6a0  __covrec_D1D10A4F101AAA4                                            
0001e6c8  __covrec_4AF143174640E56D                                           
0001e6f0  __covrec_A3E9BABFF30D1406                                           
0001e718  __covrec_A232361CAB162550                                           
0001e740  __covrec_F5B52FC120DCEFF6                                           
0001e768  __covrec_751C6A39772D4981                                           
0001e790  __covrec_24D4168F36768F8A                                           
0001e7b8  __covrec_9AAB0F09D0C7B1A3                                           
0001e7e0  __covrec_2E6EC07223ED40B7                                           
0001e808  __covrec_C8BD44ABF6512FBA                                           
0001e830  __covrec_716AB83B32900FE5                                           
0001e858  __covrec_DE53C8C4FE5CC688                                           
0001e880  __covrec_C284900A3BECEF9F                                           
0001e8a8  __covrec_7DEA2A08886235ED                                           
0001e8d0  __covrec_E5004354570D679                                            
0001e8f8  __covrec_F623366B7B1875EF                                           
0001e920  __covrec_24CD7D1265135F07                                           
0001e948  __covrec_A2445591609CD347                                           
0001e970  __covrec_63DD24C70A829FA0                                           
0001e998  __covrec_F6F7419BF1DFF9CE                                           
0001e9c0  __covrec_A525F0238C786183                                           
0001e9e8  __covrec_FB7ED0D421C87335                                           
0001ea10  __covrec_1EF1FB822FC56A69                                           
0001ea38  __covrec_811ED8DACF2F0A4C                                           
0001ea60  __covrec_1658A1CFEC8A9371                                           
0001ea88  __covrec_8589C79F6871C223                                           
0001eab0  __covrec_EB4E39EF1EA17CA5                                           
0001ead8  __covrec_8D9CC3D5970D5F2                                            
0001eb00  __covrec_EF506552D1D7BE22                                           
0001eb28  __covrec_2A1CAF1263274BD9                                           
0001eb50  __covrec_8A5792BFD162766B                                           
0001eb78  __covrec_9071575618984415                                           
0001eba0  __covrec_59674A5A4E18485A                                           
0001ebc8  __covrec_C15F2CF5A53F36D6                                           
0001ebf0  __covrec_161C5CCBB18E3472                                           
0001ec18  __covrec_1796D1C61F0D17A8                                           
0001ec40  __covrec_30FFD4E1DBF1C36F                                           
0001ec68  __covrec_F06D606E3FF7FEB2                                           
0001ec90  __covrec_6A1A64384C549626                                           
0001ecb8  __covrec_FE189E8205BFE13F                                           
0001ece0  __covrec_AE75ACC2669723B3                                           
0001ed08  __covrec_575DC9889DF6949E                                           
0001ed30  __covrec_A807F26F4DECD342                                           
0001ed58  __covrec_AFF99C21C3C36C23                                           
0001ed80  __covrec_FFEA5922A8E15BB8                                           
0001eda8  __covrec_8863A4DB3AC090CF                                           
0001edd0  __covrec_C4CD8A127B42E748                                           
0001edf8  __covrec_8073F98D4C5CB220                                           
0001ee20  __covrec_5E08C98A59626A7F                                           
0001ee48  __covrec_A11EC3781DB0FEF3                                           
0001ee70  __covrec_70AB79C230504C55                                           
0001ee98  __covrec_74C599A820D7E755                                           
0001eec0  __covrec_F8915E7F9ECEA84A                                           
0001eee8  __covrec_E747975BDCB68B72                                           
0001ef10  __covrec_171317B20F4BC1DB                                           
0001ef38  __covrec_F6F0D555DD9571C2                                           
0001ef60  __covrec_D7A5E186EC53EB7C                                           
0001ef88  __covrec_212223448B5B81B9                                           
0001efb0  __covrec_49B99623CFA970C2                                           
0001efd8  __covrec_90D55D76C1B40953                                           
0001f000  __covrec_4718A562B567B04C                                           
0001f028  __covrec_FE8AC5C2C53B8D86                                           
0001f050  __covrec_45436CBF3A4CA093                                           
0001f078  __covrec_861ECA2F7740943D                                           
0001f0a0  __covrec_DAE8D5ADDB41B37                                            
0001f0c8  __covrec_CCBC4573637DA55F                                           
0001f0f0  __covrec_28CAF5403BA112D7                                           
0001f118  __covrec_F10A23C35B517DD2                                           
0001f140  __covrec_1607E55D10EC504D                                           
0001f168  __covrec_7D68043D64CDCF90                                           
0001f190  __covrec_69F779B385F91D45                                           
0001f1b8  __covrec_9DA8AA09702AC6CE                                           
0001f1e0  __covrec_6B1D995AB962F0B2                                           
0001f208  __covrec_8AE8A728D35176EE                                           
0001f230  __covrec_5BE8C1F5F9F49C79                                           
0001f258  __covrec_FD7AD1BDA795009C                                           
0001f280  __covrec_586FB34E967A1C01                                           
0001f2a8  __covrec_A7B0855D94B2B621                                           
0001f2d0  __covrec_299EDB45E19271B                                            
0001f2f8  __covrec_80A20283D33EB74C                                           
0001f320  __covrec_37E4676AA453B73A                                           
0001f348  __covrec_CCE2B14552749412                                           
0001f370  __covrec_91268A0619F1717E                                           
0001f398  __covrec_E0DF7F5D25D80AD9                                           
0001f3c0  __covrec_92053EA39EF00CBD                                           
0001f3e8  __covrec_4EB0839C474D2F33                                           
0001f410  __covrec_9DCFB323BA939264                                           
0001f438  __covrec_3AFB7D729C4BABB0                                           
0001f460  __covrec_746E139C881AA4DE                                           
0001f488  __covrec_3DCF74A11C3A8FF3                                           
0001f4b0  __covrec_81F4A0B0F22321B5                                           
0001f4d8  __covrec_FFC75160907BE257                                           
0001f500  __covrec_80FAC2C06823F74B                                           
0001f528  __covrec_5CEF60968AFEBE0C                                           
0001f550  __covrec_245EBA72A5A0F5EB                                           
0001f578  __covrec_EB3CD7B477E32A81                                           
0001f5a0  __covrec_C5BCF3911B560B66                                           
0001f5c8  __covrec_7AF5297569FCAA08                                           
0001f5f0  __covrec_E4B890F76048E996                                           
0001f618  __covrec_55810F3EB635025A                                           
0001f640  __covrec_1BFF9732B2DAF38C                                           
0001f668  __covrec_671D097439EB28D6                                           
0001f690  __covrec_9446C51CC8E8E80F                                           
0001f6b8  __covrec_AABEAADEEB5F4E6E                                           
0001f6e0  __covrec_3060B93F85E68B18                                           
0001f708  __covrec_757DFFBA2ED8856A                                           
0001f730  __covrec_5CA635E71B7D840A                                           
0001f758  __covrec_5698EC3DDF5C0D44                                           
0001f780  __covrec_7D4D287D0E89CC67                                           
0001f7a8  __covrec_C6AB4526964850E8                                           
0001f7d0  __covrec_E6A145D181120995                                           
0001f7f8  __covrec_D959A60138CD433E                                           
0001f820  __covrec_FA02E2CA7F81E3AF                                           
0001f848  __covrec_39FF74C6619FBAEE                                           
0001f870  __covrec_3DDAFC730FA6812                                            
0001f898  __covrec_15B0477F91E5A15B                                           
0001f8c0  __covrec_228B4DCEDE67C9E2                                           
0001f8e8  __covrec_C360429D1CA00A11                                           
0001f910  __covrec_BA38EBDE4E634B4D                                           
0001f938  __covrec_C47257D07254FED2                                           
0001f960  __covrec_324DA2EC0B259559                                           
0001f988  __covrec_6DCA04C94E6C21D3                                           
0001f9b0  __covrec_BC100AC494729832                                           
0001f9d8  __covrec_A13F1F077C7FDC3                                            
0001fa00  __covrec_37961B0C63A935F4                                           
0001fa28  __covrec_BEEF592826313069                                           
0001fa50  __covrec_639B738A714F9727                                           
0001fa78  __covrec_6382BE4728128A7B                                           
0001faa0  __covrec_DDF81D9F2B5DCDD2                                           
0001fac8  __covrec_2B3D97B203BD5320                                           
0001faf0  __covrec_430272C77074C92                                            
0001fb18  __covrec_EAA690377138D9D7                                           
0001fb40  __covrec_B1327D09E22FBFCD                                           
0001fb68  __covrec_563C36D078652BFB                                           
0001fb90  __covrec_1129F9D0907743CC                                           
0001fbb8  __covrec_528F08850A5A6AA                                            
0001fbe0  __covrec_5425D9490B6AD1D3                                           
0001fc08  __covrec_DA16BD1FEC470510                                           
0001fc30  __covrec_967F9D7DA7B29977                                           
0001fc58  __covrec_3443F015958810F5                                           
0001fc80  __covrec_757BBA318B051CC4                                           
0001fca8  __covrec_3E27CE08F0E438A7                                           
0001fcd0  __covrec_EA1E48C3488CC0E4                                           
0001fcf8  __covrec_564B00DAE5D93552                                           
0001fd20  __covrec_EC1CAADB898CC6AE                                           
0001fd48  __covrec_5683CC655E710871                                           
0001fd70  __covrec_12B33D9FCAB5C7F6                                           
0001fd98  __covrec_53A77370C248305E                                           
0001fdc0  __covrec_CA7C0417F799A12C                                           
0001fde8  __covrec_BAC215A305CB6BB2                                           
0001fe10  __covrec_D4074637B149442C                                           
0001fe38  __covrec_746721CCAF0ACA8E                                           
0001fe60  __covrec_D2934CB964BCC507                                           
0001fe88  __covrec_F09CDBF34DB339AD                                           
0001feb0  __covrec_BC5C2824B87BC903                                           
0001fed8  __covrec_3C024D0166B213F1                                           
0001ff00  __covrec_7AC6F1147BA12A69                                           
0001ff28  __covrec_F317C3F6F2F95EE3                                           
0001ff50  __covrec_8B74CFDA35A78F8A                                           
0001ff78  __covrec_F01F43B2AB69C7                                             
0001ffa0  __covrec_3E9B067C2AF7B980                                           
0001ffc8  __covrec_132818003A70A7AF                                           
0001fff0  __covrec_321A183A8097BE95                                           
00020018  __covrec_729FBAB722BFBBA7                                           
00020040  __covrec_CF883BE42879D27C                                           
00020068  __covrec_12BA5CE176C32DDC                                           
00020090  __covrec_8C7B9AC84A1290D6                                           
000200b8  __covrec_45E0153103EFF78C                                           
000200e0  __covrec_A74A9BBECDE04B5E                                           
00020108  __covrec_FE7D9684EFE6977B                                           
00020130  __covrec_19B8727C1D4ABDAE                                           
00020158  __covrec_581FA69547FF1789                                           
00020180  __covrec_5D7FBF201AF53977                                           
000201a8  __covrec_3440A467A910C969                                           
000201d0  __covrec_4DC7EBBFBBF2C80C                                           
000201f8  __covrec_DBE35451CF19422                                            
00020220  __covrec_B552D37472D35192                                           
00020248  __covrec_5A717D53595AA9DE                                           
00020270  __covrec_991F8D3FEEE781EF                                           
00020298  __covrec_C239BA51ED9EC8C                                            
000202c0  __covrec_822640F61646CC5D                                           
000202e8  __covrec_F0CF892F63A7F7F2                                           
00020310  __covrec_98E619A5BCB11368                                           
00020338  __covrec_35A409F0E6C93C4C                                           
00020360  __covrec_87B54D9AAE31261B                                           
00020388  __covrec_AAEDD5461DEC88D2                                           
000203b0  __covrec_AC9CB004A666D213                                           
000203d8  __covrec_BEF4D4CCDE60C523                                           
00020400  __covrec_CB6A11825FEC0147                                           
00020428  __covrec_96777DB40E8EF14                                            
00020450  __covrec_DF80A5B790AC171A                                           
00020478  __covrec_2AFC953AB3BFA4B3                                           
000204a0  __covrec_A6927DC5BF881DDC                                           
000204c8  __covrec_4C2163C5B5E62E0A                                           
000204f0  __covrec_497DA2F3E5D93472                                           
00020518  __covrec_18C7DFC85F74DF88                                           
00020540  __covrec_1E5D0BA266A05409                                           
00020568  __covrec_A2C00EFD24BAB1B8                                           
00020590  __covrec_430FD1DD48650ACE                                           
000205b8  __covrec_66203DD865386CF4                                           
000205e0  __covrec_34960821BB303171                                           
00020608  __covrec_2175477B7920D59E                                           
00020630  __covrec_1FC1559D82C02D42                                           
00020658  __covrec_9384DA28BA881739                                           
00020680  __covrec_58550788DEC90388                                           
000206a8  __covrec_E788ABFEAD96B1B3                                           
000206d0  __covrec_B055CE97798BAEE5                                           
000206f8  __covrec_EF06C3EF94148348                                           
00020720  __covrec_119935E492C58911                                           
00020748  __covrec_CCFBAF14A6C959A5                                           
00020770  __covrec_FED7286FD0A0846C                                           
00020798  __covrec_9D65C69103DC9EE1                                           
000207c0  __covrec_F3809CC4BFBFDA24                                           
000207e8  __covrec_BA37DB786B6EA1B4                                           
00020810  __covrec_51997A82F632E9B6                                           
00020838  __covrec_9B5D5C9A185C05A3                                           
00020860  __covrec_BBCC8B4742E2744A                                           
00020888  __covrec_600D5DFBC7E8E0D1                                           
000208b0  __covrec_9F3C201AFBFC7771                                           
000208d8  __covrec_38889281C354E797                                           
00020900  __covrec_8E0D2AC8B7B51C20                                           
00020928  __covrec_17309D8202C86DB3                                           
00020950  __covrec_EDFD3659CF8A198E                                           
00020978  __covrec_A55C214A5FC44544                                           
000209a0  __covrec_B6061734BA369469                                           
000209c8  __covrec_1DBD55CB071CE798                                           
000209f0  __covrec_31384D9C1FCD85B5                                           
00020a18  __covrec_65091D5E19CE7236                                           
00020a40  __covrec_8334D045F180AF32                                           
00020a68  __covrec_C29C540C64A8C99C                                           
00020a90  __covrec_89A03468FB70BAED                                           
00020ab8  __covrec_817DA88F4397C3F0                                           
00020ae0  __covrec_988B02AB6E77D263                                           
00020b08  __covrec_81D9214AFD4BDAC9                                           
00020b30  __covrec_C307A6F1EDD2DFB6                                           
00020b58  __covrec_48CBB17F0CCCA98C                                           
00020b80  __covrec_7BF25F52501F5463                                           
00020ba8  __covrec_D22CAAC6655B0C37                                           
00020bd0  __covrec_914E974F02E5E35B                                           
00020bf8  __covrec_FC508B703A037D2C                                           
00020c20  __covrec_1EB10222D35B87B9                                           
00020c48  __covrec_D28992F781DD20D5                                           
00020c70  __covrec_80440FC7E70A608E                                           
00020c98  __covrec_328C937DCC0945C6                                           
00020cc0  __covrec_D67633C8BBEFBD55                                           
00020ce8  __covrec_117A6AE779833FFF                                           
00020d10  __covrec_763DF4557E4E5E72                                           
00020d38  __covrec_485836BA7ADA70E7                                           
00020d60  __covrec_AC68201571F3FB9B                                           
00020d88  __covrec_5DB286C142F2FC00                                           
00020db0  __covrec_E176DE7F78C356A8                                           
00020dd8  __covrec_2D7A7904D991C2E0                                           
00020e00  __covrec_3D01C64E096BB6C9                                           
00020e28  __covrec_46EDE5804B593543                                           
00020e50  __covrec_6204ED5D4EDC7D02                                           
00020e78  __covrec_475CA32B2C2CE266                                           
00020ea0  __covrec_5693A03265561EA1                                           
00020ec8  __covrec_78BBAA4C0B416C21                                           
00020ef0  __covrec_EDB3AA564B5BB202                                           
00020f18  __covrec_754FB894AEB3A2B4                                           
00020f40  __covrec_15699B8DF7CF109F                                           
00020f68  __covrec_C4BF6877E3DA2AE6                                           
00020f90  __covrec_216718CA83AD3AF2                                           
00020fb8  __covrec_AD93EC839DDCEE0E                                           
00020fe0  __covrec_5792CDB37B0EB554                                           
00021008  __covrec_31DC7ECBF26839AC                                           
00021030  __covrec_B1EB7085F74D8687                                           
00021058  __covrec_B68CBA3DB0144E60                                           
00021080  __covrec_F84035B684B27B21                                           
000210a8  __covrec_2DDC7AACECA4585A                                           
000210d0  __covrec_331B394963683510                                           
000210f8  __covrec_1179DC1F40DF19BB                                           
00021120  __covrec_AF320D236265B896                                           
00021148  __covrec_21D48F08684C7774                                           
00021170  __covrec_B3657841B1675CD2                                           
00021198  __covrec_F1D5AE02B00D28                                             
000211c0  __covrec_8DFE773213DB51DE                                           
000211e8  __covrec_CA537B5FD783D60B                                           
00021210  __covrec_2046BE57FB3E054C                                           
00021238  __covrec_E248C48590FF7B21                                           
00021260  __covrec_D3387D696F34035B                                           
00021288  __covrec_61DF9CC8984FB629                                           
000212b0  __covrec_9DBD17518F4E29C3                                           
000212d8  __covrec_40D646295DAC752                                            
00021300  __covrec_1E967D82AE57104C                                           
00021328  __covrec_C4BFDCB78073AB38                                           
00021350  __covrec_65452D93FF7AE6CE                                           
00021378  __covrec_E8D50A624AF1499A                                           
000213a0  __covrec_5DF83C55D6E82DD6                                           
000213c8  __covrec_79B4F91832129CA6                                           
000213f0  __covrec_FB615516353485F1                                           
00021418  __covrec_30B5CF75E7DDB3BE                                           
00021440  __covrec_3CD7868FF6D37CF3                                           
00021468  __covrec_DF19DB5FF8AA4536                                           
00021490  __covrec_45806013A668158C                                           
000214b8  __covrec_B6F3E3BAD089DBAE                                           
000214e0  __covrec_623CC9784B4121C1                                           
00021508  __covrec_75FF3BCF01AD1DCE                                           
00021530  __covrec_1CD6F65EDB220D52                                           
00021558  __covrec_E468212A7A4C64E3                                           
00021580  __covrec_633024824CBAEE71                                           
000215a8  __covrec_D023413EC1FF36D0                                           
000215d0  __covrec_4013210C481D0A23                                           
000215f8  __covrec_AAEED63D1029DA46                                           
00021620  __covrec_905E63600D3955D3                                           
00021648  __covrec_8E0C3A5E8D1D8B34                                           
00021670  __covrec_780EF97DE54A250A                                           
00021698  __covrec_932E0709331E6B6B                                           
000216c0  __covrec_10824BD04F6231E0                                           
000216e8  __covrec_A7B287DE04B3E03                                            
00021710  __covrec_3AA23B4CA70BF4D8                                           
00021738  __covrec_14FA4B69117446C1                                           
00021760  __covrec_6E5290F4B1AC7C97                                           
00021788  __covrec_14FF88AAFCD7D57D                                           
000217b0  __covrec_397D89BAB9602260                                           
000217d8  __covrec_ECF40B9B8A4306F9                                           
00021800  __covrec_F35691FD0BB8A7B8                                           
00021828  __covrec_91246371028CE229                                           
00021850  __covrec_AFEBE9C6828061A1                                           
00021878  __covrec_99389F241C65C1B8                                           
000218a0  __covrec_B44AEF7925B0EBA                                            
000218c8  __covrec_B967147E74E51FAD                                           
000218f0  __covrec_94630ABCD1F71558                                           
00021918  __covrec_1D69454E4585F9FA                                           
00021940  __covrec_3AC1DBF81307EA6C                                           
00021968  __covrec_5775237149682687                                           
00021990  __covrec_69C2D9C3FFABDF1E                                           
000219b8  __covrec_1EE4D15989A2B4E4                                           
000219e0  __covrec_4E427332E8382E46                                           
00021a08  __covrec_D5409A4D6856EF55                                           
00021a30  __covrec_90DCF7F79E49CAAC                                           
00021a58  __covrec_E82325860AD548EB                                           
00021a80  __covrec_84D04A2932D868E1                                           
00021aa8  __covrec_B05388EBD8752329                                           
00021ad0  __covrec_C81DAEE90F8696CC                                           
00021af8  __covrec_7F39F8D4F7AA2194                                           
00021b20  __covrec_6F902A328862CA3C                                           
00021b48  __covrec_A509FC975E3FE1D                                            
00021b70  __covrec_6FC781AA1F8A0AF6                                           
00021b98  __covrec_601D8438B0B370FE                                           
00021bc0  __covrec_E6EDFEBC4DC305A2                                           
00021be8  __covrec_DB846B1F611511E2                                           
00021c10  __covrec_F0C5C704EF22E445                                           
00021c38  __covrec_8D95D35639606030                                           
00021c60  __covrec_77AFE7D5BE45A231                                           
00021c88  __covrec_50F46F04ABA816B1                                           
00021cb0  __covrec_8F001A8FBE0D0EA1                                           
00021cd8  __covrec_D7D2A99D60ACB32C                                           
00021d00  __covrec_F5F30506630A8A6A                                           
00021d28  __covrec_4E1DBE19647923AA                                           
00021d50  __covrec_E253D24803A745F8                                           
00021d78  __covrec_811F42F540BF9F2A                                           
00021da0  __covrec_6442263EB4C4ECE0                                           
00021dc8  __covrec_347833257255D714                                           
00021df0  __covrec_F7136B9270F615B7                                           
00021e18  __covrec_832A43C86DB40C1D                                           
00021e40  __covrec_E9F6566CE2924DCD                                           
00021e68  __covrec_AA329F79BA5D4AEB                                           
00021e90  __covrec_7CE52103876A38E8                                           
00021eb8  __covrec_E85C8D29E7F6CB1F                                           
00021ee0  __covrec_DC69E42406D125B8                                           
00021f08  __covrec_3BF2B88451504C58                                           
00021f30  __covrec_84B49415AF1868AF                                           
00021f58  __covrec_965CD31C1298714E                                           
00021f80  __covrec_ECC1E88C41748830                                           
00021fa8  __covrec_D2A160C7D91897                                             
00021fd0  __covrec_CDBCE9076F882CD6                                           
00021ff8  __covrec_9C7E4780112F9DD4                                           
00022020  __covrec_82FF712195CADFA0                                           
00022048  __covrec_31723A59EE01CB6F                                           
00022070  __covrec_9F2BD20A1D192943                                           
00022098  __covrec_E7450405C7F6F39C                                           
000220c0  __covrec_FA3CF57E57B39F53                                           
000220e8  __covrec_DBC4F0F97B3DA53C                                           
00022110  __covrec_E893E960D0B12CDC                                           
00022138  __covrec_74AD938A5BA92A7E                                           
00022160  __covrec_AFDAEBE1B0D952AD                                           
00022188  __covrec_C73A30597B6CE2DC                                           
000221b0  __covrec_F277D89E3DFFF5DD                                           
000221d8  __covrec_7AA1C05CED579EC5                                           
00022200  __covrec_14C7D3D01E57A504                                           
00022228  __covrec_B179A17659FF2C11                                           
00022250  __covrec_EDA7DA81A150E038                                           
00022278  __covrec_9517842FD8D805A0                                           
000222a0  __covrec_710DEE95B1A70540                                           
000222c8  __covrec_DA9A9D536ADFC90B                                           
000222f0  __covrec_6314EB5485BC7F25                                           
00022318  __covrec_7DA2BD1290B5E601                                           
00022340  __covrec_DC0FA30D02EF7B58                                           
00022368  __covrec_B978B224B473938F                                           
00022390  __covrec_343940E2870E9B0E                                           
000223b8  __covrec_7A067878B7FDE586                                           
000223e0  __covrec_EDDEF903D67BFC06                                           
00022408  __covrec_3F79BDA4008A8933                                           
00022430  __covrec_3B24D5353F7BB6D1                                           
00022458  __covrec_6AEE3ED1AB86CC6C                                           
00022480  __covrec_6F20C2D7023DB8E8                                           
000224a8  __covrec_D2007C2CBD0F9E4D                                           
000224d0  __covrec_4698FA8E637FED05                                           
000224f8  __covrec_30FFBF09B05F3927                                           
00022520  __covrec_DF36CD3867E449BC                                           
00022548  __covrec_8EB22456CBE7DB26                                           
00022570  __covrec_D6089EA6A03C1DFE                                           
00022598  __covrec_50652C5F2DE678E3                                           
000225c0  __covrec_B09F79FD8EF659EE                                           
000225e8  __covrec_B78EF92F49E0058B                                           
00022610  __covrec_2D1E6856B3061151                                           
00022638  __covrec_19E75B9307F97AB0                                           
00022660  __covrec_A90175A665803D3A                                           
00022688  __covrec_EBCEB31F8A3D685C                                           
000226b0  __covrec_78F30011E96A5C42                                           
000226d8  __covrec_81785CEA135AD10E                                           
00022700  __covrec_D13B5C531F5197CD                                           
00022728  __covrec_9C873B56BD4E64FA                                           
00022750  __covrec_FDC1FA3BFCE27CA3                                           
00022778  __covrec_E77647DCFED80E9                                            
000227a0  __covrec_E9D0B9A106B570B2                                           
000227c8  __covrec_CB3C47A7D249D04                                            
000227f0  __covrec_935E5F4BC12023D3                                           
00022818  __covrec_44B12D8825409BC2                                           
00022840  __covrec_1AFE6ECE1BD6F5C2                                           
00022868  __covrec_B1652563AEC5544B                                           
00022890  __covrec_4B154ED39D9AF395                                           
000228b8  __covrec_C2BBD9F4FD1A81B5                                           
000228e0  __covrec_84B2FD790164F848                                           
00022908  __covrec_69DE4DF1890DADB7                                           
00022930  __covrec_F7F273F985C06D9C                                           
00022958  __covrec_C17285F0F24EF078                                           
00022980  __covrec_3B4669D912F6CCFB                                           
000229a8  __covrec_597B766BDF97E9A4                                           
000229d0  __covrec_7EF36698A1E34789                                           
000229f8  __covrec_F6B56496C33FA558                                           
00022a20  __covrec_41D355DEE93F316                                            
00022a48  __covrec_FC6C86B71CC34A40                                           
00022a70  __covrec_30A6073BD61E816A                                           
00022a98  __covrec_5406CB2E1C44728                                            
00022ac0  __covrec_FFA0CFE7D81EDE77                                           
00022ae8  __covrec_D57E84B1A2601E15                                           
00022b10  __covrec_E8236E0C4E17C5AD                                           
00022b38  __covrec_69DE16BA85A71611                                           
00022b60  __covrec_780F2DA8DE31FC9E                                           
00022b88  __covrec_786C1CC0E1F24C6C                                           
00022bb0  __covrec_E4A1E387ECAC3A2D                                           
00022bd8  __covrec_9ECBD043067646A3                                           
00022c00  __covrec_74794AE17B5C57B9                                           
00022c28  __covrec_7139FD0F045F9185                                           
00022c50  __covrec_2D8A3E6347FF950C                                           
00022c78  __covrec_19F06ABB5A28AA72                                           
00022ca0  __covrec_5F86F943AF231A95                                           
00022cc8  __covrec_9CDCF4ABBCDB66CE                                           
00022cf0  __covrec_B03F31128199A7A5                                           
00022d18  __covrec_8EA5F89D745F0C6A                                           
00022d40  __covrec_6F0FAD3458A6C65F                                           
00022d68  __covrec_5FF2A874BA51D671                                           
00022d90  __covrec_6EBA548D6F415BA1                                           
00022db8  __covrec_16BDE21014ED2C1                                            
00022de0  __covrec_F1CA3058F4C0F3B1                                           
00022e08  __covrec_10DD02304F236F5B                                           
00022e30  __covrec_F83A171A8DE1F8B3                                           
00022e58  __covrec_9971090978BE6753                                           
00022e80  __covrec_C78B4A6A98D02577                                           
00022ea8  __covrec_5AD6145C62BED28F                                           
00022ed0  __covrec_1EC243A73359BD5F                                           
00022ef8  __covrec_42C38FC99BBB9DEE                                           
00022f20  __covrec_9FD435B6EDB75583                                           
00022f48  __covrec_EEC19C275E247D9D                                           
00022f70  __covrec_8BDFCF1999B7FA38                                           
00022f98  __covrec_FCB920B883F15C5B                                           
00022fc0  __covrec_2DECA8561F707322                                           
00022fe8  __covrec_42B1FA5D2A28E44C                                           
00023010  __covrec_E54F38072A567845                                           
00023038  __covrec_73735C19FACE89E4                                           
00023060  __covrec_6313EF3067172709                                           
00023088  __covrec_BF4EA921547B71EE                                           
000230b0  __covrec_DF9BB6D34120A97B                                           
000230d8  __covrec_7B424DF0B25FFF2D                                           
00023100  __covrec_48BFA1C093CFE041                                           
00023128  __covrec_3F5C1E56D1753C63                                           
00023150  __covrec_3F515E8DEDCFDB3C                                           
00023178  __covrec_EA2B3784EFBDE16B                                           
000231a0  __covrec_1F54DD07CE6E3CC3                                           
000231c8  __covrec_F8E27A2D33292F4B                                           
000231f0  __covrec_A926C2DA317B08A4                                           
00023218  __covrec_6732255AC3A1FA23                                           
00023240  __covrec_E58267904E30DEFA                                           
00023268  __covrec_26F7BD59BDABA46                                            
00023290  __covrec_986C114E42E8D05C                                           
000232b8  __covrec_4FC04B3E518F0361                                           
000232e0  __covrec_FB10B5C5DB7D0EAB                                           
00023308  __covrec_1D03C489628EC74D                                           
00023330  __covrec_18ABC13FAC28025C                                           
00023358  __covrec_E672E4C139CF37B5                                           
00023380  __covrec_80FD584348984E04                                           
000233a8  __covrec_7F52CB605BDD2FE                                            
000233d0  __covrec_D706DB4BB573BB3D                                           
000233f8  __covrec_B3659197FDC20C4B                                           
00023420  __covrec_9C5548CB9C402249                                           
00023448  __covrec_3DBD25D85CE95350                                           
00023470  __covrec_A012943D946C7220                                           
00023498  __covrec_3F10DB2D12771804                                           
000234c0  __covrec_A01FF74824829A64                                           
000234e8  __covrec_90CD5B778C8D157F                                           
00023510  __covrec_CD770DF23638413B                                           
00023538  __covrec_4A70D883AED610D6                                           
00023560  __covrec_4CF1F17A7E634135                                           
00023588  __covrec_C1B12A6B3A138DC9                                           
000235b0  __covrec_ED88A247DEB1B920                                           
000235d8  __covrec_F6C47C4FF9C0768B                                           
00023600  __covrec_CB3FF3F526A2F00C                                           
00023628  __covrec_16674943AE982D61                                           
00023650  __covrec_D3E0CC8EE8B7B5EB                                           
00023678  __covrec_8A28EF8B3F240F7D                                           
000236a0  __covrec_BCE304DA2995D59D                                           
000236c8  __covrec_54DEC94B3D73D88D                                           
000236f0  __covrec_E6E84AC0AB1FA6F                                            
00023718  __covrec_3CCD0FBCDE385140                                           
00023740  __covrec_5A37A076E8C9BBDA                                           
00023768  __covrec_67B70B543A763C65                                           
00023790  __covrec_E4EE63A78EBD9E96                                           
000237b8  __covrec_3EEF78312BD96C34                                           
000237e0  __covrec_30F8FDE14BEBA5C3                                           
00023808  __covrec_7D622BAF5C1DD492                                           
00023830  __covrec_825BEE18E61FC99A                                           
00023858  __covrec_9BDFC8677807B4A8                                           
00023880  __covrec_64AAD3E48D70B9                                             
000238a8  __covrec_7549A71CC7241F46                                           
000238d0  __covrec_D3BD8053F86E41DE                                           
000238f8  __covrec_E8750E338B985971                                           
00023920  __covrec_B3A396CC62A90D9D                                           
00023948  __covrec_3B8712F8CC28A7DB                                           
00023970  __covrec_9B8C2CA9195D8A89                                           
00023998  __covrec_F7CCB73360C44C19                                           
000239c0  __covrec_C4B01E72A10B79FE                                           
000239e8  __covrec_4726466DEFBBB981                                           
00023a10  __covrec_201277E0AA6EE9F3                                           
00023a38  __covrec_845FD839DBC7C1AF                                           
00023a60  __covrec_608E1EBDE4771F04                                           
00023a88  __covrec_BE9D5D41A4A00A13                                           
00023ab0  __covrec_CC6EB3AA84257997                                           
00023ad8  __covrec_8B753A5C478F8754                                           
00023b00  __covrec_23BA94AFA28E8B44                                           
00023b28  __covrec_B924B179892F5543                                           
00023b50  __covrec_150B89D347BC7E6E                                           
00023b78  __covrec_7E8D5D9947CB4DEB                                           
00023ba0  __covrec_EFE4358F82272623                                           
00023bc8  __covrec_2F22268672A76EE3                                           
00023bf0  __covrec_D07EA17EA69B8479                                           
00023c18  __covrec_2EB222C72903A525                                           
00023c40  __covrec_18AC38AE70A94599                                           
00023c68  __covrec_986BD29BFA975C74                                           
00023c90  __covrec_D6A18F6B0143D735                                           
00023cb8  __covrec_35368D2270EB9D54                                           
00023ce0  __covrec_AFFEE0267C35E1C9                                           
00023d08  __covrec_5B2EF3F713A9AD4C                                           
00023d30  __covrec_26BDD9085FF96DA5                                           
00023d58  __covrec_1540C2C144B9922B                                           
00023d80  __covrec_DACD33E1AF0DED55                                           
00023da8  __covrec_F9263E8B0B2360BF                                           
00023dd0  __covrec_22E2236BC99304F9                                           
00023df8  __covrec_922DA92A28304F0F                                           
00023e20  __covrec_ABBB0DCCFB7B4AA9                                           
00023e48  __covrec_3E9B0EF1AFDE6C23                                           
00023e70  __covrec_D19EE980B71AEC43                                           
00023e98  __covrec_4F1EDF961F9F9089                                           
00023ec0  __covrec_993A6E8B0790B7DA                                           
00023ee8  __covrec_BD68002B29E6FA                                             
00023f10  __covrec_609D0681607B0888                                           
00023f38  __covrec_6858C8E5B39CEB34                                           
00023f60  __covrec_CB298777B5BBC7AD                                           
00023f88  __covrec_753AC122F5322A9A                                           
00023fb0  __covrec_1ED2390858C3EB64                                           
00023fd8  __covrec_617E8FCBAE7597D0                                           
00024000  __covrec_6884C285E245124A                                           
00024028  __covrec_F5013732295CEBE5                                           
00024050  __covrec_BEB1D8468371349B                                           
00024078  __covrec_DDCA764F6F979673                                           
000240a0  __covrec_EFD1C49295F7E42E                                           
000240c8  __covrec_2A658EA1206C62D6                                           
000240f0  __covrec_B451A5983A07C08F                                           
00024118  __covrec_303E360AA0461E56                                           
00024140  __covrec_EB81A68135E0DDA4                                           
00024168  __covrec_75B4464203626D69                                           
00024190  __covrec_96FA237B6317939A                                           
000241b8  __covrec_589F986B7592F53B                                           
000241e0  __covrec_3E1A6E5850148636                                           
00024208  __covrec_695B846627E823D1                                           
00024230  __covrec_9BF50A7EEF665123                                           
00024258  __covrec_81F37EBCBF637F88                                           
00024280  __covrec_D7386B0EE8FE1AA8                                           
000242a8  __covrec_88D20376481FF100                                           
000242d0  __covrec_F88B33E70F89E09                                            
000242f8  __covrec_13672E230F457DC9                                           
00024320  __covrec_2C177686F2932C2C                                           
00024348  __covrec_E7F6FCCA4F212604                                           
00024370  __covrec_BAE55637B2915732                                           
00024398  __covrec_916FF1DCA6C18374                                           
000243c0  __covrec_25D863D26F29F221                                           
000243e8  __covrec_7A0EA898D56D0CFC                                           
00024410  __covrec_39B0DFCD7DF2AB37                                           
00024438  __covrec_3DE34E8EF07EF7FD                                           
00024460  __covrec_5EA71F0DEB9B9AE1                                           
00024488  __covrec_A8498A117B23AFC8                                           
000244b0  __covrec_D66F26331EE7175B                                           
000244d8  __covrec_68010FB294048503                                           
00024500  __covrec_8B9A3DF1DFB13D5                                            
00024528  __covrec_2D4D821B616E6924                                           
00024550  __covrec_6352F0854902E882                                           
00024578  __covrec_30C72D90FAAB52FA                                           
000245a0  __covrec_11548A0C371099D9                                           
000245c8  __covrec_405D48D0FC02CE4                                            
000245f0  __covrec_5AA4C50A3572C884                                           
00024618  __covrec_3BEEED776316E3D8                                           
00024640  __covrec_A43679B7CAE7663                                            
00024668  __covrec_8D90CBB889ED1FE5                                           
00024690  __covrec_784B640CB8E108BA                                           
000246b8  __covrec_F7E26B3CC76FBD79                                           
000246e0  __covrec_1A0F7EC2AC44F654                                           
00024708  __covrec_2D723378264E6A7                                            
00024730  __covrec_307BB5214E98EBCB                                           
00024758  __covrec_DFFFDF448C6D309                                            
00024780  __covrec_31DC30DDC7036A3C                                           
000247a8  __covrec_C7D3229704260BFE                                           
000247d0  __covrec_B9C3540C3AC1D54F                                           
000247f8  __covrec_FFDBAA12E3B6E83D                                           
00024820  __covrec_E7095CEEB5EADC68                                           
00024848  __covrec_FB989D4CBC1E077                                            
00024870  __covrec_278B19F5D60C3947                                           
00024898  __covrec_A085E9CD601672CE                                           
000248c0  __covrec_8D541966D9D56E19                                           
000248e8  __covrec_A820663F94339109                                           
00024910  __covrec_29FD4C6F37BB673F                                           
00024938  __covrec_87AAEC4718B9F8AC                                           
00024960  __covrec_A3C077298A1EE38                                            
00024988  __covrec_AA52FE737418A4EA                                           
000249b0  __covrec_F04D21C3157E4AF3                                           
000249d8  __covrec_C7C205F37933D1CA                                           
00024a00  __covrec_67F0E0E2F00783DA                                           
00024a28  __covrec_CFCCF873B7181C91                                           
00024a50  __covrec_99409FA97391397F                                           
00024a78  __covrec_AB2A380F7C8F9FB2                                           
00024aa0  __covrec_A0DBB38BB4760AA5                                           
00024ac8  __covrec_7C742A04106EA598                                           
00024af0  __covrec_30E2ED287923C2A1                                           
00024b18  __covrec_3AAA503472040552                                           
00024b40  __covrec_CD5C2F4CD8490DB3                                           
00024b68  __covrec_5FAB5DB66DF3F6B1                                           
00024b90  __covrec_A9C700E1C71561D6                                           
00024bb8  __covrec_9C82DD3C630C958E                                           
00024be0  __covrec_C617E7C9DBB1B5DC                                           
00024c08  __covrec_6230355C4154A2EB                                           
00024c30  __covrec_157321A8C10AC04E                                           
00024c58  __covrec_80F12DDB53016D40                                           
00024c80  __covrec_7149D062015CF471                                           
00024ca8  __covrec_FEEDC4A55B8BFBDD                                           
00024cd0  __covrec_DEE1C41A02EED5C4                                           
00024cf8  __covrec_A52E9CCCE269F017                                           
00024d20  __covrec_59F98C605AC61246                                           
00024d48  __covrec_ADE3F00B66E34EBB                                           
00024d70  __covrec_F977D804E2DE5C3E                                           
00024d98  __covrec_2D2B2BAF1BAC8BDA                                           
00024dc0  __covrec_1A4544BED21CEB2C                                           
00024de8  __covrec_5F9688E4D5455A4F                                           
00024e10  __covrec_DFE73B7B1021BC7A                                           
00024e38  __covrec_1CABCD001BB8A2D4                                           
00024e60  __covrec_BE4C15D3B32B067C                                           
00024e88  __covrec_FD9DA43F75BC40F9                                           
00024eb0  __covrec_A867A2AB552AD431                                           
00024ed8  __covrec_AA40C52F613ED07F                                           
00024f00  __covrec_A18395C77B6C122B                                           
00024f28  __covrec_80A470E2383756C7                                           
00024f50  __covrec_41297A6DA905A84F                                           
00024f78  __covrec_134F21299CF91075                                           
00024fa0  __covrec_871145ED86CD1F0                                            
00024fc8  __covrec_BE385D0749AA9AC6                                           
00024ff0  __covrec_5B3116183A6F0466                                           
00025018  __covrec_D4626EC386D868E0                                           
00025040  __covrec_731B204584E19236                                           
00025068  __covrec_13941B1E936B73E2                                           
00025090  __covrec_9D8BCDECE7C49ABE                                           
000250b8  __covrec_4DAE465C3086FC76                                           
000250e0  __covrec_2A91C3E5F45518F9                                           
00025108  __covrec_11F13472B68456                                             
00025130  __covrec_7B0291F67719FE1E                                           
00025158  __covrec_6822925391E24728                                           
00025180  __covrec_9BE0DEA223C84842                                           
000251a8  __covrec_A974A80756D49DB9                                           
000251d0  __covrec_E1A5B2CA3303A7AC                                           
000251f8  __covrec_CECC738F131939BC                                           
00025220  __covrec_2548E4241C41D4AC                                           
00025248  __covrec_D586C93DA51AE2EF                                           
00025270  __covrec_9D7FE2815054410B                                           
00025298  __covrec_BF0525D0545F407D                                           
000252c0  __covrec_CED9A24C87C67E33                                           
000252e8  __covrec_BBC1B71FF0D6E9B7                                           
00025310  __covrec_E66B7ADE829927E1                                           
00025338  __covrec_CCA1F12623A87E34                                           
00025360  __covrec_693DE5C38757BCA9                                           
00025388  __covrec_276B3C7F132E7949                                           
000253b0  __covrec_A359454EB6553D3C                                           
000253d8  __covrec_AC331E4603C5064F                                           
00025400  __covrec_6B6CF2E8B51150E7                                           
00025428  __covrec_FC4C0F69166A5CA                                            
00025450  __covrec_9988F745693DE43F                                           
00025478  __covrec_F2FDFE424BC57950                                           
000254a0  __covrec_D946AFFF68D80E46                                           
000254c8  __covrec_77E8D9E82E558C56                                           
000254f0  __covrec_E6BC0395B465B060                                           
00025518  __covrec_B5717455E0C92E77                                           
00025540  __covrec_7BCD1EAB9F4C3537                                           
00025568  __covrec_4636F542C7B57A00                                           
00025590  __covrec_7D40DEB2329FBEA7                                           
000255b8  __covrec_812471B10D40FFA1                                           
000255e0  __covrec_8348022D202C8AC0                                           
00025608  __covrec_CDBEC65CA76225B3                                           
00025630  __covrec_74886A0737907A5C                                           
00025658  __covrec_676F8970FE61FFB9                                           
00025680  __covrec_4436F28390350551                                           
000256a8  __covrec_346C6355D054AFA7                                           
000256d0  __covrec_222CA9EC1B745CD9                                           
000256f8  __covrec_C37F4325D39AA6F4                                           
00025720  __covrec_AD1A311A8594BE7E                                           
00025748  __covrec_C1879FA7C346EBC                                            
00025770  __covrec_749663B955003AA6                                           
00025798  __covrec_D65B84EB5603889D                                           
000257c0  __covrec_A3B838279DB1FA53                                           
000257e8  __covrec_15D8AD984765CE7C                                           
00025810  __covrec_12B18424C859DF9D                                           
00025838  __covrec_913EA166209F947B                                           
00025860  __covrec_1759666B8765F80D                                           
00025888  __covrec_3218CEAEDF4FBA00                                           
000258b0  __covrec_1BEE14838B08B7EA                                           
000258d8  __covrec_60E17CA99ACCDE1D                                           
00025900  __covrec_9C1F00C8590A33A7                                           
00025928  __covrec_E3820D34BA47BB77                                           
00025950  __covrec_F442D8DCEFB37265                                           
00025978  __covrec_63D8F0E07CCD453E                                           
10000000  interruptVectors                                                    
10000120  reLogo                                                              
10025951  TFT_Init                                                            
1002be05  TFT_updateScreen                                                    
1002c691  main                                                                
1002c877  SYSCFG_DL_initPower                                                 
1002c9c5  SYSCFG_DL_GPIO_init                                                 
1002caef  SYSCFG_DL_SPI_1_init                                                
1002cbb9  SYSCFG_DL_SYSCTL_init                                               
1002cc6b  memcpy                                                              
1002cd07  __TI_decompress_lzss                                                
1002cd7b  memset                                                              
1002cded  DL_SPI_init                                                         
1002ce35  __TI_auto_init_nobinit_nopinit                                      
1002ce6d  SYSCFG_DL_init                                                      
1002cec1  DL_SPI_setClockConfig                                               
1002cee9  _c_int00_noargs                                                     
1002cf0d  Reset_Handler                                                       
1002cf29  ADC0_DCOMP_IRQHandler                                               
1002cf29  ADC0_SEQ0_IRQHandler                                                
1002cf29  ADC0_SEQ1_IRQHandler                                                
1002cf29  ADC0_SEQ2_IRQHandler                                                
1002cf29  ADC0_SEQ3_IRQHandler                                                
1002cf29  ADC1_DCOMP_IRQHandler                                               
1002cf29  ADC1_SEQ0_IRQHandler                                                
1002cf29  ADC1_SEQ1_IRQHandler                                                
1002cf29  ADC1_SEQ2_IRQHandler                                                
1002cf29  ADC1_SEQ3_IRQHandler                                                
1002cf29  AESADVHP_IRQHandler                                                 
1002cf29  CANFD0_IRQHandler                                                   
1002cf29  CANFD1_IRQHandler                                                   
1002cf29  COMP0_IRQHandler                                                    
1002cf29  COMP1_IRQHandler                                                    
1002cf29  DEBUGSS_IRQHandler                                                  
1002cf29  DMA0_IRQHandler                                                     
1002cf29  DMA1_IRQHandler                                                     
1002cf29  Default_Handler                                                     
1002cf29  FLASHCTL_IRQHandler                                                 
1002cf29  GPIOA_IRQHandler                                                    
1002cf29  GPIOB_IRQHandler                                                    
1002cf29  GPIOC_IRQHandler                                                    
1002cf29  HardFault_Handler                                                   
1002cf29  I2S0_IRQHandler                                                     
1002cf29  I2S1_IRQHandler                                                     
1002cf29  LFSS_IRQHandler                                                     
1002cf29  NMI_Handler                                                         
1002cf29  PKA_IRQHandler                                                      
1002cf29  PendSV_Handler                                                      
1002cf29  QSPI_IRQHandler                                                     
1002cf29  SHAW_IRQHandler                                                     
1002cf29  SVC_Handler                                                         
1002cf29  SYSCTL_IRQHandler                                                   
1002cf29  SysTick_Handler                                                     
1002cf29  TIMA0_0_IRQHandler                                                  
1002cf29  TIMA0_1_IRQHandler                                                  
1002cf29  TIMG12_0_IRQHandler                                                 
1002cf29  TIMG4_0_IRQHandler                                                  
1002cf29  TIMG4_1_IRQHandler                                                  
1002cf29  TIMG4_2_IRQHandler                                                  
1002cf29  TIMG4_3_IRQHandler                                                  
1002cf29  TIMG8_0_IRQHandler                                                  
1002cf29  TIMG8_1_IRQHandler                                                  
1002cf29  TRNG_IRQHandler                                                     
1002cf29  UC0_IRQHandler                                                      
1002cf29  UC10_IRQHandler                                                     
1002cf29  UC1_IRQHandler                                                      
1002cf29  UC2_IRQHandler                                                      
1002cf29  UC3_IRQHandler                                                      
1002cf29  UC4_IRQHandler                                                      
1002cf29  UC5_IRQHandler                                                      
1002cf29  UC6_IRQHandler                                                      
1002cf29  UC7_IRQHandler                                                      
1002cf29  UC8_IRQHandler                                                      
1002cf29  UC9_IRQHandler                                                      
1002cf29  WWDT0_IRQHandler                                                    
1002cf43  DL_Common_delayCycles                                               
1002cf57  __TI_zero_init                                                      
1002cf67  __TI_decompress_none                                                
1002cf75  __aeabi_memset                                                      
1002cf75  __aeabi_memset4                                                     
1002cf75  __aeabi_memset8                                                     
1002cf81  __aeabi_memclr                                                      
1002cf81  __aeabi_memclr4                                                     
1002cf81  __aeabi_memclr8                                                     
1002cf89  abort                                                               
1002cf8e  C$$EXIT                                                             
1002cf8f  HOSTexit                                                            
1002cf95  __aeabi_memcpy                                                      
1002cf95  __aeabi_memcpy4                                                     
1002cf95  __aeabi_memcpy8                                                     
1002cf99  _system_pre_init                                                    
1002cfa0  __TI_Handler_Table_Base                                             
1002cfa0  __TI_static_base__                                                  
1002cfac  __TI_Handler_Table_Limit                                            
1002cfc0  __TI_CINIT_Base                                                     
1002cfd0  __TI_CINIT_Limit                                                    
1002cfd0  __TI_CINIT_Warm                                                     
30000000  __start___llvm_prf_bits                                             
30000000  __stop___llvm_prf_bits                                              
30025800  __start___llvm_prf_cnts                                             
30025848  __profc_Default_Handler                                             
300258b8  __profc_Reset_Handler                                               
300258c0  __profc_SYSCFG_DL_GPIO_init                                         
300258c8  __profc_SYSCFG_DL_SPI_1_init                                        
300258d0  __profc_SYSCFG_DL_SYSCTL_init                                       
300258d8  __profc_SYSCFG_DL_init                                              
300258e0  __profc_SYSCFG_DL_initPower                                         
30025a08  __stop___llvm_prf_cnts                                              
3003fef8  __stack                                                             
3003fff8  __STACK_END                                                         
ffffffff  __TI_pprof_out_hndl                                                 
ffffffff  __TI_prof_data_size                                                 
ffffffff  __TI_prof_data_start                                                
ffffffff  __binit__                                                           
ffffffff  binit                                                               
UNDEFED   __mpu_init                                                          
UNDEFED   _system_post_cinit                                                  

[3947 symbols]
